


{
   <insert_a_suppression_name_here>
   Memcheck:Addr4
   obj:*
   obj:*
   fun:_ZN9JavaCalls11call_helperEP9JavaValueRK12methodHandleP17JavaCallArgumentsP10JavaThread
   fun:_ZN13InstanceKlass22call_class_initializerEP10JavaThread
   fun:_ZN13InstanceKlass15initialize_implEP10JavaThread
   fun:_ZN7Threads28initialize_java_lang_classesEP10JavaThreadS1_
   fun:_ZN7Threads9create_vmEP14JavaVMInitArgsPb
   fun:JNI_CreateJavaVM
   fun:JavaMain
   fun:ThreadJavaMain
   fun:start_thread
   fun:clone
}

{
   <insert_a_suppression_name_here>
   Memcheck:Addr4
   obj:*
   obj:*
   fun:_ZN9JavaCalls11call_helperEP9JavaValueRK12methodHandleP17JavaCallArgumentsP10JavaThread
   fun:_ZN16SystemDictionary21define_instance_classEP13InstanceKlass6HandleP10JavaThread
   fun:_ZN16SystemDictionary21find_or_define_helperEP6Symbol6HandleP13InstanceKlassP10JavaThread
   fun:_ZN16SystemDictionary25resolve_class_from_streamEP15ClassFileStreamP6Symbol6HandleRK13ClassLoadInfoP10JavaThread
   fun:_ZL23jvm_define_class_commonPKcP8_jobjectPKaiS2_S0_P10JavaThread
   fun:JVM_DefineClassWithSource
   fun:Java_java_lang_ClassLoader_defineClass1
   obj:*
   obj:*
   obj:*
}

{
   <insert_a_suppression_name_here>
   Memcheck:Addr4
   obj:*
   obj:*
   fun:_ZN9JavaCalls11call_helperEP9JavaValueRK12methodHandleP17JavaCallArgumentsP10JavaThread
   fun:_ZN9JavaCalls12call_specialEP9JavaValue6HandleP5KlassP6SymbolS6_S2_S2_P10JavaThread
   fun:_ZN10JavaThread18allocate_threadObjE6HandlePKcbPS_
   fun:attach_current_thread.part.0
   fun:jni_AttachCurrentThread
   fun:jni_DestroyJavaVM
   fun:JavaMain
   fun:ThreadJavaMain
   fun:start_thread
   fun:clone
}

{
   <insert_a_suppression_name_here>
   Memcheck:Addr4
   obj:*
   obj:*
   fun:_ZN9JavaCalls11call_helperEP9JavaValueRK12methodHandleP17JavaCallArgumentsP10JavaThread
   fun:_ZN9JavaCalls12call_virtualEP9JavaValue6HandleP5KlassP6SymbolS6_S2_P10JavaThread
   fun:_ZN16SystemDictionary24load_instance_class_implEP6Symbol6HandleP10JavaThread
   fun:_ZN16SystemDictionary19load_instance_classEP6Symbol6HandleP10JavaThread
   fun:_ZN16SystemDictionary30resolve_instance_class_or_nullEP6Symbol6HandleS2_P10JavaThread
   fun:_ZN16SystemDictionary15resolve_or_failEP6Symbol6HandleS2_bP10JavaThread
   fun:_ZN16VerificationType31resolve_and_check_assignabilityEP13InstanceKlassP6SymbolS3_bbbP10JavaThread
   fun:_ZNK16VerificationType28is_reference_assignable_fromERKS_P13ClassVerifierbP10JavaThread
   fun:_ZN13StackMapFrame9pop_stackE16VerificationTypeP10JavaThread
   fun:_ZN13ClassVerifier13verify_methodERK12methodHandleP10JavaThread
}

{
   <insert_a_suppression_name_here>
   Memcheck:Addr4
   obj:*
   obj:*
   obj:*
   fun:_ZN9JavaCalls11call_helperEP9JavaValueRK12methodHandleP17JavaCallArgumentsP10JavaThread
   fun:_ZN13InstanceKlass22call_class_initializerEP10JavaThread
   fun:_ZN13InstanceKlass15initialize_implEP10JavaThread
   fun:_ZN12LinkResolver13resolve_fieldER15fieldDescriptorRK8LinkInfoN9Bytecodes4CodeEbP10JavaThread
   fun:_ZN12LinkResolver20resolve_field_accessER15fieldDescriptorRK18constantPoolHandleiRK12methodHandleN9Bytecodes4CodeEP10JavaThread
   fun:_ZN18InterpreterRuntime15resolve_get_putEP10JavaThreadN9Bytecodes4CodeE
   fun:_ZN18InterpreterRuntime18resolve_from_cacheEP10JavaThreadN9Bytecodes4CodeE
   obj:*
   obj:*
}

{
   <insert_a_suppression_name_here>
   Memcheck:Addr4
   obj:*
   obj:*
   obj:*
   fun:_ZN9JavaCalls11call_helperEP9JavaValueRK12methodHandleP17JavaCallArgumentsP10JavaThread
   fun:_ZN13InstanceKlass22call_class_initializerEP10JavaThread
   fun:_ZN13InstanceKlass15initialize_implEP10JavaThread
   fun:_ZN12LinkResolver19resolve_static_callER8CallInfoRK8LinkInfobP10JavaThread
   fun:_ZN12LinkResolver14resolve_invokeER8CallInfo6HandleRK18constantPoolHandleiN9Bytecodes4CodeEP10JavaThread
   fun:_ZN18InterpreterRuntime14resolve_invokeEP10JavaThreadN9Bytecodes4CodeE
   fun:_ZN18InterpreterRuntime18resolve_from_cacheEP10JavaThreadN9Bytecodes4CodeE
   obj:*
   obj:*
}

{
   <insert_a_suppression_name_here>
   Memcheck:Addr4
   obj:*
   obj:*
   obj:*
   fun:_ZN9JavaCalls11call_helperEP9JavaValueRK12methodHandleP17JavaCallArgumentsP10JavaThread
   fun:_ZN13InstanceKlass22call_class_initializerEP10JavaThread
   fun:_ZN13InstanceKlass15initialize_implEP10JavaThread
   fun:_ZN7Threads28initialize_java_lang_classesEP10JavaThreadS1_
   fun:_ZN7Threads9create_vmEP14JavaVMInitArgsPb
   fun:JNI_CreateJavaVM
   fun:JavaMain
   fun:ThreadJavaMain
   fun:start_thread
}

{
   <insert_a_suppression_name_here>
   Memcheck:Addr4
   obj:*
   obj:*
   obj:*
   fun:_ZN9JavaCalls11call_helperEP9JavaValueRK12methodHandleP17JavaCallArgumentsP10JavaThread
   fun:_ZN9JavaCalls12call_specialEP9JavaValue6HandleP5KlassP6SymbolS6_S2_S2_P10JavaThread
   fun:_ZN10JavaThread18allocate_threadObjE6HandlePKcbPS_
   fun:attach_current_thread.part.0
   fun:jni_AttachCurrentThread
   fun:jni_DestroyJavaVM
   fun:JavaMain
   fun:ThreadJavaMain
   fun:start_thread
}

{
   <insert_a_suppression_name_here>
   Memcheck:Addr4
   obj:*
   obj:*
   obj:*
   fun:_ZN9JavaCalls11call_helperEP9JavaValueRK12methodHandleP17JavaCallArgumentsP10JavaThread
   fun:_ZN9JavaCalls12call_virtualEP9JavaValue6HandleP5KlassP6SymbolS6_S2_P10JavaThread
   fun:_ZN16SystemDictionary24load_instance_class_implEP6Symbol6HandleP10JavaThread
   fun:_ZN16SystemDictionary19load_instance_classEP6Symbol6HandleP10JavaThread
   fun:_ZN16SystemDictionary30resolve_instance_class_or_nullEP6Symbol6HandleS2_P10JavaThread
   fun:_ZN16SystemDictionary15resolve_or_failEP6Symbol6HandleS2_bP10JavaThread
   fun:_ZN16VerificationType31resolve_and_check_assignabilityEP13InstanceKlassP6SymbolS3_bbbP10JavaThread
   fun:_ZNK16VerificationType28is_reference_assignable_fromERKS_P13ClassVerifierbP10JavaThread
   fun:_ZN13StackMapFrame9pop_stackE16VerificationTypeP10JavaThread
}

{
   <insert_a_suppression_name_here>
   Memcheck:Addr4
   obj:*
   obj:*
   obj:*
   obj:*
   fun:_ZN9JavaCalls11call_helperEP9JavaValueRK12methodHandleP17JavaCallArgumentsP10JavaThread
   fun:_ZN13InstanceKlass22call_class_initializerEP10JavaThread
   fun:_ZN13InstanceKlass15initialize_implEP10JavaThread
   fun:_ZN7Threads28initialize_java_lang_classesEP10JavaThreadS1_
   fun:_ZN7Threads9create_vmEP14JavaVMInitArgsPb
   fun:JNI_CreateJavaVM
   fun:JavaMain
   fun:ThreadJavaMain
}

{
   <insert_a_suppression_name_here>
   Memcheck:Addr4
   obj:*
   obj:*
   obj:*
   obj:*
   fun:_ZN9JavaCalls11call_helperEP9JavaValueRK12methodHandleP17JavaCallArgumentsP10JavaThread
   fun:_ZN16SystemDictionary21define_instance_classEP13InstanceKlass6HandleP10JavaThread
   fun:_ZN16SystemDictionary21find_or_define_helperEP6Symbol6HandleP13InstanceKlassP10JavaThread
   fun:_ZN16SystemDictionary25resolve_class_from_streamEP15ClassFileStreamP6Symbol6HandleRK13ClassLoadInfoP10JavaThread
   fun:_ZL23jvm_define_class_commonPKcP8_jobjectPKaiS2_S0_P10JavaThread
   fun:JVM_DefineClassWithSource
   fun:Java_java_lang_ClassLoader_defineClass1
   obj:*
}

{
   <insert_a_suppression_name_here>
   Memcheck:Addr4
   obj:*
   obj:*
   obj:*
   obj:*
   fun:_ZN9JavaCalls11call_helperEP9JavaValueRK12methodHandleP17JavaCallArgumentsP10JavaThread
   fun:_ZN9JavaCalls12call_virtualEP9JavaValue6HandleP5KlassP6SymbolS6_S2_P10JavaThread
   fun:_ZN16SystemDictionary24load_instance_class_implEP6Symbol6HandleP10JavaThread
   fun:_ZN16SystemDictionary19load_instance_classEP6Symbol6HandleP10JavaThread
   fun:_ZN16SystemDictionary30resolve_instance_class_or_nullEP6Symbol6HandleS2_P10JavaThread
   fun:_ZN16SystemDictionary15resolve_or_failEP6Symbol6HandleS2_bP10JavaThread
   fun:_ZN16VerificationType31resolve_and_check_assignabilityEP13InstanceKlassP6SymbolS3_bbbP10JavaThread
   fun:_ZNK16VerificationType28is_reference_assignable_fromERKS_P13ClassVerifierbP10JavaThread
}

{
   <insert_a_suppression_name_here>
   Memcheck:Addr4
   obj:*
   obj:*
   obj:*
   obj:*
   obj:*
   fun:_ZN9JavaCalls11call_helperEP9JavaValueRK12methodHandleP17JavaCallArgumentsP10JavaThread
   fun:_ZN13InstanceKlass22call_class_initializerEP10JavaThread
   fun:_ZN13InstanceKlass15initialize_implEP10JavaThread
   fun:_ZN12LinkResolver13resolve_fieldER15fieldDescriptorRK8LinkInfoN9Bytecodes4CodeEbP10JavaThread
   fun:_ZN12LinkResolver20resolve_field_accessER15fieldDescriptorRK18constantPoolHandleiRK12methodHandleN9Bytecodes4CodeEP10JavaThread
   fun:_ZN18InterpreterRuntime15resolve_get_putEP10JavaThreadN9Bytecodes4CodeE
   fun:_ZN18InterpreterRuntime18resolve_from_cacheEP10JavaThreadN9Bytecodes4CodeE
}

{
   <insert_a_suppression_name_here>
   Memcheck:Addr4
   obj:*
   obj:*
   obj:*
   obj:*
   obj:*
   fun:_ZN9JavaCalls11call_helperEP9JavaValueRK12methodHandleP17JavaCallArgumentsP10JavaThread
   fun:_ZN16SystemDictionary21define_instance_classEP13InstanceKlass6HandleP10JavaThread
   fun:_ZN16SystemDictionary21find_or_define_helperEP6Symbol6HandleP13InstanceKlassP10JavaThread
   fun:_ZN16SystemDictionary25resolve_class_from_streamEP15ClassFileStreamP6Symbol6HandleRK13ClassLoadInfoP10JavaThread
   fun:_ZL23jvm_define_class_commonPKcP8_jobjectPKaiS2_S0_P10JavaThread
   fun:JVM_DefineClassWithSource
   fun:Java_java_lang_ClassLoader_defineClass1
}

{
   <insert_a_suppression_name_here>
   Memcheck:Addr4
   obj:*
   obj:*
   obj:*
   obj:*
   obj:*
   fun:_ZN9JavaCalls11call_helperEP9JavaValueRK12methodHandleP17JavaCallArgumentsP10JavaThread
   fun:_ZN9JavaCalls12call_virtualEP9JavaValue6HandleP5KlassP6SymbolS6_S2_P10JavaThread
   fun:_ZN16SystemDictionary24load_instance_class_implEP6Symbol6HandleP10JavaThread
   fun:_ZN16SystemDictionary19load_instance_classEP6Symbol6HandleP10JavaThread
   fun:_ZN16SystemDictionary30resolve_instance_class_or_nullEP6Symbol6HandleS2_P10JavaThread
   fun:_ZN16SystemDictionary15resolve_or_failEP6Symbol6HandleS2_bP10JavaThread
   fun:_ZN12ConstantPool13klass_at_implERK18constantPoolHandleiP10JavaThread
}

{
   <insert_a_suppression_name_here>
   Memcheck:Addr4
   obj:*
   obj:*
   obj:*
   obj:*
   obj:*
   obj:*
   fun:_ZN9JavaCalls11call_helperEP9JavaValueRK12methodHandleP17JavaCallArgumentsP10JavaThread
   fun:_ZN9JavaCalls12call_specialEP9JavaValue6HandleP5KlassP6SymbolS6_S2_S2_P10JavaThread
   fun:_ZN10JavaThread18allocate_threadObjE6HandlePKcbPS_
   fun:attach_current_thread.part.0
   fun:jni_AttachCurrentThread
   fun:jni_DestroyJavaVM
}

{
   <insert_a_suppression_name_here>
   Memcheck:Addr4
   obj:*
   obj:*
   obj:*
   obj:*
   obj:*
   obj:*
   fun:_ZN9JavaCalls11call_helperEP9JavaValueRK12methodHandleP17JavaCallArgumentsP10JavaThread
   fun:_ZN9JavaCalls12call_virtualEP9JavaValue6HandleP5KlassP6SymbolS6_S2_P10JavaThread
   fun:_ZN16SystemDictionary24load_instance_class_implEP6Symbol6HandleP10JavaThread
   fun:_ZN16SystemDictionary19load_instance_classEP6Symbol6HandleP10JavaThread
   fun:_ZN16SystemDictionary30resolve_instance_class_or_nullEP6Symbol6HandleS2_P10JavaThread
   fun:_ZN16SystemDictionary15resolve_or_failEP6Symbol6HandleS2_bP10JavaThread
}

{
   <insert_a_suppression_name_here>
   Memcheck:Addr4
   obj:*
   obj:*
   obj:*
   obj:*
   obj:*
   obj:*
   obj:*
   fun:_ZN9JavaCalls11call_helperEP9JavaValueRK12methodHandleP17JavaCallArgumentsP10JavaThread
   fun:_ZN13InstanceKlass22call_class_initializerEP10JavaThread
   fun:_ZN13InstanceKlass15initialize_implEP10JavaThread
   fun:_ZN12LinkResolver13resolve_fieldER15fieldDescriptorRK8LinkInfoN9Bytecodes4CodeEbP10JavaThread
   fun:_ZN12LinkResolver20resolve_field_accessER15fieldDescriptorRK18constantPoolHandleiRK12methodHandleN9Bytecodes4CodeEP10JavaThread
}

{
   <insert_a_suppression_name_here>
   Memcheck:Addr4
   obj:*
   obj:*
   obj:*
   obj:*
   obj:*
   obj:*
   obj:*
   fun:_ZN9JavaCalls11call_helperEP9JavaValueRK12methodHandleP17JavaCallArgumentsP10JavaThread
   fun:_ZN9JavaCalls12call_specialEP9JavaValue6HandleP5KlassP6SymbolS6_S2_S2_P10JavaThread
   fun:_ZN10JavaThread18allocate_threadObjE6HandlePKcbPS_
   fun:attach_current_thread.part.0
   fun:jni_AttachCurrentThread
}

{
   <insert_a_suppression_name_here>
   Memcheck:Addr4
   obj:*
   obj:*
   obj:*
   obj:*
   obj:*
   obj:*
   obj:*
   fun:_ZN9JavaCalls11call_helperEP9JavaValueRK12methodHandleP17JavaCallArgumentsP10JavaThread
   fun:_ZN9JavaCalls12call_virtualEP9JavaValue6HandleP5KlassP6SymbolS6_S2_P10JavaThread
   fun:_ZN16SystemDictionary24load_instance_class_implEP6Symbol6HandleP10JavaThread
   fun:_ZN16SystemDictionary19load_instance_classEP6Symbol6HandleP10JavaThread
   fun:_ZN16SystemDictionary30resolve_instance_class_or_nullEP6Symbol6HandleS2_P10JavaThread
}

{
   <insert_a_suppression_name_here>
   Memcheck:Addr4
   obj:*
   obj:*
   obj:*
   obj:*
   obj:*
   obj:*
   obj:*
   obj:*
   fun:_ZN9JavaCalls11call_helperEP9JavaValueRK12methodHandleP17JavaCallArgumentsP10JavaThread
   fun:_ZN13InstanceKlass22call_class_initializerEP10JavaThread
   fun:_ZN13InstanceKlass15initialize_implEP10JavaThread
   fun:_ZN12LinkResolver13resolve_fieldER15fieldDescriptorRK8LinkInfoN9Bytecodes4CodeEbP10JavaThread
}

{
   <insert_a_suppression_name_here>
   Memcheck:Addr4
   obj:*
   obj:*
   obj:*
   obj:*
   obj:*
   obj:*
   obj:*
   obj:*
   fun:_ZN9JavaCalls11call_helperEP9JavaValueRK12methodHandleP17JavaCallArgumentsP10JavaThread
   fun:_ZN16SystemDictionary21define_instance_classEP13InstanceKlass6HandleP10JavaThread
   fun:_ZN16SystemDictionary21find_or_define_helperEP6Symbol6HandleP13InstanceKlassP10JavaThread
   fun:_ZN16SystemDictionary25resolve_class_from_streamEP15ClassFileStreamP6Symbol6HandleRK13ClassLoadInfoP10JavaThread
}

{
   <insert_a_suppression_name_here>
   Memcheck:Addr4
   obj:*
   obj:*
   obj:*
   obj:*
   obj:*
   obj:*
   obj:*
   obj:*
   obj:*
   fun:_ZN9JavaCalls11call_helperEP9JavaValueRK12methodHandleP17JavaCallArgumentsP10JavaThread
   fun:_ZN9JavaCalls12call_virtualEP9JavaValue6HandleP5KlassP6SymbolS6_S2_P10JavaThread
   fun:_ZN16SystemDictionary24load_instance_class_implEP6Symbol6HandleP10JavaThread
}

{
   <insert_a_suppression_name_here>
   Memcheck:Addr4
   obj:*
   obj:*
   obj:*
   obj:*
   obj:*
   obj:*
   obj:*
   obj:*
   obj:*
   obj:*
   fun:_ZN9JavaCalls11call_helperEP9JavaValueRK12methodHandleP17JavaCallArgumentsP10JavaThread
   fun:_ZN9JavaCalls12call_virtualEP9JavaValue6HandleP5KlassP6SymbolS6_S2_P10JavaThread
}

{
   <insert_a_suppression_name_here>
   Memcheck:Addr4
   obj:*
   obj:*
   obj:*
   obj:*
   obj:*
   obj:*
   obj:*
   obj:*
   obj:*
   obj:*
   obj:*
   fun:_ZN9JavaCalls11call_helperEP9JavaValueRK12methodHandleP17JavaCallArgumentsP10JavaThread
}

{
   <insert_a_suppression_name_here>
   Memcheck:Addr4
   obj:*
   obj:*
   obj:*
   obj:*
   obj:*
   obj:*
   obj:*
   obj:*
   obj:*
   obj:*
   obj:*
   obj:*
}

{
   <insert_a_suppression_name_here>
   Memcheck:Cond
   fun:_ZNK11G1Analytics27predict_object_copy_time_msEmb
   fun:_ZN15G1CollectionSet19finalize_young_partEdP17G1SurvivorRegions
   fun:_ZN15G1CollectionSet31finalize_initial_collection_setEdP17G1SurvivorRegions
   fun:_ZN16G1YoungCollector27pre_evacuate_collection_setEP10G1EvacInfo
   fun:_ZN16G1YoungCollector7collectEv
   fun:_ZN15G1CollectedHeap39do_collection_pause_at_safepoint_helperEv
   fun:_ZN15G1CollectedHeap32do_collection_pause_at_safepointEv
   fun:_ZN25VM_G1CollectForAllocation4doitEv
   fun:_ZN12VM_Operation8evaluateEv
   fun:_ZN8VMThread18evaluate_operationEP12VM_Operation
   fun:_ZN8VMThread13inner_executeEP12VM_Operation
   fun:_ZN8VMThread3runEv
}

{
   <insert_a_suppression_name_here>
   Memcheck:Cond
   fun:_ZNK8G1Policy25predict_eden_copy_time_msEjPm
   fun:_ZN15G1CollectionSet19finalize_young_partEdP17G1SurvivorRegions
   fun:_ZN15G1CollectionSet31finalize_initial_collection_setEdP17G1SurvivorRegions
   fun:_ZN16G1YoungCollector27pre_evacuate_collection_setEP10G1EvacInfo
   fun:_ZN16G1YoungCollector7collectEv
   fun:_ZN15G1CollectedHeap39do_collection_pause_at_safepoint_helperEv
   fun:_ZN15G1CollectedHeap32do_collection_pause_at_safepointEv
   fun:_ZN25VM_G1CollectForAllocation4doitEv
   fun:_ZN12VM_Operation8evaluateEv
   fun:_ZN8VMThread18evaluate_operationEP12VM_Operation
   fun:_ZN8VMThread13inner_executeEP12VM_Operation
   fun:_ZN8VMThread3runEv
}

{
   <insert_a_suppression_name_here>
   Memcheck:Leak
   match-leak-kinds: definite
   fun:malloc
   fun:JLI_MemAlloc
   fun:CheckJvmType
   fun:CreateExecutionEnvironment
   fun:JLI_Launch
   fun:main
}

{
   <insert_a_suppression_name_here>
   Memcheck:Leak
   match-leak-kinds: definite
   fun:malloc
   fun:JLI_MemAlloc
   fun:JLI_Launch
   fun:main
}

{
   <insert_a_suppression_name_here>
   Memcheck:Leak
   match-leak-kinds: definite
   fun:malloc
   fun:JLI_MemAlloc
   fun:JLI_List_new
   fun:main
}

{
   <insert_a_suppression_name_here>
   Memcheck:Leak
   match-leak-kinds: definite
   fun:malloc
   fun:JLI_MemAlloc
   fun:SetJavaCommandLineProp
   fun:JLI_Launch
   fun:main
}

{
   <insert_a_suppression_name_here>
   Memcheck:Leak
   match-leak-kinds: definite
   fun:malloc
   fun:_ZN2os6mallocEm8MEMFLAGSRK15NativeCallStack
   fun:_Z12AllocateHeapm8MEMFLAGSN17AllocFailStrategy13AllocFailEnumE
   fun:_ZN10PerfMemory20create_memory_regionEm
   fun:_ZN10PerfMemory10initializeEv.part.0
   fun:_Z15vm_init_globalsv
   fun:_ZN7Threads9create_vmEP14JavaVMInitArgsPb
   fun:JNI_CreateJavaVM
   fun:JavaMain
   fun:ThreadJavaMain
   fun:start_thread
   fun:clone
}

{
   <insert_a_suppression_name_here>
   Memcheck:Leak
   match-leak-kinds: definite
   fun:malloc
   fun:_ZN2os6mallocEm8MEMFLAGSRK15NativeCallStack
   fun:_Z12AllocateHeapm8MEMFLAGSN17AllocFailStrategy13AllocFailEnumE
   fun:_ZN11StatSampler23create_sampled_perfdataEv
   fun:_ZN11StatSampler20create_misc_perfdataEv
   fun:_ZN11StatSampler6engageEv
   fun:_ZN7Threads9create_vmEP14JavaVMInitArgsPb
   fun:JNI_CreateJavaVM
   fun:JavaMain
   fun:ThreadJavaMain
   fun:start_thread
   fun:clone
}

{
   <insert_a_suppression_name_here>
   Memcheck:Leak
   match-leak-kinds: definite
   fun:malloc
   fun:_ZN2os6mallocEm8MEMFLAGSRK15NativeCallStack
   fun:_Z12AllocateHeapm8MEMFLAGSN17AllocFailStrategy13AllocFailEnumE
   fun:_ZN13WatcherThread5startEv
   fun:_ZN7Threads9create_vmEP14JavaVMInitArgsPb
   fun:JNI_CreateJavaVM
   fun:JavaMain
   fun:ThreadJavaMain
   fun:start_thread
   fun:clone
}

{
   <insert_a_suppression_name_here>
   Memcheck:Leak
   match-leak-kinds: indirect
   fun:malloc
   fun:JLI_MemAlloc
   fun:JLI_List_new
   fun:main
}

{
   <insert_a_suppression_name_here>
   Memcheck:Leak
   match-leak-kinds: indirect
   fun:malloc
   fun:_ZN2os6mallocEm8MEMFLAGSRK15NativeCallStack
   fun:_Z12AllocateHeapm8MEMFLAGSN17AllocFailStrategy13AllocFailEnumE
   fun:_ZN16G1DirtyCardQueueC1EP19G1DirtyCardQueueSet
   fun:_ZN13WatcherThread5startEv
   fun:_ZN7Threads9create_vmEP14JavaVMInitArgsPb
   fun:JNI_CreateJavaVM
   fun:JavaMain
   fun:ThreadJavaMain
   fun:start_thread
   fun:clone
}

{
   <insert_a_suppression_name_here>
   Memcheck:Leak
   match-leak-kinds: indirect
   fun:malloc
   fun:_ZN2os6mallocEm8MEMFLAGSRK15NativeCallStack
   fun:_Z12AllocateHeapm8MEMFLAGSN17AllocFailStrategy13AllocFailEnumE
   fun:_ZN2os13create_threadEP6ThreadNS_10ThreadTypeEm
   fun:_ZN13WatcherThread5startEv
   fun:_ZN7Threads9create_vmEP14JavaVMInitArgsPb
   fun:JNI_CreateJavaVM
   fun:JavaMain
   fun:ThreadJavaMain
   fun:start_thread
   fun:clone
}

{
   <insert_a_suppression_name_here>
   Memcheck:Leak
   match-leak-kinds: indirect
   fun:malloc
   fun:_ZN2os6mallocEm8MEMFLAGSRK15NativeCallStack
   fun:_Z12AllocateHeapm8MEMFLAGSN17AllocFailStrategy13AllocFailEnumE
   fun:_ZN6ThreadC1Ev
   fun:_ZN13WatcherThread5startEv
   fun:_ZN7Threads9create_vmEP14JavaVMInitArgsPb
   fun:JNI_CreateJavaVM
   fun:JavaMain
   fun:ThreadJavaMain
   fun:start_thread
   fun:clone
}

{
   <insert_a_suppression_name_here>
   Memcheck:Leak
   match-leak-kinds: indirect
   fun:malloc
   fun:_ZN2os6mallocEm8MEMFLAGSRK15NativeCallStack
   fun:_Z12AllocateHeapm8MEMFLAGSN17AllocFailStrategy13AllocFailEnumE
   fun:_ZN8OSThread13pd_initializeEv
   fun:_ZN2os13create_threadEP6ThreadNS_10ThreadTypeEm
   fun:_ZN13WatcherThread5startEv
   fun:_ZN7Threads9create_vmEP14JavaVMInitArgsPb
   fun:JNI_CreateJavaVM
   fun:JavaMain
   fun:ThreadJavaMain
   fun:start_thread
   fun:clone
}

{
   <insert_a_suppression_name_here>
   Memcheck:Leak
   match-leak-kinds: indirect
   fun:malloc
   fun:_ZN2os6mallocEm8MEMFLAGSRK15NativeCallStack
   fun:_Z12AllocateHeapm8MEMFLAGSRK15NativeCallStackN17AllocFailStrategy13AllocFailEnumE
   fun:_ZN9ParkEvent8AllocateEP6Thread
   fun:_ZN6ThreadC1Ev
   fun:_ZN13WatcherThread5startEv
   fun:_ZN7Threads9create_vmEP14JavaVMInitArgsPb
   fun:JNI_CreateJavaVM
   fun:JavaMain
   fun:ThreadJavaMain
   fun:start_thread
   fun:clone
}

{
   <insert_a_suppression_name_here>
   Memcheck:Leak
   match-leak-kinds: indirect
   fun:malloc
   fun:_ZN2os6mallocEm8MEMFLAGSRK15NativeCallStack
   fun:_ZN5ArenaC1E8MEMFLAGS
   fun:_ZN6ThreadC1Ev
   fun:_ZN13WatcherThread5startEv
   fun:_ZN7Threads9create_vmEP14JavaVMInitArgsPb
   fun:JNI_CreateJavaVM
   fun:JavaMain
   fun:ThreadJavaMain
   fun:start_thread
   fun:clone
}

{
   <insert_a_suppression_name_here>
   Memcheck:Leak
   match-leak-kinds: indirect
   fun:malloc
   fun:_ZN2os6mallocEm8MEMFLAGSRK15NativeCallStack
   fun:_ZN5ArenaC1E8MEMFLAGSm
   fun:_ZN6ThreadC1Ev
   fun:_ZN13WatcherThread5startEv
   fun:_ZN7Threads9create_vmEP14JavaVMInitArgsPb
   fun:JNI_CreateJavaVM
   fun:JavaMain
   fun:ThreadJavaMain
   fun:start_thread
   fun:clone
}

{
   <insert_a_suppression_name_here>
   Memcheck:Leak
   match-leak-kinds: indirect
   fun:malloc
   fun:_ZN2os6mallocEm8MEMFLAGSRK15NativeCallStack
   fun:_ZN6AnyObjnwEm8MEMFLAGS
   fun:_ZN6ThreadC1Ev
   fun:_ZN13WatcherThread5startEv
   fun:_ZN7Threads9create_vmEP14JavaVMInitArgsPb
   fun:JNI_CreateJavaVM
   fun:JavaMain
   fun:ThreadJavaMain
   fun:start_thread
   fun:clone
}

{
   <insert_a_suppression_name_here>
   Memcheck:Leak
   match-leak-kinds: indirect
   fun:malloc
   fun:_ZN2os6strdupEPKc8MEMFLAGS
   fun:_ZN5MutexC1ENS_4RankEPKcb
   fun:_ZN8OSThread13pd_initializeEv
   fun:_ZN2os13create_threadEP6ThreadNS_10ThreadTypeEm
   fun:_ZN13WatcherThread5startEv
   fun:_ZN7Threads9create_vmEP14JavaVMInitArgsPb
   fun:JNI_CreateJavaVM
   fun:JavaMain
   fun:ThreadJavaMain
   fun:start_thread
   fun:clone
}

{
   <insert_a_suppression_name_here>
   Memcheck:Leak
   match-leak-kinds: indirect
   fun:malloc
   fun:strdup
   fun:JLI_StringDup
   fun:main
}

{
   <insert_a_suppression_name_here>
   Memcheck:Leak
   match-leak-kinds: possible
   fun:calloc
   fun:calloc
   fun:allocate_dtv
   fun:_dl_allocate_tls
   fun:allocate_stack
   fun:pthread_create@@GLIBC_2.34
   fun:_ZN2os13create_threadEP6ThreadNS_10ThreadTypeEm
   fun:JVM_StartThread
   obj:*
   obj:*
   obj:*
   obj:*
   obj:*
   obj:*
   fun:_ZN9JavaCalls11call_helperEP9JavaValueRK12methodHandleP17JavaCallArgumentsP10JavaThread
}

{
   <insert_a_suppression_name_here>
   Memcheck:Leak
   match-leak-kinds: possible
   fun:calloc
   fun:calloc
   fun:allocate_dtv
   fun:_dl_allocate_tls
   fun:allocate_stack
   fun:pthread_create@@GLIBC_2.34
   fun:_ZN2os13create_threadEP6ThreadNS_10ThreadTypeEm
   fun:_ZN13ServiceThread10initializeEv
   fun:_ZN7Threads9create_vmEP14JavaVMInitArgsPb
   fun:JNI_CreateJavaVM
   fun:JavaMain
   fun:ThreadJavaMain
   fun:start_thread
   fun:clone
}

{
   <insert_a_suppression_name_here>
   Memcheck:Leak
   match-leak-kinds: possible
   fun:calloc
   fun:calloc
   fun:allocate_dtv
   fun:_dl_allocate_tls
   fun:allocate_stack
   fun:pthread_create@@GLIBC_2.34
   fun:_ZN2os13create_threadEP6ThreadNS_10ThreadTypeEm
   fun:_ZN13WorkerThreads13create_workerEj
   fun:_ZN13WorkerThreads18initialize_workersEv
   fun:_ZN15G1CollectedHeap10initializeEv
   fun:_Z13universe_initv
   fun:_Z12init_globalsv
   fun:_ZN7Threads9create_vmEP14JavaVMInitArgsPb
   fun:JNI_CreateJavaVM
   fun:JavaMain
}

{
   <insert_a_suppression_name_here>
   Memcheck:Leak
   match-leak-kinds: possible
   fun:calloc
   fun:calloc
   fun:allocate_dtv
   fun:_dl_allocate_tls
   fun:allocate_stack
   fun:pthread_create@@GLIBC_2.34
   fun:_ZN2os13create_threadEP6ThreadNS_10ThreadTypeEm
   fun:_ZN13WorkerThreads13create_workerEj
   fun:_ZN13WorkerThreads18initialize_workersEv
   fun:_ZN16G1ConcurrentMarkC1EP15G1CollectedHeapP21G1RegionToSpaceMapper
   fun:_ZN15G1CollectedHeap10initializeEv
   fun:_Z13universe_initv
   fun:_Z12init_globalsv
   fun:_ZN7Threads9create_vmEP14JavaVMInitArgsPb
   fun:JNI_CreateJavaVM
}

{
   <insert_a_suppression_name_here>
   Memcheck:Leak
   match-leak-kinds: possible
   fun:calloc
   fun:calloc
   fun:allocate_dtv
   fun:_dl_allocate_tls
   fun:allocate_stack
   fun:pthread_create@@GLIBC_2.34
   fun:_ZN2os13create_threadEP6ThreadNS_10ThreadTypeEm
   fun:_ZN13WorkerThreads13create_workerEj
   fun:_ZN13WorkerThreads18set_active_workersEj
   fun:_ZN16G1YoungCollector7collectEv
   fun:_ZN15G1CollectedHeap39do_collection_pause_at_safepoint_helperEv
   fun:_ZN15G1CollectedHeap32do_collection_pause_at_safepointEv
   fun:_ZN25VM_G1CollectForAllocation4doitEv
   fun:_ZN12VM_Operation8evaluateEv
   fun:_ZN8VMThread18evaluate_operationEP12VM_Operation
}

{
   <insert_a_suppression_name_here>
   Memcheck:Leak
   match-leak-kinds: possible
   fun:calloc
   fun:calloc
   fun:allocate_dtv
   fun:_dl_allocate_tls
   fun:allocate_stack
   fun:pthread_create@@GLIBC_2.34
   fun:_ZN2os13create_threadEP6ThreadNS_10ThreadTypeEm
   fun:_ZN18NotificationThread10initializeEv
   fun:_ZN10Management10initializeEP10JavaThread
   fun:_ZN7Threads9create_vmEP14JavaVMInitArgsPb
   fun:JNI_CreateJavaVM
   fun:JavaMain
   fun:ThreadJavaMain
   fun:start_thread
   fun:clone
}

{
   <insert_a_suppression_name_here>
   Memcheck:Leak
   match-leak-kinds: possible
   fun:calloc
   fun:calloc
   fun:allocate_dtv
   fun:_dl_allocate_tls
   fun:allocate_stack
   fun:pthread_create@@GLIBC_2.34
   fun:_ZN2os13create_threadEP6ThreadNS_10ThreadTypeEm
   fun:_ZN22MonitorDeflationThread10initializeEv
   fun:_ZN7Threads9create_vmEP14JavaVMInitArgsPb
   fun:JNI_CreateJavaVM
   fun:JavaMain
   fun:ThreadJavaMain
   fun:start_thread
   fun:clone
}

{
   <insert_a_suppression_name_here>
   Memcheck:Leak
   match-leak-kinds: possible
   fun:malloc
   fun:_ZN2os6mallocEm8MEMFLAGSRK15NativeCallStack
   fun:_Z12AllocateHeapm8MEMFLAGSN17AllocFailStrategy13AllocFailEnumE
   fun:_ZN10OopStorage13try_add_blockEv
   fun:_ZN10OopStorage8allocateEv
   fun:_ZN10JNIHandles11make_globalE6HandleN17AllocFailStrategy13AllocFailEnumE
   fun:jni_NewGlobalRef
   fun:checked_jni_NewGlobalRef
   fun:JNU_ClassString
   fun:InitializeEncoding
   fun:Java_jdk_internal_util_SystemProps_00024Raw_platformProperties
   obj:*
}

{
   <insert_a_suppression_name_here>
   Memcheck:Leak
   match-leak-kinds: possible
   fun:malloc
   fun:_ZN2os6mallocEm8MEMFLAGSRK15NativeCallStack
   fun:_Z12AllocateHeapm8MEMFLAGSN17AllocFailStrategy13AllocFailEnumE
   fun:_ZN10OopStorage13try_add_blockEv
   fun:_ZN10OopStorage8allocateEv
   fun:_ZN10JavaThread20set_threadOopHandlesEP7oopDesc
   fun:_ZN7Threads28initialize_java_lang_classesEP10JavaThreadS1_
   fun:_ZN7Threads9create_vmEP14JavaVMInitArgsPb
   fun:JNI_CreateJavaVM
   fun:JavaMain
   fun:ThreadJavaMain
   fun:start_thread
}

{
   <insert_a_suppression_name_here>
   Memcheck:Leak
   match-leak-kinds: possible
   fun:malloc
   fun:_ZN2os6mallocEm8MEMFLAGSRK15NativeCallStack
   fun:_Z12AllocateHeapm8MEMFLAGSN17AllocFailStrategy13AllocFailEnumE
   fun:_ZN10OopStorage13try_add_blockEv
   fun:_ZN10OopStorage8allocateEv
   fun:_ZN10WeakHandleC1EP10OopStorage6Handle
   fun:_ZN11StringTable9do_internE6HandlePKtimP10JavaThread
   fun:_ZN11StringTable6internEP6SymbolP10JavaThread
   fun:_ZN12ConstantPool14string_at_implERK18constantPoolHandleiiP10JavaThread
   fun:_ZN12ConstantPool24resolve_constant_at_implERK18constantPoolHandleiiPbP10JavaThread
   fun:_ZNK21Bytecode_loadconstant16resolve_constantEP10JavaThread
   fun:_ZN18InterpreterRuntime11resolve_ldcEP10JavaThreadN9Bytecodes4CodeE
}

{
   <insert_a_suppression_name_here>
   Memcheck:Leak
   match-leak-kinds: possible
   fun:malloc
   fun:_ZN2os6mallocEm8MEMFLAGSRK15NativeCallStack
   fun:_Z12AllocateHeapm8MEMFLAGSN17AllocFailStrategy13AllocFailEnumE
   fun:_ZN10OopStorage13try_add_blockEv
   fun:_ZN10OopStorage8allocateEv
   fun:_ZN10WeakHandleC1EP10OopStorage6Handle
   fun:_ZN11StringTable9do_internE6HandlePKtimP10JavaThread
   fun:_ZN11StringTable6internEPKcP10JavaThread
   fun:_ZN8Universe7genesisEP10JavaThread
   fun:_Z14universe2_initv
   fun:_Z13init_globals2v
   fun:_ZN7Threads9create_vmEP14JavaVMInitArgsPb
}

{
   <insert_a_suppression_name_here>
   Memcheck:Leak
   match-leak-kinds: possible
   fun:malloc
   fun:_ZN2os6mallocEm8MEMFLAGSRK15NativeCallStack
   fun:_Z12AllocateHeapm8MEMFLAGSN17AllocFailStrategy13AllocFailEnumE
   fun:_ZN10OopStorage13try_add_blockEv
   fun:_ZN10OopStorage8allocateEv
   fun:_ZN10WeakHandleC1EP10OopStorage6Handle
   fun:_ZN19ResolvedMethodTable10add_methodEPK6Method6Handle
   fun:_ZN8CallInfo24set_resolved_method_nameEP10JavaThread
   fun:_ZN13MethodHandles18resolve_MemberNameE6HandleP5KlassibP10JavaThread
   fun:MHN_resolve_Mem
   obj:*
   obj:*
}

{
   <insert_a_suppression_name_here>
   Memcheck:Leak
   match-leak-kinds: possible
   fun:malloc
   fun:_ZN2os6mallocEm8MEMFLAGSRK15NativeCallStack
   fun:_Z12AllocateHeapm8MEMFLAGSN17AllocFailStrategy13AllocFailEnumE
   fun:_ZN10OopStorage13try_add_blockEv
   fun:_ZN10OopStorage8allocateEv
   fun:_ZN10WeakHandleC1EP10OopStorageP7oopDesc
   fun:_ZN13ObjectMonitorC1EP7oopDesc
   fun:_ZN18ObjectSynchronizer7inflateEP6ThreadP7oopDescNS_12InflateCauseE.constprop.0
   fun:_ZN18ObjectSynchronizer4waitE6HandlelP10JavaThread
   fun:JVM_MonitorWait
   obj:*
   obj:*
}

{
   <insert_a_suppression_name_here>
   Memcheck:Leak
   match-leak-kinds: possible
   fun:malloc
   fun:_ZN2os6mallocEm8MEMFLAGSRK15NativeCallStack
   fun:_Z12AllocateHeapm8MEMFLAGSRK15NativeCallStackN17AllocFailStrategy13AllocFailEnumE
   fun:_ZN9ParkEvent8AllocateEP6Thread
   fun:_ZN10JavaThreadC1EPFvPS_S0_Em
   fun:JVM_StartThread
   obj:*
   obj:*
   obj:*
   obj:*
   obj:*
   obj:*
}

{
   <insert_a_suppression_name_here>
   Memcheck:Leak
   match-leak-kinds: possible
   fun:malloc
   fun:_ZN2os6mallocEm8MEMFLAGSRK15NativeCallStack
   fun:_Z12AllocateHeapm8MEMFLAGSRK15NativeCallStackN17AllocFailStrategy13AllocFailEnumE
   fun:_ZN9ParkEvent8AllocateEP6Thread
   fun:_ZN10JavaThreadC1EPFvPS_S0_Em
   fun:_ZN13ServiceThread10initializeEv
   fun:_ZN7Threads9create_vmEP14JavaVMInitArgsPb
   fun:JNI_CreateJavaVM
   fun:JavaMain
   fun:ThreadJavaMain
   fun:start_thread
   fun:clone
}

{
   <insert_a_suppression_name_here>
   Memcheck:Leak
   match-leak-kinds: possible
   fun:malloc
   fun:_ZN2os6mallocEm8MEMFLAGSRK15NativeCallStack
   fun:_Z12AllocateHeapm8MEMFLAGSRK15NativeCallStackN17AllocFailStrategy13AllocFailEnumE
   fun:_ZN9ParkEvent8AllocateEP6Thread
   fun:_ZN10JavaThreadC1EPFvPS_S0_Em
   fun:_ZN18NotificationThread10initializeEv
   fun:_ZN10Management10initializeEP10JavaThread
   fun:_ZN7Threads9create_vmEP14JavaVMInitArgsPb
   fun:JNI_CreateJavaVM
   fun:JavaMain
   fun:ThreadJavaMain
   fun:start_thread
}

{
   <insert_a_suppression_name_here>
   Memcheck:Leak
   match-leak-kinds: possible
   fun:malloc
   fun:_ZN2os6mallocEm8MEMFLAGSRK15NativeCallStack
   fun:_Z12AllocateHeapm8MEMFLAGSRK15NativeCallStackN17AllocFailStrategy13AllocFailEnumE
   fun:_ZN9ParkEvent8AllocateEP6Thread
   fun:_ZN10JavaThreadC1EPFvPS_S0_Em
   fun:_ZN22MonitorDeflationThread10initializeEv
   fun:_ZN7Threads9create_vmEP14JavaVMInitArgsPb
   fun:JNI_CreateJavaVM
   fun:JavaMain
   fun:ThreadJavaMain
   fun:start_thread
   fun:clone
}

{
   <insert_a_suppression_name_here>
   Memcheck:Leak
   match-leak-kinds: possible
   fun:malloc
   fun:_ZN2os6mallocEm8MEMFLAGSRK15NativeCallStack
   fun:_Z12AllocateHeapm8MEMFLAGSRK15NativeCallStackN17AllocFailStrategy13AllocFailEnumE
   fun:_ZN9ParkEvent8AllocateEP6Thread
   fun:_ZN10JavaThreadC1EPFvPS_S0_Em
   fun:_ZN2os29initialize_jdk_signal_supportEP10JavaThread
   fun:_ZN7Threads9create_vmEP14JavaVMInitArgsPb
   fun:JNI_CreateJavaVM
   fun:JavaMain
   fun:ThreadJavaMain
   fun:start_thread
   fun:clone
}

{
   <insert_a_suppression_name_here>
   Memcheck:Leak
   match-leak-kinds: possible
   fun:malloc
   fun:_ZN2os6mallocEm8MEMFLAGSRK15NativeCallStack
   fun:_Z12AllocateHeapm8MEMFLAGSRK15NativeCallStackN17AllocFailStrategy13AllocFailEnumE
   fun:_ZN9ParkEvent8AllocateEP6Thread
   fun:_ZN10JavaThreadC1Ev
   fun:_ZN7Threads9create_vmEP14JavaVMInitArgsPb
   fun:JNI_CreateJavaVM
   fun:JavaMain
   fun:ThreadJavaMain
   fun:start_thread
   fun:clone
}

{
   <insert_a_suppression_name_here>
   Memcheck:Leak
   match-leak-kinds: possible
   fun:malloc
   fun:_ZN2os6mallocEm8MEMFLAGSRK15NativeCallStack
   fun:_Z12AllocateHeapm8MEMFLAGSRK15NativeCallStackN17AllocFailStrategy13AllocFailEnumE
   fun:_ZN9ParkEvent8AllocateEP6Thread
   fun:_ZN6ThreadC1Ev
   fun:_ZN10JavaThreadC1EPFvPS_S0_Em
   fun:JVM_StartThread
   obj:*
   obj:*
   obj:*
   obj:*
   obj:*
}

{
   <insert_a_suppression_name_here>
   Memcheck:Leak
   match-leak-kinds: possible
   fun:malloc
   fun:_ZN2os6mallocEm8MEMFLAGSRK15NativeCallStack
   fun:_Z12AllocateHeapm8MEMFLAGSRK15NativeCallStackN17AllocFailStrategy13AllocFailEnumE
   fun:_ZN9ParkEvent8AllocateEP6Thread
   fun:_ZN6ThreadC1Ev
   fun:_ZN10JavaThreadC1EPFvPS_S0_Em
   fun:_ZN13ServiceThread10initializeEv
   fun:_ZN7Threads9create_vmEP14JavaVMInitArgsPb
   fun:JNI_CreateJavaVM
   fun:JavaMain
   fun:ThreadJavaMain
   fun:start_thread
}

{
   <insert_a_suppression_name_here>
   Memcheck:Leak
   match-leak-kinds: possible
   fun:malloc
   fun:_ZN2os6mallocEm8MEMFLAGSRK15NativeCallStack
   fun:_Z12AllocateHeapm8MEMFLAGSRK15NativeCallStackN17AllocFailStrategy13AllocFailEnumE
   fun:_ZN9ParkEvent8AllocateEP6Thread
   fun:_ZN6ThreadC1Ev
   fun:_ZN10JavaThreadC1EPFvPS_S0_Em
   fun:_ZN18NotificationThread10initializeEv
   fun:_ZN10Management10initializeEP10JavaThread
   fun:_ZN7Threads9create_vmEP14JavaVMInitArgsPb
   fun:JNI_CreateJavaVM
   fun:JavaMain
   fun:ThreadJavaMain
}

{
   <insert_a_suppression_name_here>
   Memcheck:Leak
   match-leak-kinds: possible
   fun:malloc
   fun:_ZN2os6mallocEm8MEMFLAGSRK15NativeCallStack
   fun:_Z12AllocateHeapm8MEMFLAGSRK15NativeCallStackN17AllocFailStrategy13AllocFailEnumE
   fun:_ZN9ParkEvent8AllocateEP6Thread
   fun:_ZN6ThreadC1Ev
   fun:_ZN10JavaThreadC1EPFvPS_S0_Em
   fun:_ZN22MonitorDeflationThread10initializeEv
   fun:_ZN7Threads9create_vmEP14JavaVMInitArgsPb
   fun:JNI_CreateJavaVM
   fun:JavaMain
   fun:ThreadJavaMain
   fun:start_thread
}

{
   <insert_a_suppression_name_here>
   Memcheck:Leak
   match-leak-kinds: possible
   fun:malloc
   fun:_ZN2os6mallocEm8MEMFLAGSRK15NativeCallStack
   fun:_Z12AllocateHeapm8MEMFLAGSRK15NativeCallStackN17AllocFailStrategy13AllocFailEnumE
   fun:_ZN9ParkEvent8AllocateEP6Thread
   fun:_ZN6ThreadC1Ev
   fun:_ZN10JavaThreadC1EPFvPS_S0_Em
   fun:_ZN2os29initialize_jdk_signal_supportEP10JavaThread
   fun:_ZN7Threads9create_vmEP14JavaVMInitArgsPb
   fun:JNI_CreateJavaVM
   fun:JavaMain
   fun:ThreadJavaMain
   fun:start_thread
}

{
   <insert_a_suppression_name_here>
   Memcheck:Leak
   match-leak-kinds: possible
   fun:malloc
   fun:_ZN2os6mallocEm8MEMFLAGSRK15NativeCallStack
   fun:_Z12AllocateHeapm8MEMFLAGSRK15NativeCallStackN17AllocFailStrategy13AllocFailEnumE
   fun:_ZN9ParkEvent8AllocateEP6Thread
   fun:_ZN6ThreadC1Ev
   fun:_ZN10JavaThreadC1Ev
   fun:_ZN7Threads9create_vmEP14JavaVMInitArgsPb
   fun:JNI_CreateJavaVM
   fun:JavaMain
   fun:ThreadJavaMain
   fun:start_thread
   fun:clone
}

{
   <insert_a_suppression_name_here>
   Memcheck:Leak
   match-leak-kinds: possible
   fun:malloc
   fun:_ZN2os6mallocEm8MEMFLAGSRK15NativeCallStack
   fun:_Z12AllocateHeapm8MEMFLAGSRK15NativeCallStackN17AllocFailStrategy13AllocFailEnumE
   fun:_ZN9ParkEvent8AllocateEP6Thread
   fun:_ZN6ThreadC1Ev
   fun:_ZN11NamedThreadC1Ev
   fun:_ZN13WorkerThreads13create_workerEj
   fun:_ZN13WorkerThreads18initialize_workersEv
   fun:_ZN15G1CollectedHeap10initializeEv
   fun:_Z13universe_initv
   fun:_Z12init_globalsv
   fun:_ZN7Threads9create_vmEP14JavaVMInitArgsPb
}

{
   <insert_a_suppression_name_here>
   Memcheck:Leak
   match-leak-kinds: possible
   fun:malloc
   fun:_ZN2os6mallocEm8MEMFLAGSRK15NativeCallStack
   fun:_Z12AllocateHeapm8MEMFLAGSRK15NativeCallStackN17AllocFailStrategy13AllocFailEnumE
   fun:_ZN9ParkEvent8AllocateEP6Thread
   fun:_ZN6ThreadC1Ev
   fun:_ZN11NamedThreadC1Ev
   fun:_ZN13WorkerThreads13create_workerEj
   fun:_ZN13WorkerThreads18initialize_workersEv
   fun:_ZN16G1ConcurrentMarkC1EP15G1CollectedHeapP21G1RegionToSpaceMapper
   fun:_ZN15G1CollectedHeap10initializeEv
   fun:_Z13universe_initv
   fun:_Z12init_globalsv
}

{
   <insert_a_suppression_name_here>
   Memcheck:Leak
   match-leak-kinds: possible
   fun:malloc
   fun:_ZN2os6mallocEm8MEMFLAGSRK15NativeCallStack
   fun:_Z12AllocateHeapm8MEMFLAGSRK15NativeCallStackN17AllocFailStrategy13AllocFailEnumE
   fun:_ZN9ParkEvent8AllocateEP6Thread
   fun:_ZN6ThreadC1Ev
   fun:_ZN11NamedThreadC1Ev
   fun:_ZN13WorkerThreads13create_workerEj
   fun:_ZN13WorkerThreads18set_active_workersEj
   fun:_ZN16G1YoungCollector7collectEv
   fun:_ZN15G1CollectedHeap39do_collection_pause_at_safepoint_helperEv
   fun:_ZN15G1CollectedHeap32do_collection_pause_at_safepointEv
   fun:_ZN25VM_G1CollectForAllocation4doitEv
}

{
   <insert_a_suppression_name_here>
   Memcheck:Leak
   match-leak-kinds: possible
   fun:malloc
   fun:_ZN2os6mallocEm8MEMFLAGSRK15NativeCallStack
   fun:_Z12AllocateHeapm8MEMFLAGSRK15NativeCallStackN17AllocFailStrategy13AllocFailEnumE
   fun:_ZN9ParkEvent8AllocateEP6Thread
   fun:_ZN6ThreadC1Ev
   fun:_ZN11NamedThreadC1Ev
   fun:_ZN18ConcurrentGCThreadC1Ev
   fun:_ZN15G1ServiceThreadC1Ev
   fun:_ZN15G1CollectedHeap10initializeEv
   fun:_Z13universe_initv
   fun:_Z12init_globalsv
   fun:_ZN7Threads9create_vmEP14JavaVMInitArgsPb
}

{
   <insert_a_suppression_name_here>
   Memcheck:Leak
   match-leak-kinds: possible
   fun:malloc
   fun:_ZN2os6mallocEm8MEMFLAGSRK15NativeCallStack
   fun:_Z12AllocateHeapm8MEMFLAGSRK15NativeCallStackN17AllocFailStrategy13AllocFailEnumE
   fun:_ZN9ParkEvent8AllocateEP6Thread
   fun:_ZN6ThreadC1Ev
   fun:_ZN11NamedThreadC1Ev
   fun:_ZN18ConcurrentGCThreadC1Ev
   fun:_ZN22G1ConcurrentMarkThreadC1EP16G1ConcurrentMark
   fun:_ZN16G1ConcurrentMarkC1EP15G1CollectedHeapP21G1RegionToSpaceMapper
   fun:_ZN15G1CollectedHeap10initializeEv
   fun:_Z13universe_initv
   fun:_Z12init_globalsv
}

{
   <insert_a_suppression_name_here>
   Memcheck:Leak
   match-leak-kinds: possible
   fun:malloc
   fun:_ZN2os6mallocEm8MEMFLAGSRK15NativeCallStack
   fun:_Z12AllocateHeapm8MEMFLAGSRK15NativeCallStackN17AllocFailStrategy13AllocFailEnumE
   fun:_ZN9ParkEvent8AllocateEP6Thread
   fun:_ZN6ThreadC1Ev
   fun:_ZN11NamedThreadC1Ev
   fun:_ZN18ConcurrentGCThreadC1Ev
   fun:_ZN24G1ConcurrentRefineThreadC1EP18G1ConcurrentRefinej
   fun:_ZN24G1ConcurrentRefineThread6createEP18G1ConcurrentRefinej
   fun:_ZN31G1ConcurrentRefineThreadControl10initializeEP18G1ConcurrentRefinej
   fun:_ZN18G1ConcurrentRefine6createEP8G1PolicyPi
   fun:_ZN15G1CollectedHeap10initializeEv
}

{
   <insert_a_suppression_name_here>
   Memcheck:Leak
   match-leak-kinds: possible
   fun:malloc
   fun:_ZN2os6mallocEm8MEMFLAGSRK15NativeCallStack
   fun:_Z12AllocateHeapm8MEMFLAGSRK15NativeCallStackN17AllocFailStrategy13AllocFailEnumE
   fun:_ZN9ParkEvent8AllocateEP6Thread
   fun:_ZN6ThreadC1Ev
   fun:_ZN11NamedThreadC1Ev
   fun:_ZN8VMThread6createEv
   fun:_ZN7Threads9create_vmEP14JavaVMInitArgsPb
   fun:JNI_CreateJavaVM
   fun:JavaMain
   fun:ThreadJavaMain
   fun:start_thread
}

{
   <insert_a_suppression_name_here>
   Memcheck:Leak
   match-leak-kinds: reachable
   fun:calloc
   fun:Java_java_util_zip_Inflater_init
   obj:*
   obj:*
   obj:*
   obj:*
   obj:*
   obj:*
   obj:*
   obj:*
   obj:*
   obj:*
}

{
   <insert_a_suppression_name_here>
   Memcheck:Leak
   match-leak-kinds: reachable
   fun:calloc
   fun:_ZN20ImageFileReaderTableC1Ev
   fun:_GLOBAL__sub_I_imageFile.cpp
   fun:call_init.part.0
   fun:call_init
   fun:_dl_init
   fun:_dl_catch_exception
   fun:dl_open_worker
   fun:_dl_catch_exception
   fun:_dl_open
   fun:dlopen_doit
   fun:_dl_catch_exception
   fun:_dl_catch_error
}

{
   <insert_a_suppression_name_here>
   Memcheck:Leak
   match-leak-kinds: reachable
   fun:calloc
   fun:calloc
   fun:_dl_check_map_versions
   fun:dl_open_worker_begin
   fun:_dl_catch_exception
   fun:dl_open_worker
   fun:_dl_catch_exception
   fun:_dl_open
   fun:dlopen_doit
   fun:_dl_catch_exception
   fun:_dl_catch_error
   fun:_dlerror_run
   fun:dlopen_implementation
   fun:dlopen@@GLIBC_2.34
}

{
   <insert_a_suppression_name_here>
   Memcheck:Leak
   match-leak-kinds: reachable
   fun:calloc
   fun:calloc
   fun:_dl_new_object
   fun:_dl_map_object_from_fd
   fun:_dl_map_new_object
   fun:dl_open_worker_begin
   fun:_dl_catch_exception
   fun:dl_open_worker
   fun:_dl_catch_exception
   fun:_dl_open
   fun:dlopen_doit
   fun:_dl_catch_exception
   fun:_dl_catch_error
}

{
   <insert_a_suppression_name_here>
   Memcheck:Leak
   match-leak-kinds: reachable
   fun:calloc
   fun:calloc
   fun:_dl_new_object
   fun:_dl_map_object_from_fd
   fun:_dl_map_new_object
   fun:openaux
   fun:_dl_catch_exception
   fun:_dl_map_object_deps
   fun:dl_open_worker_begin
   fun:_dl_catch_exception
   fun:dl_open_worker
   fun:_dl_catch_exception
   fun:_dl_open
}

{
   <insert_a_suppression_name_here>
   Memcheck:Leak
   match-leak-kinds: reachable
   fun:malloc
   fun:ParseLocale
   fun:GetJavaProperties
   fun:Java_jdk_internal_util_SystemProps_00024Raw_platformProperties
   obj:*
   obj:*
   obj:*
   obj:*
   obj:*
   fun:_ZN9JavaCalls11call_helperEP9JavaValueRK12methodHandleP17JavaCallArgumentsP10JavaThread
   fun:_ZN9JavaCalls11call_staticEP9JavaValueP5KlassP6SymbolS5_P10JavaThread
   fun:_ZN7Threads28initialize_java_lang_classesEP10JavaThreadS1_
}

{
   <insert_a_suppression_name_here>
   Memcheck:Leak
   match-leak-kinds: reachable
   fun:malloc
   fun:_GLOBAL__sub_I_eh_alloc.cc
   fun:call_init.part.0
   fun:call_init
   fun:_dl_init
   fun:_dl_catch_exception
   fun:dl_open_worker
   fun:_dl_catch_exception
   fun:_dl_open
   fun:dlopen_doit
   fun:_dl_catch_exception
   fun:_dl_catch_error
   fun:_dlerror_run
}

{
   <insert_a_suppression_name_here>
   Memcheck:Leak
   match-leak-kinds: reachable
   fun:malloc
   fun:_ZN20NMTPreInitAllocation8do_allocEm
   fun:_ZN2os16strdup_check_oomEPKc8MEMFLAGS
   fun:_ZN2os29init_system_properties_valuesEv
   fun:_ZN7Threads9create_vmEP14JavaVMInitArgsPb
   fun:JNI_CreateJavaVM
   fun:JavaMain
   fun:ThreadJavaMain
   fun:start_thread
   fun:clone
}

{
   <insert_a_suppression_name_here>
   Memcheck:Leak
   match-leak-kinds: reachable
   fun:malloc
   fun:_ZN20NMTPreInitAllocation8do_allocEm
   fun:_ZN2os16strdup_check_oomEPKc8MEMFLAGS
   fun:_ZN9Arguments12add_propertyEPKcNS_17PropertyWriteableENS_16PropertyInternalE
   fun:_ZN9Arguments22parse_each_vm_init_argEPK14JavaVMInitArgsPb13JVMFlagOrigin
   fun:_ZN9Arguments18parse_vm_init_argsEPK14JavaVMInitArgsS2_S2_S2_
   fun:_ZN9Arguments5parseEPK14JavaVMInitArgs
   fun:_ZN7Threads9create_vmEP14JavaVMInitArgsPb
   fun:JNI_CreateJavaVM
   fun:JavaMain
   fun:ThreadJavaMain
   fun:start_thread
}

{
   <insert_a_suppression_name_here>
   Memcheck:Leak
   match-leak-kinds: reachable
   fun:malloc
   fun:_ZN20NMTPreInitAllocation8do_allocEm
   fun:_ZN2os16strdup_check_oomEPKc8MEMFLAGS
   fun:_ZN9Arguments22parse_each_vm_init_argEPK14JavaVMInitArgsPb13JVMFlagOrigin
   fun:_ZN9Arguments18parse_vm_init_argsEPK14JavaVMInitArgsS2_S2_S2_
   fun:_ZN9Arguments5parseEPK14JavaVMInitArgs
   fun:_ZN7Threads9create_vmEP14JavaVMInitArgsPb
   fun:JNI_CreateJavaVM
   fun:JavaMain
   fun:ThreadJavaMain
   fun:start_thread
   fun:clone
}

{
   <insert_a_suppression_name_here>
   Memcheck:Leak
   match-leak-kinds: reachable
   fun:malloc
   fun:_ZN20NMTPreInitAllocation8do_allocEm
   fun:_ZN2os16strdup_check_oomEPKc8MEMFLAGS
   fun:_ZN9Arguments36process_sun_java_launcher_propertiesEP14JavaVMInitArgs
   fun:_ZN7Threads9create_vmEP14JavaVMInitArgsPb
   fun:JNI_CreateJavaVM
   fun:JavaMain
   fun:ThreadJavaMain
   fun:start_thread
   fun:clone
}

{
   <insert_a_suppression_name_here>
   Memcheck:Leak
   match-leak-kinds: reachable
   fun:malloc
   fun:_ZN20NMTPreInitAllocation8do_allocEm
   fun:_ZN2os6mallocEm8MEMFLAGSRK15NativeCallStack
   fun:_Z12AllocateHeapm8MEMFLAGSN17AllocFailStrategy13AllocFailEnumE
   fun:_GLOBAL__sub_I_memoryService.cpp
   fun:call_init.part.0
   fun:call_init
   fun:_dl_init
   fun:_dl_catch_exception
   fun:dl_open_worker
   fun:_dl_catch_exception
   fun:_dl_open
   fun:dlopen_doit
}

{
   <insert_a_suppression_name_here>
   Memcheck:Leak
   match-leak-kinds: reachable
   fun:malloc
   fun:_ZN20NMTPreInitAllocation8do_allocEm
   fun:_ZN2os6mallocEm8MEMFLAGSRK15NativeCallStack
   fun:_Z12AllocateHeapm8MEMFLAGSN17AllocFailStrategy13AllocFailEnumE
   fun:_GLOBAL__sub_I_reflectionUtils.cpp
   fun:call_init.part.0
   fun:call_init
   fun:_dl_init
   fun:_dl_catch_exception
   fun:dl_open_worker
   fun:_dl_catch_exception
   fun:_dl_open
   fun:dlopen_doit
}

{
   <insert_a_suppression_name_here>
   Memcheck:Leak
   match-leak-kinds: reachable
   fun:malloc
   fun:_ZN20NMTPreInitAllocation8do_allocEm
   fun:_ZN2os6mallocEm8MEMFLAGSRK15NativeCallStack
   fun:_Z12AllocateHeapm8MEMFLAGSN17AllocFailStrategy13AllocFailEnumE
   fun:_ZN10PathString9set_valueEPKcN17AllocFailStrategy13AllocFailEnumE
   fun:_ZN2os13set_boot_pathEcc
   fun:_ZN2os29init_system_properties_valuesEv
   fun:_ZN7Threads9create_vmEP14JavaVMInitArgsPb
   fun:JNI_CreateJavaVM
   fun:JavaMain
   fun:ThreadJavaMain
   fun:start_thread
}

{
   <insert_a_suppression_name_here>
   Memcheck:Leak
   match-leak-kinds: reachable
   fun:malloc
   fun:_ZN20NMTPreInitAllocation8do_allocEm
   fun:_ZN2os6mallocEm8MEMFLAGSRK15NativeCallStack
   fun:_Z12AllocateHeapm8MEMFLAGSN17AllocFailStrategy13AllocFailEnumE
   fun:_ZN10PathString9set_valueEPKcN17AllocFailStrategy13AllocFailEnumE
   fun:_ZN2os29init_system_properties_valuesEv
   fun:_ZN7Threads9create_vmEP14JavaVMInitArgsPb
   fun:JNI_CreateJavaVM
   fun:JavaMain
   fun:ThreadJavaMain
   fun:start_thread
   fun:clone
}

{
   <insert_a_suppression_name_here>
   Memcheck:Leak
   match-leak-kinds: reachable
   fun:malloc
   fun:_ZN20NMTPreInitAllocation8do_allocEm
   fun:_ZN2os6mallocEm8MEMFLAGSRK15NativeCallStack
   fun:_Z12AllocateHeapm8MEMFLAGSN17AllocFailStrategy13AllocFailEnumE
   fun:_ZN13GrowableArrayIP10MemoryPoolEC1Ei8MEMFLAGS
   fun:_GLOBAL__sub_I_memoryService.cpp
   fun:call_init.part.0
   fun:call_init
   fun:_dl_init
   fun:_dl_catch_exception
   fun:dl_open_worker
   fun:_dl_catch_exception
   fun:_dl_open
}

{
   <insert_a_suppression_name_here>
   Memcheck:Leak
   match-leak-kinds: reachable
   fun:malloc
   fun:_ZN20NMTPreInitAllocation8do_allocEm
   fun:_ZN2os6mallocEm8MEMFLAGSRK15NativeCallStack
   fun:_Z12AllocateHeapm8MEMFLAGSN17AllocFailStrategy13AllocFailEnumE
   fun:_ZN13GrowableArrayIP8CodeHeapEC1Ei8MEMFLAGS
   fun:_GLOBAL__sub_I_codeCache.cpp
   fun:call_init.part.0
   fun:call_init
   fun:_dl_init
   fun:_dl_catch_exception
   fun:dl_open_worker
   fun:_dl_catch_exception
   fun:_dl_open
}

{
   <insert_a_suppression_name_here>
   Memcheck:Leak
   match-leak-kinds: reachable
   fun:malloc
   fun:_ZN20NMTPreInitAllocation8do_allocEm
   fun:_ZN2os6mallocEm8MEMFLAGSRK15NativeCallStack
   fun:_Z12AllocateHeapm8MEMFLAGSN17AllocFailStrategy13AllocFailEnumE
   fun:_ZN16LogConfiguration10initializeEl
   fun:_ZN7Threads9create_vmEP14JavaVMInitArgsPb
   fun:JNI_CreateJavaVM
   fun:JavaMain
   fun:ThreadJavaMain
   fun:start_thread
   fun:clone
}

{
   <insert_a_suppression_name_here>
   Memcheck:Leak
   match-leak-kinds: reachable
   fun:malloc
   fun:_ZN20NMTPreInitAllocation8do_allocEm
   fun:_ZN2os6mallocEm8MEMFLAGSRK15NativeCallStack
   fun:_Z12AllocateHeapm8MEMFLAGSN17AllocFailStrategy13AllocFailEnumE
   fun:_ZN9Arguments22init_system_propertiesEv
   fun:_ZN7Threads9create_vmEP14JavaVMInitArgsPb
   fun:JNI_CreateJavaVM
   fun:JavaMain
   fun:ThreadJavaMain
   fun:start_thread
   fun:clone
}

{
   <insert_a_suppression_name_here>
   Memcheck:Leak
   match-leak-kinds: reachable
   fun:malloc
   fun:_ZN20NMTPreInitAllocation8do_allocEm
   fun:_ZN2os6mallocEm8MEMFLAGSRK15NativeCallStack
   fun:_Z12AllocateHeapm8MEMFLAGSN17AllocFailStrategy13AllocFailEnumE
   fun:_ZN9Arguments23PropertyList_unique_addEPP14SystemPropertyPKcS4_NS_18PropertyAppendableENS_17PropertyWriteableENS_16PropertyInternalE
   fun:_ZN9Arguments12add_propertyEPKcNS_17PropertyWriteableENS_16PropertyInternalE
   fun:_ZN9Arguments22parse_each_vm_init_argEPK14JavaVMInitArgsPb13JVMFlagOrigin
   fun:_ZN9Arguments18parse_vm_init_argsEPK14JavaVMInitArgsS2_S2_S2_
   fun:_ZN9Arguments5parseEPK14JavaVMInitArgs
   fun:_ZN7Threads9create_vmEP14JavaVMInitArgsPb
   fun:JNI_CreateJavaVM
   fun:JavaMain
}

{
   <insert_a_suppression_name_here>
   Memcheck:Leak
   match-leak-kinds: reachable
   fun:malloc
   fun:_ZN20NMTPreInitAllocation8do_allocEm
   fun:_ZN2os6mallocEm8MEMFLAGSRK15NativeCallStack
   fun:_Z12AllocateHeapm8MEMFLAGSN17AllocFailStrategy13AllocFailEnumE
   fun:_ZN9Arguments39init_version_specific_system_propertiesEv
   fun:_ZN7Threads9create_vmEP14JavaVMInitArgsPb
   fun:JNI_CreateJavaVM
   fun:JavaMain
   fun:ThreadJavaMain
   fun:start_thread
   fun:clone
}

{
   <insert_a_suppression_name_here>
   Memcheck:Leak
   match-leak-kinds: reachable
   fun:malloc
   fun:_ZN20NMTPreInitAllocation8do_allocEm
   fun:_ZN2os6mallocEm8MEMFLAGSRK15NativeCallStack
   fun:_ZN6AnyObjnwEm8MEMFLAGS
   fun:_GLOBAL__sub_I_c1_LinearScan.cpp
   fun:call_init.part.0
   fun:call_init
   fun:_dl_init
   fun:_dl_catch_exception
   fun:dl_open_worker
   fun:_dl_catch_exception
   fun:_dl_open
   fun:dlopen_doit
}

{
   <insert_a_suppression_name_here>
   Memcheck:Leak
   match-leak-kinds: reachable
   fun:malloc
   fun:_ZN20NMTPreInitAllocation8do_allocEm
   fun:_ZN2os6mallocEm8MEMFLAGSRK15NativeCallStack
   fun:_ZN6AnyObjnwEm8MEMFLAGS
   fun:_GLOBAL__sub_I_codeCache.cpp
   fun:call_init.part.0
   fun:call_init
   fun:_dl_init
   fun:_dl_catch_exception
   fun:dl_open_worker
   fun:_dl_catch_exception
   fun:_dl_open
   fun:dlopen_doit
}

{
   <insert_a_suppression_name_here>
   Memcheck:Leak
   match-leak-kinds: reachable
   fun:malloc
   fun:_ZN20NMTPreInitAllocation8do_allocEm
   fun:_ZN2os6mallocEm8MEMFLAGSRK15NativeCallStack
   fun:_ZN6AnyObjnwEm8MEMFLAGS
   fun:_GLOBAL__sub_I_jvmciCodeInstaller.cpp
   fun:call_init.part.0
   fun:call_init
   fun:_dl_init
   fun:_dl_catch_exception
   fun:dl_open_worker
   fun:_dl_catch_exception
   fun:_dl_open
   fun:dlopen_doit
}

{
   <insert_a_suppression_name_here>
   Memcheck:Leak
   match-leak-kinds: reachable
   fun:malloc
   fun:_ZN20NMTPreInitAllocation8do_allocEm
   fun:_ZN2os6mallocEm8MEMFLAGSRK15NativeCallStack
   fun:_ZN6AnyObjnwEm8MEMFLAGS
   fun:_GLOBAL__sub_I_jvmtiThreadState.cpp
   fun:call_init.part.0
   fun:call_init
   fun:_dl_init
   fun:_dl_catch_exception
   fun:dl_open_worker
   fun:_dl_catch_exception
   fun:_dl_open
   fun:dlopen_doit
}

{
   <insert_a_suppression_name_here>
   Memcheck:Leak
   match-leak-kinds: reachable
   fun:malloc
   fun:_ZN20NMTPreInitAllocation8do_allocEm
   fun:_ZN2os6mallocEm8MEMFLAGSRK15NativeCallStack
   fun:_ZN6AnyObjnwEm8MEMFLAGS
   fun:_GLOBAL__sub_I_memoryService.cpp
   fun:call_init.part.0
   fun:call_init
   fun:_dl_init
   fun:_dl_catch_exception
   fun:dl_open_worker
   fun:_dl_catch_exception
   fun:_dl_open
   fun:dlopen_doit
}

{
   <insert_a_suppression_name_here>
   Memcheck:Leak
   match-leak-kinds: reachable
   fun:malloc
   fun:_ZN20NMTPreInitAllocation8do_allocEm
   fun:_ZN2os6mallocEm8MEMFLAGSRK15NativeCallStack
   fun:_ZN6AnyObjnwEm8MEMFLAGS
   fun:_GLOBAL__sub_I_reflectionUtils.cpp
   fun:call_init.part.0
   fun:call_init
   fun:_dl_init
   fun:_dl_catch_exception
   fun:dl_open_worker
   fun:_dl_catch_exception
   fun:_dl_open
   fun:dlopen_doit
}

{
   <insert_a_suppression_name_here>
   Memcheck:Leak
   match-leak-kinds: reachable
   fun:malloc
   fun:_ZN2os6mallocEm8MEMFLAGS
   fun:_ZN11FileMapInfo14init_from_fileEi
   fun:_ZN11FileMapInfo10initializeEv
   fun:_ZN15MetaspaceShared41initialize_runtime_shared_and_meta_spacesEv
   fun:_ZN9Metaspace17global_initializeEv
   fun:_Z13universe_initv
   fun:_Z12init_globalsv
   fun:_ZN7Threads9create_vmEP14JavaVMInitArgsPb
   fun:JNI_CreateJavaVM
   fun:JavaMain
   fun:ThreadJavaMain
}

{
   <insert_a_suppression_name_here>
   Memcheck:Leak
   match-leak-kinds: reachable
   fun:malloc
   fun:_ZN2os6mallocEm8MEMFLAGS
   fun:_ZN11FileMapInfo26validate_shared_path_tableEv
   fun:_ZN15MetaspaceShared11map_archiveEP11FileMapInfoPc13ReservedSpace
   fun:_ZN15MetaspaceShared12map_archivesEP11FileMapInfoS1_b
   fun:_ZN15MetaspaceShared41initialize_runtime_shared_and_meta_spacesEv
   fun:_ZN9Metaspace17global_initializeEv
   fun:_Z13universe_initv
   fun:_Z12init_globalsv
   fun:_ZN7Threads9create_vmEP14JavaVMInitArgsPb
   fun:JNI_CreateJavaVM
   fun:JavaMain
}

{
   <insert_a_suppression_name_here>
   Memcheck:Leak
   match-leak-kinds: reachable
   fun:malloc
   fun:_ZN2os6mallocEm8MEMFLAGS
   fun:_ZN2os6init_2Ev
   fun:_ZN7Threads9create_vmEP14JavaVMInitArgsPb
   fun:JNI_CreateJavaVM
   fun:JavaMain
   fun:ThreadJavaMain
   fun:start_thread
   fun:clone
}

{
   <insert_a_suppression_name_here>
   Memcheck:Leak
   match-leak-kinds: reachable
   fun:malloc
   fun:_ZN2os6mallocEm8MEMFLAGSRK15NativeCallStack
   fun:_Z12AllocateHeapm8MEMFLAGSN17AllocFailStrategy13AllocFailEnumE
   fun:JVM_StartThread
   obj:*
   obj:*
   obj:*
   obj:*
   obj:*
   obj:*
   fun:_ZN9JavaCalls11call_helperEP9JavaValueRK12methodHandleP17JavaCallArgumentsP10JavaThread
   fun:_ZN13InstanceKlass22call_class_initializerEP10JavaThread
}

{
   <insert_a_suppression_name_here>
   Memcheck:Leak
   match-leak-kinds: reachable
   fun:malloc
   fun:_ZN2os6mallocEm8MEMFLAGSRK15NativeCallStack
   fun:_Z12AllocateHeapm8MEMFLAGSN17AllocFailStrategy13AllocFailEnumE
   fun:JVM_StartThread
   obj:*
   obj:*
   obj:*
   obj:*
   obj:*
   obj:*
   fun:_ZN9JavaCalls11call_helperEP9JavaValueRK12methodHandleP17JavaCallArgumentsP10JavaThread
   fun:_ZN9JavaCalls11call_staticEP9JavaValueP5KlassP6SymbolS5_P10JavaThread
}

{
   <insert_a_suppression_name_here>
   Memcheck:Leak
   match-leak-kinds: reachable
   fun:malloc
   fun:_ZN2os6mallocEm8MEMFLAGSRK15NativeCallStack
   fun:_Z12AllocateHeapm8MEMFLAGSN17AllocFailStrategy13AllocFailEnumE
   fun:_Z13universe_initv
   fun:_Z12init_globalsv
   fun:_ZN7Threads9create_vmEP14JavaVMInitArgsPb
   fun:JNI_CreateJavaVM
   fun:JavaMain
   fun:ThreadJavaMain
   fun:start_thread
   fun:clone
}

{
   <insert_a_suppression_name_here>
   Memcheck:Leak
   match-leak-kinds: reachable
   fun:malloc
   fun:_ZN2os6mallocEm8MEMFLAGSRK15NativeCallStack
   fun:_Z12AllocateHeapm8MEMFLAGSN17AllocFailStrategy13AllocFailEnumE
   fun:_Z18register_jfr_dcmdsv
   fun:_ZN11JfrRecorder14on_create_vm_2Ev
   fun:_ZN3Jfr14on_create_vm_2Ev
   fun:_ZN7Threads9create_vmEP14JavaVMInitArgsPb
   fun:JNI_CreateJavaVM
   fun:JavaMain
   fun:ThreadJavaMain
   fun:start_thread
   fun:clone
}

{
   <insert_a_suppression_name_here>
   Memcheck:Leak
   match-leak-kinds: reachable
   fun:malloc
   fun:_ZN2os6mallocEm8MEMFLAGSRK15NativeCallStack
   fun:_Z12AllocateHeapm8MEMFLAGSN17AllocFailStrategy13AllocFailEnumE
   fun:_Z22InlineCacheBuffer_initv
   fun:_Z13init_globals2v
   fun:_ZN7Threads9create_vmEP14JavaVMInitArgsPb
   fun:JNI_CreateJavaVM
   fun:JavaMain
   fun:ThreadJavaMain
   fun:start_thread
   fun:clone
}

{
   <insert_a_suppression_name_here>
   Memcheck:Leak
   match-leak-kinds: reachable
   fun:malloc
   fun:_ZN2os6mallocEm8MEMFLAGSRK15NativeCallStack
   fun:_Z12AllocateHeapm8MEMFLAGSN17AllocFailStrategy13AllocFailEnumE
   fun:_Z25SuspendibleThreadSet_initv
   fun:_ZN7Threads9create_vmEP14JavaVMInitArgsPb
   fun:JNI_CreateJavaVM
   fun:JavaMain
   fun:ThreadJavaMain
   fun:start_thread
   fun:clone
}

{
   <insert_a_suppression_name_here>
   Memcheck:Leak
   match-leak-kinds: reachable
   fun:malloc
   fun:_ZN2os6mallocEm8MEMFLAGSRK15NativeCallStack
   fun:_Z12AllocateHeapm8MEMFLAGSN17AllocFailStrategy13AllocFailEnumE
   fun:_ZN10BarrierSetC1EP19BarrierSetAssemblerP12BarrierSetC1P12BarrierSetC2P17BarrierSetNMethodP20BarrierSetStackChunkRK15FakeRttiSupportIS_NS_4NameEE
   fun:_ZN19CardTableBarrierSetC1EP19BarrierSetAssemblerP12BarrierSetC1P12BarrierSetC2P9CardTableRK15FakeRttiSupportI10BarrierSetNS9_4NameEE
   fun:_ZN12G1BarrierSetC1EP11G1CardTable
   fun:_ZN15G1CollectedHeap10initializeEv
   fun:_Z13universe_initv
   fun:_Z12init_globalsv
   fun:_ZN7Threads9create_vmEP14JavaVMInitArgsPb
   fun:JNI_CreateJavaVM
   fun:JavaMain
}

{
   <insert_a_suppression_name_here>
   Memcheck:Leak
   match-leak-kinds: reachable
   fun:malloc
   fun:_ZN2os6mallocEm8MEMFLAGSRK15NativeCallStack
   fun:_Z12AllocateHeapm8MEMFLAGSN17AllocFailStrategy13AllocFailEnumE
   fun:_ZN10BufferNode9Allocator8allocateEv
   fun:_ZN11PtrQueueSet24exchange_buffer_with_newER8PtrQueue
   fun:_ZN19G1DirtyCardQueueSet7enqueueER16G1DirtyCardQueuePVh
   fun:_ZN15java_lang_Class23restore_archived_mirrorEP5Klass6HandleS2_S2_P10JavaThread
   fun:_ZN5Klass24restore_unshareable_infoEP15ClassLoaderData6HandleP10JavaThread
   fun:_ZN13InstanceKlass24restore_unshareable_infoEP15ClassLoaderData6HandleP12PackageEntryP10JavaThread
   fun:_ZN16SystemDictionary17load_shared_classEP13InstanceKlass6HandleS2_PK15ClassFileStreamP12PackageEntryP10JavaThread
   fun:_ZN16SystemDictionary24load_instance_class_implEP6Symbol6HandleP10JavaThread
   fun:_ZN16SystemDictionary19load_instance_classEP6Symbol6HandleP10JavaThread
}

{
   <insert_a_suppression_name_here>
   Memcheck:Leak
   match-leak-kinds: reachable
   fun:malloc
   fun:_ZN2os6mallocEm8MEMFLAGSRK15NativeCallStack
   fun:_Z12AllocateHeapm8MEMFLAGSN17AllocFailStrategy13AllocFailEnumE
   fun:_ZN10BufferNode9Allocator8allocateEv
   fun:_ZN11PtrQueueSet24exchange_buffer_with_newER8PtrQueue
   fun:_ZN19G1DirtyCardQueueSet7enqueueER16G1DirtyCardQueuePVh
   fun:_ZN17ConstantPoolCache25clear_archived_referencesEv
   fun:_ZN12ConstantPool24restore_unshareable_infoEP10JavaThread
   fun:_ZN9vmClasses11resolve_allEP10JavaThread
   fun:_ZN16SystemDictionary10initializeEP10JavaThread
   fun:_ZN8Universe7genesisEP10JavaThread
   fun:_Z14universe2_initv
}

{
   <insert_a_suppression_name_here>
   Memcheck:Leak
   match-leak-kinds: reachable
   fun:malloc
   fun:_ZN2os6mallocEm8MEMFLAGSRK15NativeCallStack
   fun:_Z12AllocateHeapm8MEMFLAGSN17AllocFailStrategy13AllocFailEnumE
   fun:_ZN10BufferNode9Allocator8allocateEv
   fun:_ZN11PtrQueueSet24exchange_buffer_with_newER8PtrQueue
   fun:_ZN19G1DirtyCardQueueSet7enqueueER16G1DirtyCardQueuePVh
   fun:_ZN5Klass27clear_archived_mirror_indexEv
   fun:_ZN15java_lang_Class23restore_archived_mirrorEP5Klass6HandleS2_S2_P10JavaThread
   fun:_ZN5Klass24restore_unshareable_infoEP15ClassLoaderData6HandleP10JavaThread
   fun:_ZN13InstanceKlass24restore_unshareable_infoEP15ClassLoaderData6HandleP12PackageEntryP10JavaThread
   fun:_ZN16SystemDictionary17load_shared_classEP13InstanceKlass6HandleS2_PK15ClassFileStreamP12PackageEntryP10JavaThread
   fun:_ZN16SystemDictionary24load_instance_class_implEP6Symbol6HandleP10JavaThread
}

{
   <insert_a_suppression_name_here>
   Memcheck:Leak
   match-leak-kinds: reachable
   fun:malloc
   fun:_ZN2os6mallocEm8MEMFLAGSRK15NativeCallStack
   fun:_Z12AllocateHeapm8MEMFLAGSN17AllocFailStrategy13AllocFailEnumE
   fun:_ZN10BufferNode9Allocator8allocateEv
   fun:_ZN11PtrQueueSet24exchange_buffer_with_newER8PtrQueue
   fun:_ZN27G1RedirtyCardsLocalQueueSet7enqueueEPv
   fun:_ZN20G1ParScanThreadState23trim_queue_to_thresholdEj
   fun:_ZN24G1ScanHRForRegionClosure15scan_heap_rootsEP10HeapRegion
   fun:_ZN8G1RemSet15scan_heap_rootsEP20G1ParScanThreadStatejN14G1GCPhaseTimes11GCParPhasesES3_b
   fun:_ZN21G1EvacuateRegionsTask10scan_rootsEP20G1ParScanThreadStatej
   fun:_ZN25G1EvacuateRegionsBaseTask4workEj
   fun:_ZN12WorkerThread3runEv
}

{
   <insert_a_suppression_name_here>
   Memcheck:Leak
   match-leak-kinds: reachable
   fun:malloc
   fun:_ZN2os6mallocEm8MEMFLAGSRK15NativeCallStack
   fun:_Z12AllocateHeapm8MEMFLAGSN17AllocFailStrategy13AllocFailEnumE
   fun:_ZN10Dictionary9add_klassEP10JavaThreadP6SymbolP13InstanceKlass
   fun:_ZN16SystemDictionary19load_instance_classEP6Symbol6HandleP10JavaThread
   fun:_ZN16SystemDictionary30resolve_instance_class_or_nullEP6Symbol6HandleS2_P10JavaThread
   fun:_ZN16SystemDictionary15resolve_or_failEP6Symbol6HandleS2_bP10JavaThread
   fun:_ZN12ConstantPool13klass_at_implERK18constantPoolHandleiP10JavaThread
   fun:_ZN12ConstantPool12klass_ref_atEiN9Bytecodes4CodeEP10JavaThread
   fun:_ZN12LinkResolver20resolve_field_accessER15fieldDescriptorRK18constantPoolHandleiRK12methodHandleN9Bytecodes4CodeEP10JavaThread
   fun:_ZN18InterpreterRuntime15resolve_get_putEP10JavaThreadN9Bytecodes4CodeE
   fun:_ZN18InterpreterRuntime18resolve_from_cacheEP10JavaThreadN9Bytecodes4CodeE
}

{
   <insert_a_suppression_name_here>
   Memcheck:Leak
   match-leak-kinds: reachable
   fun:malloc
   fun:_ZN2os6mallocEm8MEMFLAGSRK15NativeCallStack
   fun:_Z12AllocateHeapm8MEMFLAGSN17AllocFailStrategy13AllocFailEnumE
   fun:_ZN10Dictionary9add_klassEP10JavaThreadP6SymbolP13InstanceKlass
   fun:_ZN16SystemDictionary19load_instance_classEP6Symbol6HandleP10JavaThread
   fun:_ZN16SystemDictionary30resolve_instance_class_or_nullEP6Symbol6HandleS2_P10JavaThread
   fun:_ZN16SystemDictionary15resolve_or_failEP6Symbol6HandleS2_bP10JavaThread
   fun:_ZN12ConstantPool13klass_at_implERK18constantPoolHandleiP10JavaThread
   fun:_ZN12ConstantPool12klass_ref_atEiN9Bytecodes4CodeEP10JavaThread
   fun:_ZN8LinkInfoC1ERK18constantPoolHandleiN9Bytecodes4CodeEP10JavaThread
   fun:_ZN12LinkResolver14resolve_invokeER8CallInfo6HandleRK18constantPoolHandleiN9Bytecodes4CodeEP10JavaThread
   fun:_ZN18InterpreterRuntime14resolve_invokeEP10JavaThreadN9Bytecodes4CodeE
}

{
   <insert_a_suppression_name_here>
   Memcheck:Leak
   match-leak-kinds: reachable
   fun:malloc
   fun:_ZN2os6mallocEm8MEMFLAGSRK15NativeCallStack
   fun:_Z12AllocateHeapm8MEMFLAGSN17AllocFailStrategy13AllocFailEnumE
   fun:_ZN10Dictionary9add_klassEP10JavaThreadP6SymbolP13InstanceKlass
   fun:_ZN16SystemDictionary19load_instance_classEP6Symbol6HandleP10JavaThread
   fun:_ZN16SystemDictionary30resolve_instance_class_or_nullEP6Symbol6HandleS2_P10JavaThread
   fun:_ZN16SystemDictionary15resolve_or_failEP6Symbol6HandleS2_bP10JavaThread
   fun:_ZN12ConstantPool13klass_at_implERK18constantPoolHandleiP10JavaThread
   fun:_ZN12ConstantPool24resolve_constant_at_implERK18constantPoolHandleiiPbP10JavaThread
   fun:_ZN13BootstrapInfo11resolve_bsmEP10JavaThread
   fun:_ZN16SystemDictionary23invoke_bootstrap_methodER13BootstrapInfoP10JavaThread
   fun:_ZN12LinkResolver20resolve_dynamic_callER8CallInfoR13BootstrapInfoP10JavaThread
}

{
   <insert_a_suppression_name_here>
   Memcheck:Leak
   match-leak-kinds: reachable
   fun:malloc
   fun:_ZN2os6mallocEm8MEMFLAGSRK15NativeCallStack
   fun:_Z12AllocateHeapm8MEMFLAGSN17AllocFailStrategy13AllocFailEnumE
   fun:_ZN10Dictionary9add_klassEP10JavaThreadP6SymbolP13InstanceKlass
   fun:_ZN16SystemDictionary19load_instance_classEP6Symbol6HandleP10JavaThread
   fun:_ZN16SystemDictionary30resolve_instance_class_or_nullEP6Symbol6HandleS2_P10JavaThread
   fun:_ZN16SystemDictionary15resolve_or_failEP6Symbol6HandleS2_bP10JavaThread
   fun:_ZN12ConstantPool13klass_at_implERK18constantPoolHandleiP10JavaThread
   fun:_ZN18InterpreterRuntime13quicken_io_ccEP10JavaThread
   obj:*
   obj:*
   fun:_ZN9JavaCalls11call_helperEP9JavaValueRK12methodHandleP17JavaCallArgumentsP10JavaThread
}

{
   <insert_a_suppression_name_here>
   Memcheck:Leak
   match-leak-kinds: reachable
   fun:malloc
   fun:_ZN2os6mallocEm8MEMFLAGSRK15NativeCallStack
   fun:_Z12AllocateHeapm8MEMFLAGSN17AllocFailStrategy13AllocFailEnumE
   fun:_ZN10Dictionary9add_klassEP10JavaThreadP6SymbolP13InstanceKlass
   fun:_ZN16SystemDictionary19load_instance_classEP6Symbol6HandleP10JavaThread
   fun:_ZN16SystemDictionary30resolve_instance_class_or_nullEP6Symbol6HandleS2_P10JavaThread
   fun:_ZN16SystemDictionary15resolve_or_failEP6Symbol6HandleS2_bP10JavaThread
   fun:_ZN12ConstantPool13klass_at_implERK18constantPoolHandleiP10JavaThread
   fun:_ZN18InterpreterRuntime13quicken_io_ccEP10JavaThread
   obj:*
   obj:*
   obj:*
}

{
   <insert_a_suppression_name_here>
   Memcheck:Leak
   match-leak-kinds: reachable
   fun:malloc
   fun:_ZN2os6mallocEm8MEMFLAGSRK15NativeCallStack
   fun:_Z12AllocateHeapm8MEMFLAGSN17AllocFailStrategy13AllocFailEnumE
   fun:_ZN10Dictionary9add_klassEP10JavaThreadP6SymbolP13InstanceKlass
   fun:_ZN16SystemDictionary19load_instance_classEP6Symbol6HandleP10JavaThread
   fun:_ZN16SystemDictionary30resolve_instance_class_or_nullEP6Symbol6HandleS2_P10JavaThread
   fun:_ZN16SystemDictionary15resolve_or_failEP6Symbol6HandleS2_bP10JavaThread
   fun:_ZN12ConstantPool13klass_at_implERK18constantPoolHandleiP10JavaThread
   fun:_ZN18InterpreterRuntime4_newEP10JavaThreadP12ConstantPooli
   obj:*
   obj:*
   fun:_ZN9JavaCalls11call_helperEP9JavaValueRK12methodHandleP17JavaCallArgumentsP10JavaThread
}

{
   <insert_a_suppression_name_here>
   Memcheck:Leak
   match-leak-kinds: reachable
   fun:malloc
   fun:_ZN2os6mallocEm8MEMFLAGSRK15NativeCallStack
   fun:_Z12AllocateHeapm8MEMFLAGSN17AllocFailStrategy13AllocFailEnumE
   fun:_ZN10Dictionary9add_klassEP10JavaThreadP6SymbolP13InstanceKlass
   fun:_ZN16SystemDictionary19load_instance_classEP6Symbol6HandleP10JavaThread
   fun:_ZN16SystemDictionary30resolve_instance_class_or_nullEP6Symbol6HandleS2_P10JavaThread
   fun:_ZN16SystemDictionary15resolve_or_failEP6Symbol6HandleS2_bP10JavaThread
   fun:_ZN12ConstantPool13klass_at_implERK18constantPoolHandleiP10JavaThread
   fun:_ZN18InterpreterRuntime4_newEP10JavaThreadP12ConstantPooli
   obj:*
   obj:*
   obj:*
}

{
   <insert_a_suppression_name_here>
   Memcheck:Leak
   match-leak-kinds: reachable
   fun:malloc
   fun:_ZN2os6mallocEm8MEMFLAGSRK15NativeCallStack
   fun:_Z12AllocateHeapm8MEMFLAGSN17AllocFailStrategy13AllocFailEnumE
   fun:_ZN10Dictionary9add_klassEP10JavaThreadP6SymbolP13InstanceKlass
   fun:_ZN16SystemDictionary19load_instance_classEP6Symbol6HandleP10JavaThread
   fun:_ZN16SystemDictionary30resolve_instance_class_or_nullEP6Symbol6HandleS2_P10JavaThread
   fun:_ZN16SystemDictionary15resolve_or_failEP6Symbol6HandleS2_bP10JavaThread
   fun:_ZN12ConstantPool13klass_at_implERK18constantPoolHandleiP10JavaThread
   fun:_ZN6Method32resolved_checked_exceptions_implEPS_P10JavaThread
   fun:_ZN10Reflection10new_methodERK12methodHandlebP10JavaThread
   fun:_ZL33get_class_declared_methods_helperP7JNIEnv_P7_jclasshbP5KlassP10JavaThread.constprop.0
   fun:JVM_GetClassDeclaredMethods
}

{
   <insert_a_suppression_name_here>
   Memcheck:Leak
   match-leak-kinds: reachable
   fun:malloc
   fun:_ZN2os6mallocEm8MEMFLAGSRK15NativeCallStack
   fun:_Z12AllocateHeapm8MEMFLAGSN17AllocFailStrategy13AllocFailEnumE
   fun:_ZN10Dictionary9add_klassEP10JavaThreadP6SymbolP13InstanceKlass
   fun:_ZN16SystemDictionary19load_instance_classEP6Symbol6HandleP10JavaThread
   fun:_ZN16SystemDictionary30resolve_instance_class_or_nullEP6Symbol6HandleS2_P10JavaThread
   fun:_ZN16SystemDictionary15resolve_or_failEP6Symbol6HandleS2_bP10JavaThread
   fun:_ZN16VerificationType31resolve_and_check_assignabilityEP13InstanceKlassP6SymbolS3_bbbP10JavaThread
   fun:_ZNK16VerificationType28is_reference_assignable_fromERKS_P13ClassVerifierbP10JavaThread
   fun:_ZN13ClassVerifier26verify_invoke_instructionsEP17RawBytecodeStreamjP13StackMapFramebPb16VerificationTypeRK18constantPoolHandleP13StackMapTableP10JavaThread
   fun:_ZN13ClassVerifier13verify_methodERK12methodHandleP10JavaThread
   fun:_ZN13ClassVerifier12verify_classEP10JavaThread
}

{
   <insert_a_suppression_name_here>
   Memcheck:Leak
   match-leak-kinds: reachable
   fun:malloc
   fun:_ZN2os6mallocEm8MEMFLAGSRK15NativeCallStack
   fun:_Z12AllocateHeapm8MEMFLAGSN17AllocFailStrategy13AllocFailEnumE
   fun:_ZN10Dictionary9add_klassEP10JavaThreadP6SymbolP13InstanceKlass
   fun:_ZN16SystemDictionary19load_instance_classEP6Symbol6HandleP10JavaThread
   fun:_ZN16SystemDictionary30resolve_instance_class_or_nullEP6Symbol6HandleS2_P10JavaThread
   fun:_ZN16SystemDictionary15resolve_or_failEP6Symbol6HandleS2_bP10JavaThread
   fun:_ZN16VerificationType31resolve_and_check_assignabilityEP13InstanceKlassP6SymbolS3_bbbP10JavaThread
   fun:_ZNK16VerificationType28is_reference_assignable_fromERKS_P13ClassVerifierbP10JavaThread
   fun:_ZN13ClassVerifier30verify_exception_handler_tableEjPcRiS1_P10JavaThread
   fun:_ZN13ClassVerifier13verify_methodERK12methodHandleP10JavaThread
   fun:_ZN13ClassVerifier12verify_classEP10JavaThread
}

{
   <insert_a_suppression_name_here>
   Memcheck:Leak
   match-leak-kinds: reachable
   fun:malloc
   fun:_ZN2os6mallocEm8MEMFLAGSRK15NativeCallStack
   fun:_Z12AllocateHeapm8MEMFLAGSN17AllocFailStrategy13AllocFailEnumE
   fun:_ZN10Dictionary9add_klassEP10JavaThreadP6SymbolP13InstanceKlass
   fun:_ZN16SystemDictionary19load_instance_classEP6Symbol6HandleP10JavaThread
   fun:_ZN16SystemDictionary30resolve_instance_class_or_nullEP6Symbol6HandleS2_P10JavaThread
   fun:_ZN16SystemDictionary15resolve_or_failEP6Symbol6HandleS2_bP10JavaThread
   fun:_ZN16VerificationType31resolve_and_check_assignabilityEP13InstanceKlassP6SymbolS3_bbbP10JavaThread
   fun:_ZNK16VerificationType28is_reference_assignable_fromERKS_P13ClassVerifierbP10JavaThread
   fun:_ZN13StackMapFrame9pop_stackE16VerificationTypeP10JavaThread
   fun:_ZN13ClassVerifier13verify_methodERK12methodHandleP10JavaThread
   fun:_ZN13ClassVerifier12verify_classEP10JavaThread
}

{
   <insert_a_suppression_name_here>
   Memcheck:Leak
   match-leak-kinds: reachable
   fun:malloc
   fun:_ZN2os6mallocEm8MEMFLAGSRK15NativeCallStack
   fun:_Z12AllocateHeapm8MEMFLAGSN17AllocFailStrategy13AllocFailEnumE
   fun:_ZN10Dictionary9add_klassEP10JavaThreadP6SymbolP13InstanceKlass
   fun:_ZN16SystemDictionary19load_instance_classEP6Symbol6HandleP10JavaThread
   fun:_ZN16SystemDictionary30resolve_instance_class_or_nullEP6Symbol6HandleS2_P10JavaThread
   fun:_ZN16SystemDictionary21resolve_super_or_failEP6SymbolS1_6HandleS2_bP10JavaThread
   fun:_ZN15ClassFileParser16parse_interfacesEPK15ClassFileStreamiP12ConstantPoolPbP10JavaThread.part.0
   fun:_ZN15ClassFileParser12parse_streamEPK15ClassFileStreamP10JavaThread.part.0
   fun:_ZN15ClassFileParserC1EP15ClassFileStreamP6SymbolP15ClassLoaderDataPK13ClassLoadInfoNS_9PublicityEP10JavaThread
   fun:_ZN12KlassFactory18create_from_streamEP15ClassFileStreamP6SymbolP15ClassLoaderDataRK13ClassLoadInfoP10JavaThread
   fun:_ZN16SystemDictionary25resolve_class_from_streamEP15ClassFileStreamP6Symbol6HandleRK13ClassLoadInfoP10JavaThread
}

{
   <insert_a_suppression_name_here>
   Memcheck:Leak
   match-leak-kinds: reachable
   fun:malloc
   fun:_ZN2os6mallocEm8MEMFLAGSRK15NativeCallStack
   fun:_Z12AllocateHeapm8MEMFLAGSN17AllocFailStrategy13AllocFailEnumE
   fun:_ZN10Dictionary9add_klassEP10JavaThreadP6SymbolP13InstanceKlass
   fun:_ZN16SystemDictionary19load_instance_classEP6Symbol6HandleP10JavaThread
   fun:_ZN16SystemDictionary30resolve_instance_class_or_nullEP6Symbol6HandleS2_P10JavaThread
   fun:_ZN16SystemDictionary21resolve_super_or_failEP6SymbolS1_6HandleS2_bP10JavaThread
   fun:_ZN15ClassFileParser26post_process_parsed_streamEPK15ClassFileStreamP12ConstantPoolP10JavaThread
   fun:_ZN12KlassFactory18create_from_streamEP15ClassFileStreamP6SymbolP15ClassLoaderDataRK13ClassLoadInfoP10JavaThread
   fun:_ZN16SystemDictionary25resolve_class_from_streamEP15ClassFileStreamP6Symbol6HandleRK13ClassLoadInfoP10JavaThread
   fun:_ZL23jvm_define_class_commonPKcP8_jobjectPKaiS2_S0_P10JavaThread
   fun:JVM_DefineClassWithSource
}

{
   <insert_a_suppression_name_here>
   Memcheck:Leak
   match-leak-kinds: reachable
   fun:malloc
   fun:_ZN2os6mallocEm8MEMFLAGSRK15NativeCallStack
   fun:_Z12AllocateHeapm8MEMFLAGSN17AllocFailStrategy13AllocFailEnumE
   fun:_ZN10Dictionary9add_klassEP10JavaThreadP6SymbolP13InstanceKlass
   fun:_ZN16SystemDictionary19load_instance_classEP6Symbol6HandleP10JavaThread
   fun:_ZN16SystemDictionary30resolve_instance_class_or_nullEP6Symbol6HandleS2_P10JavaThread
   fun:_ZN16SystemDictionary27resolve_array_class_or_nullEP6Symbol6HandleS2_P10JavaThread
   fun:_ZN16SystemDictionary15resolve_or_failEP6Symbol6HandleS2_bP10JavaThread
   fun:_ZN15SignatureStream14as_java_mirrorE6HandleS0_NS_11FailureModeEP10JavaThread
   fun:_ZL19get_parameter_typesRK12methodHandleiPP7oopDescP10JavaThread
   fun:_ZN10Reflection10new_methodERK12methodHandlebP10JavaThread
   fun:_ZL33get_class_declared_methods_helperP7JNIEnv_P7_jclasshbP5KlassP10JavaThread.constprop.0
}

{
   <insert_a_suppression_name_here>
   Memcheck:Leak
   match-leak-kinds: reachable
   fun:malloc
   fun:_ZN2os6mallocEm8MEMFLAGSRK15NativeCallStack
   fun:_Z12AllocateHeapm8MEMFLAGSN17AllocFailStrategy13AllocFailEnumE
   fun:_ZN10Dictionary9add_klassEP10JavaThreadP6SymbolP13InstanceKlass
   fun:_ZN16SystemDictionary21define_instance_classEP13InstanceKlass6HandleP10JavaThread
   fun:_ZN16SystemDictionary21find_or_define_helperEP6Symbol6HandleP13InstanceKlassP10JavaThread
   fun:_ZN16SystemDictionary24load_instance_class_implEP6Symbol6HandleP10JavaThread
   fun:_ZN16SystemDictionary19load_instance_classEP6Symbol6HandleP10JavaThread
   fun:_ZN16SystemDictionary30resolve_instance_class_or_nullEP6Symbol6HandleS2_P10JavaThread
   fun:JVM_FindClassFromBootLoader
   fun:JavaMain
   fun:ThreadJavaMain
}

{
   <insert_a_suppression_name_here>
   Memcheck:Leak
   match-leak-kinds: reachable
   fun:malloc
   fun:_ZN2os6mallocEm8MEMFLAGSRK15NativeCallStack
   fun:_Z12AllocateHeapm8MEMFLAGSN17AllocFailStrategy13AllocFailEnumE
   fun:_ZN10Dictionary9add_klassEP10JavaThreadP6SymbolP13InstanceKlass
   fun:_ZN16SystemDictionary21define_instance_classEP13InstanceKlass6HandleP10JavaThread
   fun:_ZN16SystemDictionary21find_or_define_helperEP6Symbol6HandleP13InstanceKlassP10JavaThread
   fun:_ZN16SystemDictionary24load_instance_class_implEP6Symbol6HandleP10JavaThread
   fun:_ZN16SystemDictionary19load_instance_classEP6Symbol6HandleP10JavaThread
   fun:_ZN16SystemDictionary30resolve_instance_class_or_nullEP6Symbol6HandleS2_P10JavaThread
   fun:JVM_FindClassFromBootLoader
   fun:Java_java_lang_ClassLoader_findBootstrapClass
   obj:*
}

{
   <insert_a_suppression_name_here>
   Memcheck:Leak
   match-leak-kinds: reachable
   fun:malloc
   fun:_ZN2os6mallocEm8MEMFLAGSRK15NativeCallStack
   fun:_Z12AllocateHeapm8MEMFLAGSN17AllocFailStrategy13AllocFailEnumE
   fun:_ZN10Dictionary9add_klassEP10JavaThreadP6SymbolP13InstanceKlass
   fun:_ZN16SystemDictionary21define_instance_classEP13InstanceKlass6HandleP10JavaThread
   fun:_ZN16SystemDictionary21find_or_define_helperEP6Symbol6HandleP13InstanceKlassP10JavaThread
   fun:_ZN16SystemDictionary24load_instance_class_implEP6Symbol6HandleP10JavaThread
   fun:_ZN16SystemDictionary19load_instance_classEP6Symbol6HandleP10JavaThread
   fun:_ZN16SystemDictionary30resolve_instance_class_or_nullEP6Symbol6HandleS2_P10JavaThread
   fun:_ZN10HeapShared39resolve_or_init_classes_for_subgraph_ofEP5KlassbP10JavaThread
   fun:_ZN10HeapShared29resolve_classes_for_subgraphsEP10JavaThreadP25ArchivableStaticFieldInfo
   fun:_ZN10HeapShared15resolve_classesEP10JavaThread
}

{
   <insert_a_suppression_name_here>
   Memcheck:Leak
   match-leak-kinds: reachable
   fun:malloc
   fun:_ZN2os6mallocEm8MEMFLAGSRK15NativeCallStack
   fun:_Z12AllocateHeapm8MEMFLAGSN17AllocFailStrategy13AllocFailEnumE
   fun:_ZN10Dictionary9add_klassEP10JavaThreadP6SymbolP13InstanceKlass
   fun:_ZN16SystemDictionary21define_instance_classEP13InstanceKlass6HandleP10JavaThread
   fun:_ZN16SystemDictionary21find_or_define_helperEP6Symbol6HandleP13InstanceKlassP10JavaThread
   fun:_ZN16SystemDictionary24load_instance_class_implEP6Symbol6HandleP10JavaThread
   fun:_ZN16SystemDictionary19load_instance_classEP6Symbol6HandleP10JavaThread
   fun:_ZN16SystemDictionary30resolve_instance_class_or_nullEP6Symbol6HandleS2_P10JavaThread
   fun:_ZN10HeapShared39resolve_or_init_classes_for_subgraph_ofEP5KlassbP10JavaThread
   fun:_ZN10HeapShared29resolve_classes_for_subgraphsEP10JavaThreadP25ArchivableStaticFieldInfo
   fun:_ZN8Universe7genesisEP10JavaThread
}

{
   <insert_a_suppression_name_here>
   Memcheck:Leak
   match-leak-kinds: reachable
   fun:malloc
   fun:_ZN2os6mallocEm8MEMFLAGSRK15NativeCallStack
   fun:_Z12AllocateHeapm8MEMFLAGSN17AllocFailStrategy13AllocFailEnumE
   fun:_ZN10Dictionary9add_klassEP10JavaThreadP6SymbolP13InstanceKlass
   fun:_ZN16SystemDictionary21define_instance_classEP13InstanceKlass6HandleP10JavaThread
   fun:_ZN16SystemDictionary21find_or_define_helperEP6Symbol6HandleP13InstanceKlassP10JavaThread
   fun:_ZN16SystemDictionary24load_instance_class_implEP6Symbol6HandleP10JavaThread
   fun:_ZN16SystemDictionary19load_instance_classEP6Symbol6HandleP10JavaThread
   fun:_ZN16SystemDictionary30resolve_instance_class_or_nullEP6Symbol6HandleS2_P10JavaThread
   fun:_ZN15SignatureStream14as_java_mirrorE6HandleS0_NS_11FailureModeEP10JavaThread
   fun:_ZN16SystemDictionary23find_method_handle_typeEP6SymbolP5KlassP10JavaThread
   fun:_ZN13BootstrapInfo11resolve_bsmEP10JavaThread
}

{
   <insert_a_suppression_name_here>
   Memcheck:Leak
   match-leak-kinds: reachable
   fun:malloc
   fun:_ZN2os6mallocEm8MEMFLAGSRK15NativeCallStack
   fun:_Z12AllocateHeapm8MEMFLAGSN17AllocFailStrategy13AllocFailEnumE
   fun:_ZN10Dictionary9add_klassEP10JavaThreadP6SymbolP13InstanceKlass
   fun:_ZN16SystemDictionary21define_instance_classEP13InstanceKlass6HandleP10JavaThread
   fun:_ZN16SystemDictionary21find_or_define_helperEP6Symbol6HandleP13InstanceKlassP10JavaThread
   fun:_ZN16SystemDictionary24load_instance_class_implEP6Symbol6HandleP10JavaThread
   fun:_ZN16SystemDictionary19load_instance_classEP6Symbol6HandleP10JavaThread
   fun:_ZN16SystemDictionary30resolve_instance_class_or_nullEP6Symbol6HandleS2_P10JavaThread
   fun:_ZN16SystemDictionary15resolve_or_failEP6Symbol6HandleS2_bP10JavaThread
   fun:_Z18universe_post_initv
   fun:_Z13init_globals2v
}

{
   <insert_a_suppression_name_here>
   Memcheck:Leak
   match-leak-kinds: reachable
   fun:malloc
   fun:_ZN2os6mallocEm8MEMFLAGSRK15NativeCallStack
   fun:_Z12AllocateHeapm8MEMFLAGSN17AllocFailStrategy13AllocFailEnumE
   fun:_ZN10Dictionary9add_klassEP10JavaThreadP6SymbolP13InstanceKlass
   fun:_ZN16SystemDictionary21define_instance_classEP13InstanceKlass6HandleP10JavaThread
   fun:_ZN16SystemDictionary21find_or_define_helperEP6Symbol6HandleP13InstanceKlassP10JavaThread
   fun:_ZN16SystemDictionary24load_instance_class_implEP6Symbol6HandleP10JavaThread
   fun:_ZN16SystemDictionary19load_instance_classEP6Symbol6HandleP10JavaThread
   fun:_ZN16SystemDictionary30resolve_instance_class_or_nullEP6Symbol6HandleS2_P10JavaThread
   fun:_ZN16SystemDictionary15resolve_or_failEP6Symbol6HandleS2_bP10JavaThread
   fun:_Z28find_class_from_class_loaderP7JNIEnv_P6Symbolh6HandleS3_hP10JavaThread
   fun:JVM_FindClassFromCaller
}

{
   <insert_a_suppression_name_here>
   Memcheck:Leak
   match-leak-kinds: reachable
   fun:malloc
   fun:_ZN2os6mallocEm8MEMFLAGSRK15NativeCallStack
   fun:_Z12AllocateHeapm8MEMFLAGSN17AllocFailStrategy13AllocFailEnumE
   fun:_ZN10Dictionary9add_klassEP10JavaThreadP6SymbolP13InstanceKlass
   fun:_ZN16SystemDictionary21define_instance_classEP13InstanceKlass6HandleP10JavaThread
   fun:_ZN16SystemDictionary21find_or_define_helperEP6Symbol6HandleP13InstanceKlassP10JavaThread
   fun:_ZN16SystemDictionary24load_instance_class_implEP6Symbol6HandleP10JavaThread
   fun:_ZN16SystemDictionary19load_instance_classEP6Symbol6HandleP10JavaThread
   fun:_ZN16SystemDictionary30resolve_instance_class_or_nullEP6Symbol6HandleS2_P10JavaThread
   fun:_ZN16SystemDictionary15resolve_or_failEP6Symbol6HandleS2_bP10JavaThread
   fun:_Z28find_class_from_class_loaderP7JNIEnv_P6Symbolh6HandleS3_hP10JavaThread
   fun:_ZL9lookupOneP7JNIEnv_PKcP10JavaThread
}

{
   <insert_a_suppression_name_here>
   Memcheck:Leak
   match-leak-kinds: reachable
   fun:malloc
   fun:_ZN2os6mallocEm8MEMFLAGSRK15NativeCallStack
   fun:_Z12AllocateHeapm8MEMFLAGSN17AllocFailStrategy13AllocFailEnumE
   fun:_ZN10Dictionary9add_klassEP10JavaThreadP6SymbolP13InstanceKlass
   fun:_ZN16SystemDictionary21define_instance_classEP13InstanceKlass6HandleP10JavaThread
   fun:_ZN16SystemDictionary21find_or_define_helperEP6Symbol6HandleP13InstanceKlassP10JavaThread
   fun:_ZN16SystemDictionary24load_instance_class_implEP6Symbol6HandleP10JavaThread
   fun:_ZN16SystemDictionary19load_instance_classEP6Symbol6HandleP10JavaThread
   fun:_ZN16SystemDictionary30resolve_instance_class_or_nullEP6Symbol6HandleS2_P10JavaThread
   fun:_ZN16SystemDictionary15resolve_or_failEP6Symbol6HandleS2_bP10JavaThread
   fun:_Z28find_class_from_class_loaderP7JNIEnv_P6Symbolh6HandleS3_hP10JavaThread
   fun:jni_FindClass
}

{
   <insert_a_suppression_name_here>
   Memcheck:Leak
   match-leak-kinds: reachable
   fun:malloc
   fun:_ZN2os6mallocEm8MEMFLAGSRK15NativeCallStack
   fun:_Z12AllocateHeapm8MEMFLAGSN17AllocFailStrategy13AllocFailEnumE
   fun:_ZN10Dictionary9add_klassEP10JavaThreadP6SymbolP13InstanceKlass
   fun:_ZN16SystemDictionary21define_instance_classEP13InstanceKlass6HandleP10JavaThread
   fun:_ZN16SystemDictionary21find_or_define_helperEP6Symbol6HandleP13InstanceKlassP10JavaThread
   fun:_ZN16SystemDictionary24load_instance_class_implEP6Symbol6HandleP10JavaThread
   fun:_ZN16SystemDictionary19load_instance_classEP6Symbol6HandleP10JavaThread
   fun:_ZN16SystemDictionary30resolve_instance_class_or_nullEP6Symbol6HandleS2_P10JavaThread
   fun:_ZN16SystemDictionary15resolve_or_failEP6Symbol6HandleS2_bP10JavaThread
   fun:_ZL16initialize_classP6SymbolP10JavaThread
   fun:_ZN7Threads28initialize_java_lang_classesEP10JavaThreadS1_
}

{
   <insert_a_suppression_name_here>
   Memcheck:Leak
   match-leak-kinds: reachable
   fun:malloc
   fun:_ZN2os6mallocEm8MEMFLAGSRK15NativeCallStack
   fun:_Z12AllocateHeapm8MEMFLAGSN17AllocFailStrategy13AllocFailEnumE
   fun:_ZN10Dictionary9add_klassEP10JavaThreadP6SymbolP13InstanceKlass
   fun:_ZN16SystemDictionary21define_instance_classEP13InstanceKlass6HandleP10JavaThread
   fun:_ZN16SystemDictionary21find_or_define_helperEP6Symbol6HandleP13InstanceKlassP10JavaThread
   fun:_ZN16SystemDictionary24load_instance_class_implEP6Symbol6HandleP10JavaThread
   fun:_ZN16SystemDictionary19load_instance_classEP6Symbol6HandleP10JavaThread
   fun:_ZN16SystemDictionary30resolve_instance_class_or_nullEP6Symbol6HandleS2_P10JavaThread
   fun:_ZN16SystemDictionary15resolve_or_failEP6Symbol6HandleS2_bP10JavaThread
   fun:_ZN12ConstantPool13klass_at_implERK18constantPoolHandleiP10JavaThread
   fun:_ZN12ConstantPool12klass_ref_atEiN9Bytecodes4CodeEP10JavaThread
}

{
   <insert_a_suppression_name_here>
   Memcheck:Leak
   match-leak-kinds: reachable
   fun:malloc
   fun:_ZN2os6mallocEm8MEMFLAGSRK15NativeCallStack
   fun:_Z12AllocateHeapm8MEMFLAGSN17AllocFailStrategy13AllocFailEnumE
   fun:_ZN10Dictionary9add_klassEP10JavaThreadP6SymbolP13InstanceKlass
   fun:_ZN16SystemDictionary21define_instance_classEP13InstanceKlass6HandleP10JavaThread
   fun:_ZN16SystemDictionary21find_or_define_helperEP6Symbol6HandleP13InstanceKlassP10JavaThread
   fun:_ZN16SystemDictionary24load_instance_class_implEP6Symbol6HandleP10JavaThread
   fun:_ZN16SystemDictionary19load_instance_classEP6Symbol6HandleP10JavaThread
   fun:_ZN16SystemDictionary30resolve_instance_class_or_nullEP6Symbol6HandleS2_P10JavaThread
   fun:_ZN16SystemDictionary15resolve_or_failEP6Symbol6HandleS2_bP10JavaThread
   fun:_ZN12ConstantPool13klass_at_implERK18constantPoolHandleiP10JavaThread
   fun:_ZN12ConstantPool24resolve_constant_at_implERK18constantPoolHandleiiPbP10JavaThread
}

{
   <insert_a_suppression_name_here>
   Memcheck:Leak
   match-leak-kinds: reachable
   fun:malloc
   fun:_ZN2os6mallocEm8MEMFLAGSRK15NativeCallStack
   fun:_Z12AllocateHeapm8MEMFLAGSN17AllocFailStrategy13AllocFailEnumE
   fun:_ZN10Dictionary9add_klassEP10JavaThreadP6SymbolP13InstanceKlass
   fun:_ZN16SystemDictionary21define_instance_classEP13InstanceKlass6HandleP10JavaThread
   fun:_ZN16SystemDictionary21find_or_define_helperEP6Symbol6HandleP13InstanceKlassP10JavaThread
   fun:_ZN16SystemDictionary24load_instance_class_implEP6Symbol6HandleP10JavaThread
   fun:_ZN16SystemDictionary19load_instance_classEP6Symbol6HandleP10JavaThread
   fun:_ZN16SystemDictionary30resolve_instance_class_or_nullEP6Symbol6HandleS2_P10JavaThread
   fun:_ZN16SystemDictionary15resolve_or_failEP6Symbol6HandleS2_bP10JavaThread
   fun:_ZN12ConstantPool13klass_at_implERK18constantPoolHandleiP10JavaThread
   fun:_ZN18InterpreterRuntime13quicken_io_ccEP10JavaThread
}

{
   <insert_a_suppression_name_here>
   Memcheck:Leak
   match-leak-kinds: reachable
   fun:malloc
   fun:_ZN2os6mallocEm8MEMFLAGSRK15NativeCallStack
   fun:_Z12AllocateHeapm8MEMFLAGSN17AllocFailStrategy13AllocFailEnumE
   fun:_ZN10Dictionary9add_klassEP10JavaThreadP6SymbolP13InstanceKlass
   fun:_ZN16SystemDictionary21define_instance_classEP13InstanceKlass6HandleP10JavaThread
   fun:_ZN16SystemDictionary21find_or_define_helperEP6Symbol6HandleP13InstanceKlassP10JavaThread
   fun:_ZN16SystemDictionary24load_instance_class_implEP6Symbol6HandleP10JavaThread
   fun:_ZN16SystemDictionary19load_instance_classEP6Symbol6HandleP10JavaThread
   fun:_ZN16SystemDictionary30resolve_instance_class_or_nullEP6Symbol6HandleS2_P10JavaThread
   fun:_ZN16SystemDictionary15resolve_or_failEP6Symbol6HandleS2_bP10JavaThread
   fun:_ZN12ConstantPool13klass_at_implERK18constantPoolHandleiP10JavaThread
   fun:_ZN18InterpreterRuntime3ldcEP10JavaThreadb
}

{
   <insert_a_suppression_name_here>
   Memcheck:Leak
   match-leak-kinds: reachable
   fun:malloc
   fun:_ZN2os6mallocEm8MEMFLAGSRK15NativeCallStack
   fun:_Z12AllocateHeapm8MEMFLAGSN17AllocFailStrategy13AllocFailEnumE
   fun:_ZN10Dictionary9add_klassEP10JavaThreadP6SymbolP13InstanceKlass
   fun:_ZN16SystemDictionary21define_instance_classEP13InstanceKlass6HandleP10JavaThread
   fun:_ZN16SystemDictionary21find_or_define_helperEP6Symbol6HandleP13InstanceKlassP10JavaThread
   fun:_ZN16SystemDictionary24load_instance_class_implEP6Symbol6HandleP10JavaThread
   fun:_ZN16SystemDictionary19load_instance_classEP6Symbol6HandleP10JavaThread
   fun:_ZN16SystemDictionary30resolve_instance_class_or_nullEP6Symbol6HandleS2_P10JavaThread
   fun:_ZN16SystemDictionary15resolve_or_failEP6Symbol6HandleS2_bP10JavaThread
   fun:_ZN12ConstantPool13klass_at_implERK18constantPoolHandleiP10JavaThread
   fun:_ZN18InterpreterRuntime4_newEP10JavaThreadP12ConstantPooli
}

{
   <insert_a_suppression_name_here>
   Memcheck:Leak
   match-leak-kinds: reachable
   fun:malloc
   fun:_ZN2os6mallocEm8MEMFLAGSRK15NativeCallStack
   fun:_Z12AllocateHeapm8MEMFLAGSN17AllocFailStrategy13AllocFailEnumE
   fun:_ZN10Dictionary9add_klassEP10JavaThreadP6SymbolP13InstanceKlass
   fun:_ZN16SystemDictionary21define_instance_classEP13InstanceKlass6HandleP10JavaThread
   fun:_ZN16SystemDictionary21find_or_define_helperEP6Symbol6HandleP13InstanceKlassP10JavaThread
   fun:_ZN16SystemDictionary24load_instance_class_implEP6Symbol6HandleP10JavaThread
   fun:_ZN16SystemDictionary19load_instance_classEP6Symbol6HandleP10JavaThread
   fun:_ZN16SystemDictionary30resolve_instance_class_or_nullEP6Symbol6HandleS2_P10JavaThread
   fun:_ZN16SystemDictionary15resolve_or_failEP6Symbol6HandleS2_bP10JavaThread
   fun:_ZN12ConstantPool13klass_at_implERK18constantPoolHandleiP10JavaThread
   fun:_ZN18InterpreterRuntime9anewarrayEP10JavaThreadP12ConstantPoolii
}

{
   <insert_a_suppression_name_here>
   Memcheck:Leak
   match-leak-kinds: reachable
   fun:malloc
   fun:_ZN2os6mallocEm8MEMFLAGSRK15NativeCallStack
   fun:_Z12AllocateHeapm8MEMFLAGSN17AllocFailStrategy13AllocFailEnumE
   fun:_ZN10Dictionary9add_klassEP10JavaThreadP6SymbolP13InstanceKlass
   fun:_ZN16SystemDictionary21define_instance_classEP13InstanceKlass6HandleP10JavaThread
   fun:_ZN16SystemDictionary21find_or_define_helperEP6Symbol6HandleP13InstanceKlassP10JavaThread
   fun:_ZN16SystemDictionary24load_instance_class_implEP6Symbol6HandleP10JavaThread
   fun:_ZN16SystemDictionary19load_instance_classEP6Symbol6HandleP10JavaThread
   fun:_ZN16SystemDictionary30resolve_instance_class_or_nullEP6Symbol6HandleS2_P10JavaThread
   fun:_ZN16SystemDictionary21resolve_super_or_failEP6SymbolS1_6HandleS2_bP10JavaThread
   fun:_ZN15ClassFileParser16parse_interfacesEPK15ClassFileStreamiP12ConstantPoolPbP10JavaThread.part.0
   fun:_ZN15ClassFileParser12parse_streamEPK15ClassFileStreamP10JavaThread.part.0
}

{
   <insert_a_suppression_name_here>
   Memcheck:Leak
   match-leak-kinds: reachable
   fun:malloc
   fun:_ZN2os6mallocEm8MEMFLAGSRK15NativeCallStack
   fun:_Z12AllocateHeapm8MEMFLAGSN17AllocFailStrategy13AllocFailEnumE
   fun:_ZN10Dictionary9add_klassEP10JavaThreadP6SymbolP13InstanceKlass
   fun:_ZN16SystemDictionary21define_instance_classEP13InstanceKlass6HandleP10JavaThread
   fun:_ZN16SystemDictionary21find_or_define_helperEP6Symbol6HandleP13InstanceKlassP10JavaThread
   fun:_ZN16SystemDictionary24load_instance_class_implEP6Symbol6HandleP10JavaThread
   fun:_ZN16SystemDictionary19load_instance_classEP6Symbol6HandleP10JavaThread
   fun:_ZN16SystemDictionary30resolve_instance_class_or_nullEP6Symbol6HandleS2_P10JavaThread
   fun:_ZN16SystemDictionary21resolve_super_or_failEP6SymbolS1_6HandleS2_bP10JavaThread
   fun:_ZN15ClassFileParser26post_process_parsed_streamEPK15ClassFileStreamP12ConstantPoolP10JavaThread
   fun:_ZN12KlassFactory18create_from_streamEP15ClassFileStreamP6SymbolP15ClassLoaderDataRK13ClassLoadInfoP10JavaThread
}

{
   <insert_a_suppression_name_here>
   Memcheck:Leak
   match-leak-kinds: reachable
   fun:malloc
   fun:_ZN2os6mallocEm8MEMFLAGSRK15NativeCallStack
   fun:_Z12AllocateHeapm8MEMFLAGSN17AllocFailStrategy13AllocFailEnumE
   fun:_ZN10Dictionary9add_klassEP10JavaThreadP6SymbolP13InstanceKlass
   fun:_ZN16SystemDictionary21define_instance_classEP13InstanceKlass6HandleP10JavaThread
   fun:_ZN16SystemDictionary21find_or_define_helperEP6Symbol6HandleP13InstanceKlassP10JavaThread
   fun:_ZN16SystemDictionary24load_instance_class_implEP6Symbol6HandleP10JavaThread
   fun:_ZN16SystemDictionary19load_instance_classEP6Symbol6HandleP10JavaThread
   fun:_ZN16SystemDictionary30resolve_instance_class_or_nullEP6Symbol6HandleS2_P10JavaThread
   fun:_ZN16SystemDictionary21resolve_super_or_failEP6SymbolS1_6HandleS2_bP10JavaThread
   fun:_ZN16SystemDictionary29check_shared_class_super_typeEP13InstanceKlassS1_6HandleS2_bP10JavaThread
   fun:_ZN16SystemDictionary30check_shared_class_super_typesEP13InstanceKlass6HandleS2_P10JavaThread
}

{
   <insert_a_suppression_name_here>
   Memcheck:Leak
   match-leak-kinds: reachable
   fun:malloc
   fun:_ZN2os6mallocEm8MEMFLAGSRK15NativeCallStack
   fun:_Z12AllocateHeapm8MEMFLAGSN17AllocFailStrategy13AllocFailEnumE
   fun:_ZN10Dictionary9add_klassEP10JavaThreadP6SymbolP13InstanceKlass
   fun:_ZN16SystemDictionary21define_instance_classEP13InstanceKlass6HandleP10JavaThread
   fun:_ZN16SystemDictionary21find_or_define_helperEP6Symbol6HandleP13InstanceKlassP10JavaThread
   fun:_ZN16SystemDictionary24load_instance_class_implEP6Symbol6HandleP10JavaThread
   fun:_ZN16SystemDictionary19load_instance_classEP6Symbol6HandleP10JavaThread
   fun:_ZN16SystemDictionary30resolve_instance_class_or_nullEP6Symbol6HandleS2_P10JavaThread
   fun:_ZN16SystemDictionary21resolve_super_or_failEP6SymbolS1_6HandleS2_bP10JavaThread
   fun:_ZN16SystemDictionary30check_shared_class_super_typesEP13InstanceKlass6HandleS2_P10JavaThread
   fun:_ZN16SystemDictionary17load_shared_classEP13InstanceKlass6HandleS2_PK15ClassFileStreamP12PackageEntryP10JavaThread
}

{
   <insert_a_suppression_name_here>
   Memcheck:Leak
   match-leak-kinds: reachable
   fun:malloc
   fun:_ZN2os6mallocEm8MEMFLAGSRK15NativeCallStack
   fun:_Z12AllocateHeapm8MEMFLAGSN17AllocFailStrategy13AllocFailEnumE
   fun:_ZN10Dictionary9add_klassEP10JavaThreadP6SymbolP13InstanceKlass
   fun:_ZN16SystemDictionary21define_instance_classEP13InstanceKlass6HandleP10JavaThread
   fun:_ZN16SystemDictionary21find_or_define_helperEP6Symbol6HandleP13InstanceKlassP10JavaThread
   fun:_ZN16SystemDictionary24load_instance_class_implEP6Symbol6HandleP10JavaThread
   fun:_ZN16SystemDictionary19load_instance_classEP6Symbol6HandleP10JavaThread
   fun:_ZN16SystemDictionary30resolve_instance_class_or_nullEP6Symbol6HandleS2_P10JavaThread
   fun:_ZN16SystemDictionary27resolve_array_class_or_nullEP6Symbol6HandleS2_P10JavaThread
   fun:_ZN10HeapShared39resolve_or_init_classes_for_subgraph_ofEP5KlassbP10JavaThread
   fun:_ZN10HeapShared29resolve_classes_for_subgraphsEP10JavaThreadP25ArchivableStaticFieldInfo
}

{
   <insert_a_suppression_name_here>
   Memcheck:Leak
   match-leak-kinds: reachable
   fun:malloc
   fun:_ZN2os6mallocEm8MEMFLAGSRK15NativeCallStack
   fun:_Z12AllocateHeapm8MEMFLAGSN17AllocFailStrategy13AllocFailEnumE
   fun:_ZN10Dictionary9add_klassEP10JavaThreadP6SymbolP13InstanceKlass
   fun:_ZN16SystemDictionary21define_instance_classEP13InstanceKlass6HandleP10JavaThread
   fun:_ZN16SystemDictionary21find_or_define_helperEP6Symbol6HandleP13InstanceKlassP10JavaThread
   fun:_ZN16SystemDictionary24load_instance_class_implEP6Symbol6HandleP10JavaThread
   fun:_ZN16SystemDictionary19load_instance_classEP6Symbol6HandleP10JavaThread
   fun:_ZN16SystemDictionary30resolve_instance_class_or_nullEP6Symbol6HandleS2_P10JavaThread
   fun:_ZN16SystemDictionary27resolve_array_class_or_nullEP6Symbol6HandleS2_P10JavaThread
   fun:_ZN16SystemDictionary15resolve_or_failEP6Symbol6HandleS2_bP10JavaThread
   fun:_ZN12ConstantPool13klass_at_implERK18constantPoolHandleiP10JavaThread
}

{
   <insert_a_suppression_name_here>
   Memcheck:Leak
   match-leak-kinds: reachable
   fun:malloc
   fun:_ZN2os6mallocEm8MEMFLAGSRK15NativeCallStack
   fun:_Z12AllocateHeapm8MEMFLAGSN17AllocFailStrategy13AllocFailEnumE
   fun:_ZN10Dictionary9add_klassEP10JavaThreadP6SymbolP13InstanceKlass
   fun:_ZN16SystemDictionary21define_instance_classEP13InstanceKlass6HandleP10JavaThread
   fun:_ZN16SystemDictionary21find_or_define_helperEP6Symbol6HandleP13InstanceKlassP10JavaThread
   fun:_ZN16SystemDictionary25resolve_class_from_streamEP15ClassFileStreamP6Symbol6HandleRK13ClassLoadInfoP10JavaThread
   fun:_ZL23jvm_define_class_commonPKcP8_jobjectPKaiS2_S0_P10JavaThread
   fun:JVM_DefineClassWithSource
   fun:Java_java_lang_ClassLoader_defineClass1
   obj:*
   obj:*
}

{
   <insert_a_suppression_name_here>
   Memcheck:Leak
   match-leak-kinds: reachable
   fun:malloc
   fun:_ZN2os6mallocEm8MEMFLAGSRK15NativeCallStack
   fun:_Z12AllocateHeapm8MEMFLAGSN17AllocFailStrategy13AllocFailEnumE
   fun:_ZN10Dictionary9add_klassEP10JavaThreadP6SymbolP13InstanceKlass
   fun:_ZN9vmClasses20resolve_shared_classEP13InstanceKlassP15ClassLoaderData6HandleP10JavaThread
   fun:_ZN9vmClasses11resolve_allEP10JavaThread
   fun:_ZN16SystemDictionary10initializeEP10JavaThread
   fun:_ZN8Universe7genesisEP10JavaThread
   fun:_Z14universe2_initv
   fun:_Z13init_globals2v
   fun:_ZN7Threads9create_vmEP14JavaVMInitArgsPb
   fun:JNI_CreateJavaVM
}

{
   <insert_a_suppression_name_here>
   Memcheck:Leak
   match-leak-kinds: reachable
   fun:malloc
   fun:_ZN2os6mallocEm8MEMFLAGSRK15NativeCallStack
   fun:_Z12AllocateHeapm8MEMFLAGSN17AllocFailStrategy13AllocFailEnumE
   fun:_ZN10Dictionary9add_klassEP10JavaThreadP6SymbolP13InstanceKlass
   fun:_ZN9vmClasses20resolve_shared_classEP13InstanceKlassP15ClassLoaderData6HandleP10JavaThread
   fun:_ZN9vmClasses20resolve_shared_classEP13InstanceKlassP15ClassLoaderData6HandleP10JavaThread
   fun:_ZN9vmClasses20resolve_shared_classEP13InstanceKlassP15ClassLoaderData6HandleP10JavaThread
   fun:_ZN9vmClasses20resolve_shared_classEP13InstanceKlassP15ClassLoaderData6HandleP10JavaThread
   fun:_ZN9vmClasses20resolve_shared_classEP13InstanceKlassP15ClassLoaderData6HandleP10JavaThread
   fun:_ZN9vmClasses7resolveE9vmClassIDP10JavaThread
   fun:_ZN9vmClasses11resolve_allEP10JavaThread
   fun:_ZN16SystemDictionary10initializeEP10JavaThread
}

{
   <insert_a_suppression_name_here>
   Memcheck:Leak
   match-leak-kinds: reachable
   fun:malloc
   fun:_ZN2os6mallocEm8MEMFLAGSRK15NativeCallStack
   fun:_Z12AllocateHeapm8MEMFLAGSN17AllocFailStrategy13AllocFailEnumE
   fun:_ZN10Dictionary9add_klassEP10JavaThreadP6SymbolP13InstanceKlass
   fun:_ZN9vmClasses20resolve_shared_classEP13InstanceKlassP15ClassLoaderData6HandleP10JavaThread
   fun:_ZN9vmClasses20resolve_shared_classEP13InstanceKlassP15ClassLoaderData6HandleP10JavaThread
   fun:_ZN9vmClasses20resolve_shared_classEP13InstanceKlassP15ClassLoaderData6HandleP10JavaThread
   fun:_ZN9vmClasses20resolve_shared_classEP13InstanceKlassP15ClassLoaderData6HandleP10JavaThread
   fun:_ZN9vmClasses7resolveE9vmClassIDP10JavaThread
   fun:_ZN9vmClasses11resolve_allEP10JavaThread
   fun:_ZN16SystemDictionary10initializeEP10JavaThread
   fun:_ZN8Universe7genesisEP10JavaThread
}

{
   <insert_a_suppression_name_here>
   Memcheck:Leak
   match-leak-kinds: reachable
   fun:malloc
   fun:_ZN2os6mallocEm8MEMFLAGSRK15NativeCallStack
   fun:_Z12AllocateHeapm8MEMFLAGSN17AllocFailStrategy13AllocFailEnumE
   fun:_ZN10Dictionary9add_klassEP10JavaThreadP6SymbolP13InstanceKlass
   fun:_ZN9vmClasses20resolve_shared_classEP13InstanceKlassP15ClassLoaderData6HandleP10JavaThread
   fun:_ZN9vmClasses20resolve_shared_classEP13InstanceKlassP15ClassLoaderData6HandleP10JavaThread
   fun:_ZN9vmClasses20resolve_shared_classEP13InstanceKlassP15ClassLoaderData6HandleP10JavaThread
   fun:_ZN9vmClasses7resolveE9vmClassIDP10JavaThread
   fun:_ZN9vmClasses11resolve_allEP10JavaThread
   fun:_ZN16SystemDictionary10initializeEP10JavaThread
   fun:_ZN8Universe7genesisEP10JavaThread
   fun:_Z14universe2_initv
}

{
   <insert_a_suppression_name_here>
   Memcheck:Leak
   match-leak-kinds: reachable
   fun:malloc
   fun:_ZN2os6mallocEm8MEMFLAGSRK15NativeCallStack
   fun:_Z12AllocateHeapm8MEMFLAGSN17AllocFailStrategy13AllocFailEnumE
   fun:_ZN10Dictionary9add_klassEP10JavaThreadP6SymbolP13InstanceKlass
   fun:_ZN9vmClasses20resolve_shared_classEP13InstanceKlassP15ClassLoaderData6HandleP10JavaThread
   fun:_ZN9vmClasses20resolve_shared_classEP13InstanceKlassP15ClassLoaderData6HandleP10JavaThread
   fun:_ZN9vmClasses7resolveE9vmClassIDP10JavaThread
   fun:_ZN9vmClasses11resolve_allEP10JavaThread
   fun:_ZN16SystemDictionary10initializeEP10JavaThread
   fun:_ZN8Universe7genesisEP10JavaThread
   fun:_Z14universe2_initv
   fun:_Z13init_globals2v
}

{
   <insert_a_suppression_name_here>
   Memcheck:Leak
   match-leak-kinds: reachable
   fun:malloc
   fun:_ZN2os6mallocEm8MEMFLAGSRK15NativeCallStack
   fun:_Z12AllocateHeapm8MEMFLAGSN17AllocFailStrategy13AllocFailEnumE
   fun:_ZN10Dictionary9add_klassEP10JavaThreadP6SymbolP13InstanceKlass
   fun:_ZN9vmClasses20resolve_shared_classEP13InstanceKlassP15ClassLoaderData6HandleP10JavaThread
   fun:_ZN9vmClasses7resolveE9vmClassIDP10JavaThread
   fun:_ZN9vmClasses11resolve_allEP10JavaThread
   fun:_ZN16SystemDictionary10initializeEP10JavaThread
   fun:_ZN8Universe7genesisEP10JavaThread
   fun:_Z14universe2_initv
   fun:_Z13init_globals2v
   fun:_ZN7Threads9create_vmEP14JavaVMInitArgsPb
}

{
   <insert_a_suppression_name_here>
   Memcheck:Leak
   match-leak-kinds: reachable
   fun:malloc
   fun:_ZN2os6mallocEm8MEMFLAGSRK15NativeCallStack
   fun:_Z12AllocateHeapm8MEMFLAGSN17AllocFailStrategy13AllocFailEnumE
   fun:_ZN10DictionaryC1EP15ClassLoaderDatam
   fun:_ZN15ClassLoaderData17create_dictionaryEv
   fun:_ZN15ClassLoaderData27init_null_class_loader_dataEv
   fun:_Z13universe_initv
   fun:_Z12init_globalsv
   fun:_ZN7Threads9create_vmEP14JavaVMInitArgsPb
   fun:JNI_CreateJavaVM
   fun:JavaMain
   fun:ThreadJavaMain
}

{
   <insert_a_suppression_name_here>
   Memcheck:Leak
   match-leak-kinds: reachable
   fun:malloc
   fun:_ZN2os6mallocEm8MEMFLAGSRK15NativeCallStack
   fun:_Z12AllocateHeapm8MEMFLAGSN17AllocFailStrategy13AllocFailEnumE
   fun:_ZN10DictionaryC1EP15ClassLoaderDatam
   fun:_ZN15ClassLoaderData17create_dictionaryEv
   fun:_ZN15ClassLoaderDataC1E6Handleb
   fun:_ZN20ClassLoaderDataGraph12add_to_graphE6Handleb
   fun:_ZN20ClassLoaderDataGraph3addE6Handleb
   fun:_ZN7Modules23define_archived_modulesE6HandleS0_P10JavaThread
   fun:JVM_DefineArchivedModules
   obj:*
   obj:*
}

{
   <insert_a_suppression_name_here>
   Memcheck:Leak
   match-leak-kinds: reachable
   fun:malloc
   fun:_ZN2os6mallocEm8MEMFLAGSRK15NativeCallStack
   fun:_Z12AllocateHeapm8MEMFLAGSN17AllocFailStrategy13AllocFailEnumE
   fun:_ZN10HeapRegionC1EjP18G1BlockOffsetTable9MemRegionP22G1CardSetConfiguration
   fun:_ZN15G1CollectedHeap15new_heap_regionEj9MemRegion
   fun:_ZN15G1CollectedHeap10initializeEv
   fun:_Z13universe_initv
   fun:_Z12init_globalsv
   fun:_ZN7Threads9create_vmEP14JavaVMInitArgsPb
   fun:JNI_CreateJavaVM
   fun:JavaMain
   fun:ThreadJavaMain
}

{
   <insert_a_suppression_name_here>
   Memcheck:Leak
   match-leak-kinds: reachable
   fun:malloc
   fun:_ZN2os6mallocEm8MEMFLAGSRK15NativeCallStack
   fun:_Z12AllocateHeapm8MEMFLAGSN17AllocFailStrategy13AllocFailEnumE
   fun:_ZN10HeapRegionC1EjP18G1BlockOffsetTable9MemRegionP22G1CardSetConfiguration
   fun:_ZN15G1CollectedHeap15new_heap_regionEj9MemRegion
   fun:_ZN17HeapRegionManager12expand_exactEjjP13WorkerThreads
   fun:_ZN17HeapRegionManager27allocate_containing_regionsE9MemRegionPmP13WorkerThreads
   fun:_ZN15G1CollectedHeap21alloc_archive_regionsE9MemRegion
   fun:_ZN11FileMapInfo20map_heap_region_implEv
   fun:_ZN11FileMapInfo23map_or_load_heap_regionEv
   fun:_ZN15MetaspaceShared12map_archivesEP11FileMapInfoS1_b
   fun:_ZN15MetaspaceShared41initialize_runtime_shared_and_meta_spacesEv
}

{
   <insert_a_suppression_name_here>
   Memcheck:Leak
   match-leak-kinds: reachable
   fun:malloc
   fun:_ZN2os6mallocEm8MEMFLAGSRK15NativeCallStack
   fun:_Z12AllocateHeapm8MEMFLAGSN17AllocFailStrategy13AllocFailEnumE
   fun:_ZN10HeapRegionC1EjP18G1BlockOffsetTable9MemRegionP22G1CardSetConfiguration
   fun:_ZN15G1CollectedHeap15new_heap_regionEj9MemRegion
   fun:_ZN17HeapRegionManager6expandEjjP13WorkerThreads
   fun:_ZN17HeapRegionManager9expand_byEjP13WorkerThreads
   fun:_ZN15G1CollectedHeap6expandEmP13WorkerThreadsPd
   fun:_ZN15G1CollectedHeap10initializeEv
   fun:_Z13universe_initv
   fun:_Z12init_globalsv
   fun:_ZN7Threads9create_vmEP14JavaVMInitArgsPb
}

{
   <insert_a_suppression_name_here>
   Memcheck:Leak
   match-leak-kinds: reachable
   fun:malloc
   fun:_ZN2os6mallocEm8MEMFLAGSRK15NativeCallStack
   fun:_Z12AllocateHeapm8MEMFLAGSN17AllocFailStrategy13AllocFailEnumE
   fun:_ZN10JavaThread27add_oop_handles_for_releaseEv
   fun:_ZN10JavaThreadD1Ev
   fun:_ZN10JavaThreadD0Ev
   fun:_ZN17ThreadsSMRSupport10smr_deleteEP10JavaThread
   fun:_ZL19thread_native_entryP6Thread
   fun:start_thread
   fun:clone
}

{
   <insert_a_suppression_name_here>
   Memcheck:Leak
   match-leak-kinds: reachable
   fun:malloc
   fun:_ZN2os6mallocEm8MEMFLAGSRK15NativeCallStack
   fun:_Z12AllocateHeapm8MEMFLAGSN17AllocFailStrategy13AllocFailEnumE
   fun:_ZN10JavaThread27add_oop_handles_for_releaseEv
   fun:_ZN10JavaThreadD1Ev
   fun:_ZN10JavaThreadD0Ev
   fun:_ZN7Threads10destroy_vmEv
   fun:jni_DestroyJavaVM
   fun:JavaMain
   fun:ThreadJavaMain
   fun:start_thread
   fun:clone
}

{
   <insert_a_suppression_name_here>
   Memcheck:Leak
   match-leak-kinds: reachable
   fun:malloc
   fun:_ZN2os6mallocEm8MEMFLAGSRK15NativeCallStack
   fun:_Z12AllocateHeapm8MEMFLAGSN17AllocFailStrategy13AllocFailEnumE
   fun:_ZN10JavaThreadC1EPFvPS_S0_Em
   fun:JVM_StartThread
   obj:*
   obj:*
   obj:*
   obj:*
   obj:*
   obj:*
   fun:_ZN9JavaCalls11call_helperEP9JavaValueRK12methodHandleP17JavaCallArgumentsP10JavaThread
}

{
   <insert_a_suppression_name_here>
   Memcheck:Leak
   match-leak-kinds: reachable
   fun:malloc
   fun:_ZN2os6mallocEm8MEMFLAGSRK15NativeCallStack
   fun:_Z12AllocateHeapm8MEMFLAGSN17AllocFailStrategy13AllocFailEnumE
   fun:_ZN10JavaThreadC1EPFvPS_S0_Em
   fun:_ZN13ServiceThread10initializeEv
   fun:_ZN7Threads9create_vmEP14JavaVMInitArgsPb
   fun:JNI_CreateJavaVM
   fun:JavaMain
   fun:ThreadJavaMain
   fun:start_thread
   fun:clone
}

{
   <insert_a_suppression_name_here>
   Memcheck:Leak
   match-leak-kinds: reachable
   fun:malloc
   fun:_ZN2os6mallocEm8MEMFLAGSRK15NativeCallStack
   fun:_Z12AllocateHeapm8MEMFLAGSN17AllocFailStrategy13AllocFailEnumE
   fun:_ZN10JavaThreadC1EPFvPS_S0_Em
   fun:_ZN18NotificationThread10initializeEv
   fun:_ZN10Management10initializeEP10JavaThread
   fun:_ZN7Threads9create_vmEP14JavaVMInitArgsPb
   fun:JNI_CreateJavaVM
   fun:JavaMain
   fun:ThreadJavaMain
   fun:start_thread
   fun:clone
}

{
   <insert_a_suppression_name_here>
   Memcheck:Leak
   match-leak-kinds: reachable
   fun:malloc
   fun:_ZN2os6mallocEm8MEMFLAGSRK15NativeCallStack
   fun:_Z12AllocateHeapm8MEMFLAGSN17AllocFailStrategy13AllocFailEnumE
   fun:_ZN10JavaThreadC1EPFvPS_S0_Em
   fun:_ZN22MonitorDeflationThread10initializeEv
   fun:_ZN7Threads9create_vmEP14JavaVMInitArgsPb
   fun:JNI_CreateJavaVM
   fun:JavaMain
   fun:ThreadJavaMain
   fun:start_thread
   fun:clone
}

{
   <insert_a_suppression_name_here>
   Memcheck:Leak
   match-leak-kinds: reachable
   fun:malloc
   fun:_ZN2os6mallocEm8MEMFLAGSRK15NativeCallStack
   fun:_Z12AllocateHeapm8MEMFLAGSN17AllocFailStrategy13AllocFailEnumE
   fun:_ZN10MemoryPoolC1EPKcNS_8PoolTypeEmmbb
   fun:_ZN10G1EdenPoolC1EP15G1CollectedHeapm
   fun:_ZN19G1MonitoringSupport25initialize_serviceabilityEv
   fun:_ZN15G1CollectedHeap15post_initializeEv
   fun:_Z18universe_post_initv
   fun:_Z13init_globals2v
   fun:_ZN7Threads9create_vmEP14JavaVMInitArgsPb
   fun:JNI_CreateJavaVM
   fun:JavaMain
}

{
   <insert_a_suppression_name_here>
   Memcheck:Leak
   match-leak-kinds: reachable
   fun:malloc
   fun:_ZN2os6mallocEm8MEMFLAGSRK15NativeCallStack
   fun:_Z12AllocateHeapm8MEMFLAGSN17AllocFailStrategy13AllocFailEnumE
   fun:_ZN10MemoryPoolC1EPKcNS_8PoolTypeEmmbb
   fun:_ZN12G1OldGenPoolC1EP15G1CollectedHeapmm
   fun:_ZN19G1MonitoringSupport25initialize_serviceabilityEv
   fun:_ZN15G1CollectedHeap15post_initializeEv
   fun:_Z18universe_post_initv
   fun:_Z13init_globals2v
   fun:_ZN7Threads9create_vmEP14JavaVMInitArgsPb
   fun:JNI_CreateJavaVM
   fun:JavaMain
}

{
   <insert_a_suppression_name_here>
   Memcheck:Leak
   match-leak-kinds: reachable
   fun:malloc
   fun:_ZN2os6mallocEm8MEMFLAGSRK15NativeCallStack
   fun:_Z12AllocateHeapm8MEMFLAGSN17AllocFailStrategy13AllocFailEnumE
   fun:_ZN10MemoryPoolC1EPKcNS_8PoolTypeEmmbb
   fun:_ZN14G1SurvivorPoolC1EP15G1CollectedHeapm
   fun:_ZN19G1MonitoringSupport25initialize_serviceabilityEv
   fun:_ZN15G1CollectedHeap15post_initializeEv
   fun:_Z18universe_post_initv
   fun:_Z13init_globals2v
   fun:_ZN7Threads9create_vmEP14JavaVMInitArgsPb
   fun:JNI_CreateJavaVM
   fun:JavaMain
}

{
   <insert_a_suppression_name_here>
   Memcheck:Leak
   match-leak-kinds: reachable
   fun:malloc
   fun:_ZN2os6mallocEm8MEMFLAGSRK15NativeCallStack
   fun:_Z12AllocateHeapm8MEMFLAGSN17AllocFailStrategy13AllocFailEnumE
   fun:_ZN10OopStorage13try_add_blockEv
   fun:_ZN10OopStorage8allocateEv
   fun:_ZN10HeapShared14serialize_rootEP16SerializeClosure
   fun:_ZN15MetaspaceShared9serializeEP16SerializeClosure
   fun:_ZN15MetaspaceShared24initialize_shared_spacesEv
   fun:_Z13universe_initv
   fun:_Z12init_globalsv
   fun:_ZN7Threads9create_vmEP14JavaVMInitArgsPb
   fun:JNI_CreateJavaVM
}

{
   <insert_a_suppression_name_here>
   Memcheck:Leak
   match-leak-kinds: reachable
   fun:malloc
   fun:_ZN2os6mallocEm8MEMFLAGSRK15NativeCallStack
   fun:_Z12AllocateHeapm8MEMFLAGSN17AllocFailStrategy13AllocFailEnumE
   fun:_ZN10OopStorage13try_add_blockEv
   fun:_ZN10OopStorage8allocateEv
   fun:_ZN10WeakHandleC1EP10OopStorage6Handle
   fun:_ZN11StringTable9do_internE6HandlePKtimP10JavaThread
   fun:_ZN11StringTable6internEP6SymbolP10JavaThread
   fun:_ZN12ConstantPool14string_at_implERK18constantPoolHandleiiP10JavaThread
   fun:_ZN12ConstantPool24resolve_constant_at_implERK18constantPoolHandleiiPbP10JavaThread
   fun:_ZNK21Bytecode_loadconstant16resolve_constantEP10JavaThread
   fun:_ZN18InterpreterRuntime11resolve_ldcEP10JavaThreadN9Bytecodes4CodeE
}

{
   <insert_a_suppression_name_here>
   Memcheck:Leak
   match-leak-kinds: reachable
   fun:malloc
   fun:_ZN2os6mallocEm8MEMFLAGSRK15NativeCallStack
   fun:_Z12AllocateHeapm8MEMFLAGSN17AllocFailStrategy13AllocFailEnumE
   fun:_ZN10OopStorage13try_add_blockEv
   fun:_ZN10OopStorage8allocateEv
   fun:_ZN10WeakHandleC1EP10OopStorage6Handle
   fun:_ZN11StringTable9do_internE6HandlePKtimP10JavaThread
   fun:_ZN11StringTable6internEP6SymbolP10JavaThread
   fun:_ZN12ConstantPool18uncached_string_atEiP10JavaThread
   fun:_ZL23initialize_static_fieldP15fieldDescriptor6HandleP10JavaThread
   fun:_ZN13InstanceKlass22do_local_static_fieldsEPFvP15fieldDescriptor6HandleP10JavaThreadES2_S4_
   fun:_ZN15java_lang_Class24initialize_mirror_fieldsEP5Klass6HandleS2_S2_P10JavaThread
}

{
   <insert_a_suppression_name_here>
   Memcheck:Leak
   match-leak-kinds: reachable
   fun:malloc
   fun:_ZN2os6mallocEm8MEMFLAGSRK15NativeCallStack
   fun:_Z12AllocateHeapm8MEMFLAGSN17AllocFailStrategy13AllocFailEnumE
   fun:_ZN10OopStorage13try_add_blockEv
   fun:_ZN10OopStorage8allocateEv
   fun:_ZN10WeakHandleC1EP10OopStorage6Handle
   fun:_ZN11StringTable9do_internE6HandlePKtimP10JavaThread
   fun:_ZN11StringTable6internEP7oopDescP10JavaThread
   fun:JVM_InternString
   obj:*
   obj:*
   obj:*
}

{
   <insert_a_suppression_name_here>
   Memcheck:Leak
   match-leak-kinds: reachable
   fun:malloc
   fun:_ZN2os6mallocEm8MEMFLAGSRK15NativeCallStack
   fun:_Z12AllocateHeapm8MEMFLAGSN17AllocFailStrategy13AllocFailEnumE
   fun:_ZN10OopStorage13try_add_blockEv
   fun:_ZN10OopStorage8allocateEv
   fun:_ZN10WeakHandleC1EP10OopStorage6Handle
   fun:_ZN15ClassLoaderDataC1E6Handleb
   fun:_ZN20ClassLoaderDataGraph12add_to_graphE6Handleb
   fun:_ZN20ClassLoaderDataGraph3addE6Handleb
   fun:_ZN7Modules23define_archived_modulesE6HandleS0_P10JavaThread
   fun:JVM_DefineArchivedModules
   obj:*
}

{
   <insert_a_suppression_name_here>
   Memcheck:Leak
   match-leak-kinds: reachable
   fun:malloc
   fun:_ZN2os6mallocEm8MEMFLAGSRK15NativeCallStack
   fun:_Z12AllocateHeapm8MEMFLAGSN17AllocFailStrategy13AllocFailEnumE
   fun:_ZN10OopStorage6createEPKc8MEMFLAGS
   fun:_ZN13OopStorageSet11create_weakEPKc8MEMFLAGS
   fun:_Z16jni_handles_initv
   fun:_Z13init_globals2v
   fun:_ZN7Threads9create_vmEP14JavaVMInitArgsPb
   fun:JNI_CreateJavaVM
   fun:JavaMain
   fun:ThreadJavaMain
   fun:start_thread
}

{
   <insert_a_suppression_name_here>
   Memcheck:Leak
   match-leak-kinds: reachable
   fun:malloc
   fun:_ZN2os6mallocEm8MEMFLAGSRK15NativeCallStack
   fun:_Z12AllocateHeapm8MEMFLAGSN17AllocFailStrategy13AllocFailEnumE
   fun:_ZN10OopStorage6createEPKc8MEMFLAGS
   fun:_ZN13OopStorageSet11create_weakEPKc8MEMFLAGS
   fun:_Z24universe_oopstorage_initv
   fun:_Z15vm_init_globalsv
   fun:_ZN7Threads9create_vmEP14JavaVMInitArgsPb
   fun:JNI_CreateJavaVM
   fun:JavaMain
   fun:ThreadJavaMain
   fun:start_thread
}

{
   <insert_a_suppression_name_here>
   Memcheck:Leak
   match-leak-kinds: reachable
   fun:malloc
   fun:_ZN2os6mallocEm8MEMFLAGSRK15NativeCallStack
   fun:_Z12AllocateHeapm8MEMFLAGSN17AllocFailStrategy13AllocFailEnumE
   fun:_ZN10OopStorage6createEPKc8MEMFLAGS
   fun:_ZN13OopStorageSet11create_weakEPKc8MEMFLAGS
   fun:_ZN11JvmtiExport22initialize_oop_storageEv
   fun:_Z12init_globalsv
   fun:_ZN7Threads9create_vmEP14JavaVMInitArgsPb
   fun:JNI_CreateJavaVM
   fun:JavaMain
   fun:ThreadJavaMain
   fun:start_thread
}

{
   <insert_a_suppression_name_here>
   Memcheck:Leak
   match-leak-kinds: reachable
   fun:malloc
   fun:_ZN2os6mallocEm8MEMFLAGSRK15NativeCallStack
   fun:_Z12AllocateHeapm8MEMFLAGSN17AllocFailStrategy13AllocFailEnumE
   fun:_ZN10OopStorage6createEPKc8MEMFLAGS
   fun:_ZN13OopStorageSet11create_weakEPKc8MEMFLAGS
   fun:_ZN11StringDedup5Table18initialize_storageEv
   fun:_ZN11StringDedup10initializeEv
   fun:_ZN13CollectedHeap15post_initializeEv
   fun:_ZN15G1CollectedHeap15post_initializeEv
   fun:_Z18universe_post_initv
   fun:_Z13init_globals2v
   fun:_ZN7Threads9create_vmEP14JavaVMInitArgsPb
}

{
   <insert_a_suppression_name_here>
   Memcheck:Leak
   match-leak-kinds: reachable
   fun:malloc
   fun:_ZN2os6mallocEm8MEMFLAGSRK15NativeCallStack
   fun:_Z12AllocateHeapm8MEMFLAGSN17AllocFailStrategy13AllocFailEnumE
   fun:_ZN10OopStorage6createEPKc8MEMFLAGS
   fun:_ZN13OopStorageSet11create_weakEPKc8MEMFLAGS
   fun:_ZN11StringDedup9Processor18initialize_storageEv
   fun:_ZN11StringDedup10initializeEv
   fun:_ZN13CollectedHeap15post_initializeEv
   fun:_ZN15G1CollectedHeap15post_initializeEv
   fun:_Z18universe_post_initv
   fun:_Z13init_globals2v
   fun:_ZN7Threads9create_vmEP14JavaVMInitArgsPb
}

{
   <insert_a_suppression_name_here>
   Memcheck:Leak
   match-leak-kinds: reachable
   fun:malloc
   fun:_ZN2os6mallocEm8MEMFLAGSRK15NativeCallStack
   fun:_Z12AllocateHeapm8MEMFLAGSN17AllocFailStrategy13AllocFailEnumE
   fun:_ZN10OopStorage6createEPKc8MEMFLAGS
   fun:_ZN13OopStorageSet11create_weakEPKc8MEMFLAGS
   fun:_ZN11StringTable12create_tableEv
   fun:_Z13universe_initv
   fun:_Z12init_globalsv
   fun:_ZN7Threads9create_vmEP14JavaVMInitArgsPb
   fun:JNI_CreateJavaVM
   fun:JavaMain
   fun:ThreadJavaMain
}

{
   <insert_a_suppression_name_here>
   Memcheck:Leak
   match-leak-kinds: reachable
   fun:malloc
   fun:_ZN2os6mallocEm8MEMFLAGSRK15NativeCallStack
   fun:_Z12AllocateHeapm8MEMFLAGSN17AllocFailStrategy13AllocFailEnumE
   fun:_ZN10OopStorage6createEPKc8MEMFLAGS
   fun:_ZN13OopStorageSet11create_weakEPKc8MEMFLAGS
   fun:_ZN13ObjectMonitor10InitializeEv
   fun:_ZN7Threads9create_vmEP14JavaVMInitArgsPb
   fun:JNI_CreateJavaVM
   fun:JavaMain
   fun:ThreadJavaMain
   fun:start_thread
   fun:clone
}

{
   <insert_a_suppression_name_here>
   Memcheck:Leak
   match-leak-kinds: reachable
   fun:malloc
   fun:_ZN2os6mallocEm8MEMFLAGSRK15NativeCallStack
   fun:_Z12AllocateHeapm8MEMFLAGSN17AllocFailStrategy13AllocFailEnumE
   fun:_ZN10OopStorage6createEPKc8MEMFLAGS
   fun:_ZN13OopStorageSet11create_weakEPKc8MEMFLAGS
   fun:_ZN13ObjectSampler18create_oop_storageEv
   fun:_ZN11JfrRecorder14on_create_vm_1Ev
   fun:_ZN3Jfr14on_create_vm_1Ev
   fun:_ZN7Threads9create_vmEP14JavaVMInitArgsPb
   fun:JNI_CreateJavaVM
   fun:JavaMain
   fun:ThreadJavaMain
}

{
   <insert_a_suppression_name_here>
   Memcheck:Leak
   match-leak-kinds: reachable
   fun:malloc
   fun:_ZN2os6mallocEm8MEMFLAGSRK15NativeCallStack
   fun:_Z12AllocateHeapm8MEMFLAGSN17AllocFailStrategy13AllocFailEnumE
   fun:_ZN10OopStorage6createEPKc8MEMFLAGS
   fun:_ZN13OopStorageSet11create_weakEPKc8MEMFLAGS
   fun:_ZN19ResolvedMethodTable12create_tableEv
   fun:_Z13universe_initv
   fun:_Z12init_globalsv
   fun:_ZN7Threads9create_vmEP14JavaVMInitArgsPb
   fun:JNI_CreateJavaVM
   fun:JavaMain
   fun:ThreadJavaMain
}

{
   <insert_a_suppression_name_here>
   Memcheck:Leak
   match-leak-kinds: reachable
   fun:malloc
   fun:_ZN2os6mallocEm8MEMFLAGSRK15NativeCallStack
   fun:_Z12AllocateHeapm8MEMFLAGSN17AllocFailStrategy13AllocFailEnumE
   fun:_ZN10OopStorage6createEPKc8MEMFLAGS
   fun:_ZN13OopStorageSet13create_strongEPKc8MEMFLAGS
   fun:_Z16jni_handles_initv
   fun:_Z13init_globals2v
   fun:_ZN7Threads9create_vmEP14JavaVMInitArgsPb
   fun:JNI_CreateJavaVM
   fun:JavaMain
   fun:ThreadJavaMain
   fun:start_thread
}

{
   <insert_a_suppression_name_here>
   Memcheck:Leak
   match-leak-kinds: reachable
   fun:malloc
   fun:_ZN2os6mallocEm8MEMFLAGSRK15NativeCallStack
   fun:_Z12AllocateHeapm8MEMFLAGSN17AllocFailStrategy13AllocFailEnumE
   fun:_ZN10OopStorage6createEPKc8MEMFLAGS
   fun:_ZN13OopStorageSet13create_strongEPKc8MEMFLAGS
   fun:_Z24universe_oopstorage_initv
   fun:_Z15vm_init_globalsv
   fun:_ZN7Threads9create_vmEP14JavaVMInitArgsPb
   fun:JNI_CreateJavaVM
   fun:JavaMain
   fun:ThreadJavaMain
   fun:start_thread
}

{
   <insert_a_suppression_name_here>
   Memcheck:Leak
   match-leak-kinds: reachable
   fun:malloc
   fun:_ZN2os6mallocEm8MEMFLAGSRK15NativeCallStack
   fun:_Z12AllocateHeapm8MEMFLAGSN17AllocFailStrategy13AllocFailEnumE
   fun:_ZN10OopStorage6createEPKc8MEMFLAGS
   fun:_ZN13OopStorageSet13create_strongEPKc8MEMFLAGS
   fun:_ZN11JvmtiExport22initialize_oop_storageEv
   fun:_Z12init_globalsv
   fun:_ZN7Threads9create_vmEP14JavaVMInitArgsPb
   fun:JNI_CreateJavaVM
   fun:JavaMain
   fun:ThreadJavaMain
   fun:start_thread
}

{
   <insert_a_suppression_name_here>
   Memcheck:Leak
   match-leak-kinds: reachable
   fun:malloc
   fun:_ZN2os6mallocEm8MEMFLAGSRK15NativeCallStack
   fun:_Z12AllocateHeapm8MEMFLAGSN17AllocFailStrategy13AllocFailEnumE
   fun:_ZN10OopStorage6createEPKc8MEMFLAGS
   fun:_ZN13OopStorageSet13create_strongEPKc8MEMFLAGS
   fun:_ZN13ThreadService4initEv
   fun:_Z15management_initv
   fun:_Z12init_globalsv
   fun:_ZN7Threads9create_vmEP14JavaVMInitArgsPb
   fun:JNI_CreateJavaVM
   fun:JavaMain
   fun:ThreadJavaMain
}

{
   <insert_a_suppression_name_here>
   Memcheck:Leak
   match-leak-kinds: reachable
   fun:malloc
   fun:_ZN2os6mallocEm8MEMFLAGSRK15NativeCallStack
   fun:_Z12AllocateHeapm8MEMFLAGSN17AllocFailStrategy13AllocFailEnumE
   fun:_ZN10OopStorage6createEPKc8MEMFLAGS
   fun:_ZN13OopStorageSet13create_strongEPKc8MEMFLAGS
   fun:_ZN7Threads9create_vmEP14JavaVMInitArgsPb
   fun:JNI_CreateJavaVM
   fun:JavaMain
   fun:ThreadJavaMain
   fun:start_thread
   fun:clone
}

{
   <insert_a_suppression_name_here>
   Memcheck:Leak
   match-leak-kinds: reachable
   fun:malloc
   fun:_ZN2os6mallocEm8MEMFLAGSRK15NativeCallStack
   fun:_Z12AllocateHeapm8MEMFLAGSN17AllocFailStrategy13AllocFailEnumE
   fun:_ZN10OopStorageC1EPKc8MEMFLAGS
   fun:_ZN10OopStorage6createEPKc8MEMFLAGS
   fun:_ZN13OopStorageSet11create_weakEPKc8MEMFLAGS
   fun:_Z16jni_handles_initv
   fun:_Z13init_globals2v
   fun:_ZN7Threads9create_vmEP14JavaVMInitArgsPb
   fun:JNI_CreateJavaVM
   fun:JavaMain
   fun:ThreadJavaMain
}

{
   <insert_a_suppression_name_here>
   Memcheck:Leak
   match-leak-kinds: reachable
   fun:malloc
   fun:_ZN2os6mallocEm8MEMFLAGSRK15NativeCallStack
   fun:_Z12AllocateHeapm8MEMFLAGSN17AllocFailStrategy13AllocFailEnumE
   fun:_ZN10OopStorageC1EPKc8MEMFLAGS
   fun:_ZN10OopStorage6createEPKc8MEMFLAGS
   fun:_ZN13OopStorageSet11create_weakEPKc8MEMFLAGS
   fun:_Z24universe_oopstorage_initv
   fun:_Z15vm_init_globalsv
   fun:_ZN7Threads9create_vmEP14JavaVMInitArgsPb
   fun:JNI_CreateJavaVM
   fun:JavaMain
   fun:ThreadJavaMain
}

{
   <insert_a_suppression_name_here>
   Memcheck:Leak
   match-leak-kinds: reachable
   fun:malloc
   fun:_ZN2os6mallocEm8MEMFLAGSRK15NativeCallStack
   fun:_Z12AllocateHeapm8MEMFLAGSN17AllocFailStrategy13AllocFailEnumE
   fun:_ZN10OopStorageC1EPKc8MEMFLAGS
   fun:_ZN10OopStorage6createEPKc8MEMFLAGS
   fun:_ZN13OopStorageSet11create_weakEPKc8MEMFLAGS
   fun:_ZN11JvmtiExport22initialize_oop_storageEv
   fun:_Z12init_globalsv
   fun:_ZN7Threads9create_vmEP14JavaVMInitArgsPb
   fun:JNI_CreateJavaVM
   fun:JavaMain
   fun:ThreadJavaMain
}

{
   <insert_a_suppression_name_here>
   Memcheck:Leak
   match-leak-kinds: reachable
   fun:malloc
   fun:_ZN2os6mallocEm8MEMFLAGSRK15NativeCallStack
   fun:_Z12AllocateHeapm8MEMFLAGSN17AllocFailStrategy13AllocFailEnumE
   fun:_ZN10OopStorageC1EPKc8MEMFLAGS
   fun:_ZN10OopStorage6createEPKc8MEMFLAGS
   fun:_ZN13OopStorageSet11create_weakEPKc8MEMFLAGS
   fun:_ZN11StringDedup5Table18initialize_storageEv
   fun:_ZN11StringDedup10initializeEv
   fun:_ZN13CollectedHeap15post_initializeEv
   fun:_ZN15G1CollectedHeap15post_initializeEv
   fun:_Z18universe_post_initv
   fun:_Z13init_globals2v
}

{
   <insert_a_suppression_name_here>
   Memcheck:Leak
   match-leak-kinds: reachable
   fun:malloc
   fun:_ZN2os6mallocEm8MEMFLAGSRK15NativeCallStack
   fun:_Z12AllocateHeapm8MEMFLAGSN17AllocFailStrategy13AllocFailEnumE
   fun:_ZN10OopStorageC1EPKc8MEMFLAGS
   fun:_ZN10OopStorage6createEPKc8MEMFLAGS
   fun:_ZN13OopStorageSet11create_weakEPKc8MEMFLAGS
   fun:_ZN11StringDedup9Processor18initialize_storageEv
   fun:_ZN11StringDedup10initializeEv
   fun:_ZN13CollectedHeap15post_initializeEv
   fun:_ZN15G1CollectedHeap15post_initializeEv
   fun:_Z18universe_post_initv
   fun:_Z13init_globals2v
}

{
   <insert_a_suppression_name_here>
   Memcheck:Leak
   match-leak-kinds: reachable
   fun:malloc
   fun:_ZN2os6mallocEm8MEMFLAGSRK15NativeCallStack
   fun:_Z12AllocateHeapm8MEMFLAGSN17AllocFailStrategy13AllocFailEnumE
   fun:_ZN10OopStorageC1EPKc8MEMFLAGS
   fun:_ZN10OopStorage6createEPKc8MEMFLAGS
   fun:_ZN13OopStorageSet11create_weakEPKc8MEMFLAGS
   fun:_ZN11StringTable12create_tableEv
   fun:_Z13universe_initv
   fun:_Z12init_globalsv
   fun:_ZN7Threads9create_vmEP14JavaVMInitArgsPb
   fun:JNI_CreateJavaVM
   fun:JavaMain
}

{
   <insert_a_suppression_name_here>
   Memcheck:Leak
   match-leak-kinds: reachable
   fun:malloc
   fun:_ZN2os6mallocEm8MEMFLAGSRK15NativeCallStack
   fun:_Z12AllocateHeapm8MEMFLAGSN17AllocFailStrategy13AllocFailEnumE
   fun:_ZN10OopStorageC1EPKc8MEMFLAGS
   fun:_ZN10OopStorage6createEPKc8MEMFLAGS
   fun:_ZN13OopStorageSet11create_weakEPKc8MEMFLAGS
   fun:_ZN13ObjectMonitor10InitializeEv
   fun:_ZN7Threads9create_vmEP14JavaVMInitArgsPb
   fun:JNI_CreateJavaVM
   fun:JavaMain
   fun:ThreadJavaMain
   fun:start_thread
}

{
   <insert_a_suppression_name_here>
   Memcheck:Leak
   match-leak-kinds: reachable
   fun:malloc
   fun:_ZN2os6mallocEm8MEMFLAGSRK15NativeCallStack
   fun:_Z12AllocateHeapm8MEMFLAGSN17AllocFailStrategy13AllocFailEnumE
   fun:_ZN10OopStorageC1EPKc8MEMFLAGS
   fun:_ZN10OopStorage6createEPKc8MEMFLAGS
   fun:_ZN13OopStorageSet11create_weakEPKc8MEMFLAGS
   fun:_ZN13ObjectSampler18create_oop_storageEv
   fun:_ZN11JfrRecorder14on_create_vm_1Ev
   fun:_ZN3Jfr14on_create_vm_1Ev
   fun:_ZN7Threads9create_vmEP14JavaVMInitArgsPb
   fun:JNI_CreateJavaVM
   fun:JavaMain
}

{
   <insert_a_suppression_name_here>
   Memcheck:Leak
   match-leak-kinds: reachable
   fun:malloc
   fun:_ZN2os6mallocEm8MEMFLAGSRK15NativeCallStack
   fun:_Z12AllocateHeapm8MEMFLAGSN17AllocFailStrategy13AllocFailEnumE
   fun:_ZN10OopStorageC1EPKc8MEMFLAGS
   fun:_ZN10OopStorage6createEPKc8MEMFLAGS
   fun:_ZN13OopStorageSet11create_weakEPKc8MEMFLAGS
   fun:_ZN19ResolvedMethodTable12create_tableEv
   fun:_Z13universe_initv
   fun:_Z12init_globalsv
   fun:_ZN7Threads9create_vmEP14JavaVMInitArgsPb
   fun:JNI_CreateJavaVM
   fun:JavaMain
}

{
   <insert_a_suppression_name_here>
   Memcheck:Leak
   match-leak-kinds: reachable
   fun:malloc
   fun:_ZN2os6mallocEm8MEMFLAGSRK15NativeCallStack
   fun:_Z12AllocateHeapm8MEMFLAGSN17AllocFailStrategy13AllocFailEnumE
   fun:_ZN10OopStorageC1EPKc8MEMFLAGS
   fun:_ZN10OopStorage6createEPKc8MEMFLAGS
   fun:_ZN13OopStorageSet13create_strongEPKc8MEMFLAGS
   fun:_Z16jni_handles_initv
   fun:_Z13init_globals2v
   fun:_ZN7Threads9create_vmEP14JavaVMInitArgsPb
   fun:JNI_CreateJavaVM
   fun:JavaMain
   fun:ThreadJavaMain
}

{
   <insert_a_suppression_name_here>
   Memcheck:Leak
   match-leak-kinds: reachable
   fun:malloc
   fun:_ZN2os6mallocEm8MEMFLAGSRK15NativeCallStack
   fun:_Z12AllocateHeapm8MEMFLAGSN17AllocFailStrategy13AllocFailEnumE
   fun:_ZN10OopStorageC1EPKc8MEMFLAGS
   fun:_ZN10OopStorage6createEPKc8MEMFLAGS
   fun:_ZN13OopStorageSet13create_strongEPKc8MEMFLAGS
   fun:_Z24universe_oopstorage_initv
   fun:_Z15vm_init_globalsv
   fun:_ZN7Threads9create_vmEP14JavaVMInitArgsPb
   fun:JNI_CreateJavaVM
   fun:JavaMain
   fun:ThreadJavaMain
}

{
   <insert_a_suppression_name_here>
   Memcheck:Leak
   match-leak-kinds: reachable
   fun:malloc
   fun:_ZN2os6mallocEm8MEMFLAGSRK15NativeCallStack
   fun:_Z12AllocateHeapm8MEMFLAGSN17AllocFailStrategy13AllocFailEnumE
   fun:_ZN10OopStorageC1EPKc8MEMFLAGS
   fun:_ZN10OopStorage6createEPKc8MEMFLAGS
   fun:_ZN13OopStorageSet13create_strongEPKc8MEMFLAGS
   fun:_ZN11JvmtiExport22initialize_oop_storageEv
   fun:_Z12init_globalsv
   fun:_ZN7Threads9create_vmEP14JavaVMInitArgsPb
   fun:JNI_CreateJavaVM
   fun:JavaMain
   fun:ThreadJavaMain
}

{
   <insert_a_suppression_name_here>
   Memcheck:Leak
   match-leak-kinds: reachable
   fun:malloc
   fun:_ZN2os6mallocEm8MEMFLAGSRK15NativeCallStack
   fun:_Z12AllocateHeapm8MEMFLAGSN17AllocFailStrategy13AllocFailEnumE
   fun:_ZN10OopStorageC1EPKc8MEMFLAGS
   fun:_ZN10OopStorage6createEPKc8MEMFLAGS
   fun:_ZN13OopStorageSet13create_strongEPKc8MEMFLAGS
   fun:_ZN13ThreadService4initEv
   fun:_Z15management_initv
   fun:_Z12init_globalsv
   fun:_ZN7Threads9create_vmEP14JavaVMInitArgsPb
   fun:JNI_CreateJavaVM
   fun:JavaMain
}

{
   <insert_a_suppression_name_here>
   Memcheck:Leak
   match-leak-kinds: reachable
   fun:malloc
   fun:_ZN2os6mallocEm8MEMFLAGSRK15NativeCallStack
   fun:_Z12AllocateHeapm8MEMFLAGSN17AllocFailStrategy13AllocFailEnumE
   fun:_ZN10OopStorageC1EPKc8MEMFLAGS
   fun:_ZN10OopStorage6createEPKc8MEMFLAGS
   fun:_ZN13OopStorageSet13create_strongEPKc8MEMFLAGS
   fun:_ZN7Threads9create_vmEP14JavaVMInitArgsPb
   fun:JNI_CreateJavaVM
   fun:JavaMain
   fun:ThreadJavaMain
   fun:start_thread
   fun:clone
}

{
   <insert_a_suppression_name_here>
   Memcheck:Leak
   match-leak-kinds: reachable
   fun:malloc
   fun:_ZN2os6mallocEm8MEMFLAGSRK15NativeCallStack
   fun:_Z12AllocateHeapm8MEMFLAGSN17AllocFailStrategy13AllocFailEnumE
   fun:_ZN10PathString9set_valueEPKcN17AllocFailStrategy13AllocFailEnumE
   fun:_ZN7Threads9create_vmEP14JavaVMInitArgsPb
   fun:JNI_CreateJavaVM
   fun:JavaMain
   fun:ThreadJavaMain
   fun:start_thread
   fun:clone
}

{
   <insert_a_suppression_name_here>
   Memcheck:Leak
   match-leak-kinds: reachable
   fun:malloc
   fun:_ZN2os6mallocEm8MEMFLAGSRK15NativeCallStack
   fun:_Z12AllocateHeapm8MEMFLAGSN17AllocFailStrategy13AllocFailEnumE
   fun:_ZN10VM_Version16cpu_brand_stringEv
   fun:_ZN10VM_Version40max_qualified_cpu_freq_from_brand_stringEv
   fun:_ZN10VM_Version31maximum_qualified_cpu_frequencyEv
   fun:_ZN5Rdtsc10initializeEv
   fun:_ZN29CompositeElapsedCounterSource3nowEv
   fun:_ZN15G1CollectedHeapC1Ev
   fun:_ZN11G1Arguments11create_heapEv
   fun:_Z13universe_initv
   fun:_Z12init_globalsv
}

{
   <insert_a_suppression_name_here>
   Memcheck:Leak
   match-leak-kinds: reachable
   fun:malloc
   fun:_ZN2os6mallocEm8MEMFLAGSRK15NativeCallStack
   fun:_Z12AllocateHeapm8MEMFLAGSN17AllocFailStrategy13AllocFailEnumE
   fun:_ZN11ClassLoader32setup_bootstrap_search_path_implEP10JavaThreadPKc
   fun:_Z17classLoader_init1v
   fun:_Z12init_globalsv
   fun:_ZN7Threads9create_vmEP14JavaVMInitArgsPb
   fun:JNI_CreateJavaVM
   fun:JavaMain
   fun:ThreadJavaMain
   fun:start_thread
   fun:clone
}

{
   <insert_a_suppression_name_here>
   Memcheck:Leak
   match-leak-kinds: reachable
   fun:malloc
   fun:_ZN2os6mallocEm8MEMFLAGSRK15NativeCallStack
   fun:_Z12AllocateHeapm8MEMFLAGSN17AllocFailStrategy13AllocFailEnumE
   fun:_ZN11G1AllocatorC1EP15G1CollectedHeap
   fun:_ZN15G1CollectedHeapC1Ev
   fun:_ZN11G1Arguments11create_heapEv
   fun:_Z13universe_initv
   fun:_Z12init_globalsv
   fun:_ZN7Threads9create_vmEP14JavaVMInitArgsPb
   fun:JNI_CreateJavaVM
   fun:JavaMain
   fun:ThreadJavaMain
}

{
   <insert_a_suppression_name_here>
   Memcheck:Leak
   match-leak-kinds: reachable
   fun:malloc
   fun:_ZN2os6mallocEm8MEMFLAGSRK15NativeCallStack
   fun:_Z12AllocateHeapm8MEMFLAGSN17AllocFailStrategy13AllocFailEnumE
   fun:_ZN11G1Arguments11create_heapEv
   fun:_Z13universe_initv
   fun:_Z12init_globalsv
   fun:_ZN7Threads9create_vmEP14JavaVMInitArgsPb
   fun:JNI_CreateJavaVM
   fun:JavaMain
   fun:ThreadJavaMain
   fun:start_thread
   fun:clone
}

{
   <insert_a_suppression_name_here>
   Memcheck:Leak
   match-leak-kinds: reachable
   fun:malloc
   fun:_ZN2os6mallocEm8MEMFLAGSRK15NativeCallStack
   fun:_Z12AllocateHeapm8MEMFLAGSN17AllocFailStrategy13AllocFailEnumE
   fun:_ZN11G1FreeIdSetC1Ejj
   fun:_ZN19G1DirtyCardQueueSetC1EPN10BufferNode9AllocatorE
   fun:_ZN15G1CollectedHeap10initializeEv
   fun:_Z13universe_initv
   fun:_Z12init_globalsv
   fun:_ZN7Threads9create_vmEP14JavaVMInitArgsPb
   fun:JNI_CreateJavaVM
   fun:JavaMain
   fun:ThreadJavaMain
}

{
   <insert_a_suppression_name_here>
   Memcheck:Leak
   match-leak-kinds: reachable
   fun:malloc
   fun:_ZN2os6mallocEm8MEMFLAGSRK15NativeCallStack
   fun:_Z12AllocateHeapm8MEMFLAGSN17AllocFailStrategy13AllocFailEnumE
   fun:_ZN11G1NewTracer10initializeEv
   fun:_ZN15G1CollectedHeapC1Ev
   fun:_ZN11G1Arguments11create_heapEv
   fun:_Z13universe_initv
   fun:_Z12init_globalsv
   fun:_ZN7Threads9create_vmEP14JavaVMInitArgsPb
   fun:JNI_CreateJavaVM
   fun:JavaMain
   fun:ThreadJavaMain
}

{
   <insert_a_suppression_name_here>
   Memcheck:Leak
   match-leak-kinds: reachable
   fun:malloc
   fun:_ZN2os6mallocEm8MEMFLAGSRK15NativeCallStack
   fun:_Z12AllocateHeapm8MEMFLAGSN17AllocFailStrategy13AllocFailEnumE
   fun:_ZN11ModuleEntry22restore_growable_arrayEP5ArrayIPS_E
   fun:_ZN16ModuleEntryTable21load_archived_entriesEP15ClassLoaderDataP5ArrayIP11ModuleEntryE
   fun:_ZN21ClassLoaderDataShared39restore_java_system_loader_from_archiveEP15ClassLoaderData
   fun:JVM_DefineArchivedModules
   obj:*
   obj:*
   obj:*
   obj:*
   fun:_ZN9JavaCalls11call_helperEP9JavaValueRK12methodHandleP17JavaCallArgumentsP10JavaThread
}

{
   <insert_a_suppression_name_here>
   Memcheck:Leak
   match-leak-kinds: reachable
   fun:malloc
   fun:_ZN2os6mallocEm8MEMFLAGSRK15NativeCallStack
   fun:_Z12AllocateHeapm8MEMFLAGSN17AllocFailStrategy13AllocFailEnumE
   fun:_ZN11ModuleEntry22restore_growable_arrayEP5ArrayIPS_E
   fun:_ZN16ModuleEntryTable21load_archived_entriesEP15ClassLoaderDataP5ArrayIP11ModuleEntryE
   fun:_ZN21ClassLoaderDataShared41restore_java_platform_loader_from_archiveEP15ClassLoaderData
   fun:_ZN7Modules23define_archived_modulesE6HandleS0_P10JavaThread
   fun:JVM_DefineArchivedModules
   obj:*
   obj:*
   obj:*
   obj:*
}

{
   <insert_a_suppression_name_here>
   Memcheck:Leak
   match-leak-kinds: reachable
   fun:malloc
   fun:_ZN2os6mallocEm8MEMFLAGSRK15NativeCallStack
   fun:_Z12AllocateHeapm8MEMFLAGSN17AllocFailStrategy13AllocFailEnumE
   fun:_ZN11ModuleEntry22restore_growable_arrayEP5ArrayIPS_E
   fun:_ZN16ModuleEntryTable21load_archived_entriesEP15ClassLoaderDataP5ArrayIP11ModuleEntryE
   fun:_ZN21ClassLoaderDataShared9serializeEP16SerializeClosure
   fun:_ZN15MetaspaceShared9serializeEP16SerializeClosure
   fun:_ZN15MetaspaceShared24initialize_shared_spacesEv
   fun:_Z13universe_initv
   fun:_Z12init_globalsv
   fun:_ZN7Threads9create_vmEP14JavaVMInitArgsPb
   fun:JNI_CreateJavaVM
}

{
   <insert_a_suppression_name_here>
   Memcheck:Leak
   match-leak-kinds: reachable
   fun:malloc
   fun:_ZN2os6mallocEm8MEMFLAGSRK15NativeCallStack
   fun:_Z12AllocateHeapm8MEMFLAGSN17AllocFailStrategy13AllocFailEnumE
   fun:_ZN11ModuleEntry22restore_growable_arrayEP5ArrayIPS_E
   fun:_ZN17PackageEntryTable21load_archived_entriesEP5ArrayIP12PackageEntryE
   fun:_ZN21ClassLoaderDataShared39restore_java_system_loader_from_archiveEP15ClassLoaderData
   fun:JVM_DefineArchivedModules
   obj:*
   obj:*
   obj:*
   obj:*
   fun:_ZN9JavaCalls11call_helperEP9JavaValueRK12methodHandleP17JavaCallArgumentsP10JavaThread
}

{
   <insert_a_suppression_name_here>
   Memcheck:Leak
   match-leak-kinds: reachable
   fun:malloc
   fun:_ZN2os6mallocEm8MEMFLAGSRK15NativeCallStack
   fun:_Z12AllocateHeapm8MEMFLAGSN17AllocFailStrategy13AllocFailEnumE
   fun:_ZN11ModuleEntry22restore_growable_arrayEP5ArrayIPS_E
   fun:_ZN17PackageEntryTable21load_archived_entriesEP5ArrayIP12PackageEntryE
   fun:_ZN21ClassLoaderDataShared41restore_java_platform_loader_from_archiveEP15ClassLoaderData
   fun:_ZN7Modules23define_archived_modulesE6HandleS0_P10JavaThread
   fun:JVM_DefineArchivedModules
   obj:*
   obj:*
   obj:*
   obj:*
}

{
   <insert_a_suppression_name_here>
   Memcheck:Leak
   match-leak-kinds: reachable
   fun:malloc
   fun:_ZN2os6mallocEm8MEMFLAGSRK15NativeCallStack
   fun:_Z12AllocateHeapm8MEMFLAGSN17AllocFailStrategy13AllocFailEnumE
   fun:_ZN11ModuleEntry22restore_growable_arrayEP5ArrayIPS_E
   fun:_ZN17PackageEntryTable21load_archived_entriesEP5ArrayIP12PackageEntryE
   fun:_ZN21ClassLoaderDataShared9serializeEP16SerializeClosure
   fun:_ZN15MetaspaceShared9serializeEP16SerializeClosure
   fun:_ZN15MetaspaceShared24initialize_shared_spacesEv
   fun:_Z13universe_initv
   fun:_Z12init_globalsv
   fun:_ZN7Threads9create_vmEP14JavaVMInitArgsPb
   fun:JNI_CreateJavaVM
}

{
   <insert_a_suppression_name_here>
   Memcheck:Leak
   match-leak-kinds: reachable
   fun:malloc
   fun:_ZN2os6mallocEm8MEMFLAGSRK15NativeCallStack
   fun:_Z12AllocateHeapm8MEMFLAGSN17AllocFailStrategy13AllocFailEnumE
   fun:_ZN11ModuleEntry24new_unnamed_module_entryE6HandleP15ClassLoaderData
   fun:_ZN11ModuleEntry21create_unnamed_moduleEP15ClassLoaderData
   fun:_ZN15ClassLoaderDataC1E6Handleb
   fun:_ZN20ClassLoaderDataGraph12add_to_graphE6Handleb
   fun:_ZN20ClassLoaderDataGraph3addE6Handleb
   fun:_ZN7Modules23define_archived_modulesE6HandleS0_P10JavaThread
   fun:JVM_DefineArchivedModules
   obj:*
   obj:*
}

{
   <insert_a_suppression_name_here>
   Memcheck:Leak
   match-leak-kinds: reachable
   fun:malloc
   fun:_ZN2os6mallocEm8MEMFLAGSRK15NativeCallStack
   fun:_Z12AllocateHeapm8MEMFLAGSN17AllocFailStrategy13AllocFailEnumE
   fun:_ZN11ModuleEntry26create_boot_unnamed_moduleEP15ClassLoaderData
   fun:_ZN15ClassLoaderData27init_null_class_loader_dataEv
   fun:_Z13universe_initv
   fun:_Z12init_globalsv
   fun:_ZN7Threads9create_vmEP14JavaVMInitArgsPb
   fun:JNI_CreateJavaVM
   fun:JavaMain
   fun:ThreadJavaMain
   fun:start_thread
}

{
   <insert_a_suppression_name_here>
   Memcheck:Leak
   match-leak-kinds: reachable
   fun:malloc
   fun:_ZN2os6mallocEm8MEMFLAGSRK15NativeCallStack
   fun:_Z12AllocateHeapm8MEMFLAGSN17AllocFailStrategy13AllocFailEnumE
   fun:_ZN11NamedThread8set_nameEPKcz
   fun:_ZN13WorkerThreads13create_workerEj
   fun:_ZN13WorkerThreads18initialize_workersEv
   fun:_ZN15G1CollectedHeap10initializeEv
   fun:_Z13universe_initv
   fun:_Z12init_globalsv
   fun:_ZN7Threads9create_vmEP14JavaVMInitArgsPb
   fun:JNI_CreateJavaVM
   fun:JavaMain
}

{
   <insert_a_suppression_name_here>
   Memcheck:Leak
   match-leak-kinds: reachable
   fun:malloc
   fun:_ZN2os6mallocEm8MEMFLAGSRK15NativeCallStack
   fun:_Z12AllocateHeapm8MEMFLAGSN17AllocFailStrategy13AllocFailEnumE
   fun:_ZN11NamedThread8set_nameEPKcz
   fun:_ZN13WorkerThreads13create_workerEj
   fun:_ZN13WorkerThreads18initialize_workersEv
   fun:_ZN16G1ConcurrentMarkC1EP15G1CollectedHeapP21G1RegionToSpaceMapper
   fun:_ZN15G1CollectedHeap10initializeEv
   fun:_Z13universe_initv
   fun:_Z12init_globalsv
   fun:_ZN7Threads9create_vmEP14JavaVMInitArgsPb
   fun:JNI_CreateJavaVM
}

{
   <insert_a_suppression_name_here>
   Memcheck:Leak
   match-leak-kinds: reachable
   fun:malloc
   fun:_ZN2os6mallocEm8MEMFLAGSRK15NativeCallStack
   fun:_Z12AllocateHeapm8MEMFLAGSN17AllocFailStrategy13AllocFailEnumE
   fun:_ZN11NamedThread8set_nameEPKcz
   fun:_ZN13WorkerThreads13create_workerEj
   fun:_ZN13WorkerThreads18set_active_workersEj
   fun:_ZN16G1YoungCollector7collectEv
   fun:_ZN15G1CollectedHeap39do_collection_pause_at_safepoint_helperEv
   fun:_ZN15G1CollectedHeap32do_collection_pause_at_safepointEv
   fun:_ZN25VM_G1CollectForAllocation4doitEv
   fun:_ZN12VM_Operation8evaluateEv
   fun:_ZN8VMThread18evaluate_operationEP12VM_Operation
}

{
   <insert_a_suppression_name_here>
   Memcheck:Leak
   match-leak-kinds: reachable
   fun:malloc
   fun:_ZN2os6mallocEm8MEMFLAGSRK15NativeCallStack
   fun:_Z12AllocateHeapm8MEMFLAGSN17AllocFailStrategy13AllocFailEnumE
   fun:_ZN11NamedThread8set_nameEPKcz
   fun:_ZN15G1ServiceThreadC1Ev
   fun:_ZN15G1CollectedHeap10initializeEv
   fun:_Z13universe_initv
   fun:_Z12init_globalsv
   fun:_ZN7Threads9create_vmEP14JavaVMInitArgsPb
   fun:JNI_CreateJavaVM
   fun:JavaMain
   fun:ThreadJavaMain
}

{
   <insert_a_suppression_name_here>
   Memcheck:Leak
   match-leak-kinds: reachable
   fun:malloc
   fun:_ZN2os6mallocEm8MEMFLAGSRK15NativeCallStack
   fun:_Z12AllocateHeapm8MEMFLAGSN17AllocFailStrategy13AllocFailEnumE
   fun:_ZN11NamedThread8set_nameEPKcz
   fun:_ZN22G1ConcurrentMarkThreadC1EP16G1ConcurrentMark
   fun:_ZN16G1ConcurrentMarkC1EP15G1CollectedHeapP21G1RegionToSpaceMapper
   fun:_ZN15G1CollectedHeap10initializeEv
   fun:_Z13universe_initv
   fun:_Z12init_globalsv
   fun:_ZN7Threads9create_vmEP14JavaVMInitArgsPb
   fun:JNI_CreateJavaVM
   fun:JavaMain
}

{
   <insert_a_suppression_name_here>
   Memcheck:Leak
   match-leak-kinds: reachable
   fun:malloc
   fun:_ZN2os6mallocEm8MEMFLAGSRK15NativeCallStack
   fun:_Z12AllocateHeapm8MEMFLAGSN17AllocFailStrategy13AllocFailEnumE
   fun:_ZN11NamedThread8set_nameEPKcz
   fun:_ZN24G1ConcurrentRefineThread6createEP18G1ConcurrentRefinej
   fun:_ZN31G1ConcurrentRefineThreadControl10initializeEP18G1ConcurrentRefinej
   fun:_ZN18G1ConcurrentRefine6createEP8G1PolicyPi
   fun:_ZN15G1CollectedHeap10initializeEv
   fun:_Z13universe_initv
   fun:_Z12init_globalsv
   fun:_ZN7Threads9create_vmEP14JavaVMInitArgsPb
   fun:JNI_CreateJavaVM
}

{
   <insert_a_suppression_name_here>
   Memcheck:Leak
   match-leak-kinds: reachable
   fun:malloc
   fun:_ZN2os6mallocEm8MEMFLAGSRK15NativeCallStack
   fun:_Z12AllocateHeapm8MEMFLAGSN17AllocFailStrategy13AllocFailEnumE
   fun:_ZN11NamedThread8set_nameEPKcz
   fun:_ZN8VMThread6createEv
   fun:_ZN7Threads9create_vmEP14JavaVMInitArgsPb
   fun:JNI_CreateJavaVM
   fun:JavaMain
   fun:ThreadJavaMain
   fun:start_thread
   fun:clone
}

{
   <insert_a_suppression_name_here>
   Memcheck:Leak
   match-leak-kinds: reachable
   fun:malloc
   fun:_ZN2os6mallocEm8MEMFLAGSRK15NativeCallStack
   fun:_Z12AllocateHeapm8MEMFLAGSN17AllocFailStrategy13AllocFailEnumE
   fun:_ZN11OopMapCache6lookupERK12methodHandleiP17InterpreterOopMap
   fun:_ZN6Method8mask_forEiP17InterpreterOopMap
   fun:_ZNK17interpretedVFrame10stack_dataEb
   fun:JVM_GetStackAccessControlContext
   obj:*
   obj:*
   obj:*
   obj:*
   obj:*
}

{
   <insert_a_suppression_name_here>
   Memcheck:Leak
   match-leak-kinds: reachable
   fun:malloc
   fun:_ZN2os6mallocEm8MEMFLAGSRK15NativeCallStack
   fun:_Z12AllocateHeapm8MEMFLAGSN17AllocFailStrategy13AllocFailEnumE
   fun:_ZN11OopMapCache6lookupERK12methodHandleiP17InterpreterOopMap
   fun:_ZNK5frame19oops_interpreted_doEP10OopClosurePK11RegisterMapb
   fun:_ZN10JavaThread14oops_do_framesEP10OopClosureP15CodeBlobClosure.part.0
   fun:_ZN6Thread7oops_doEP10OopClosureP15CodeBlobClosure
   fun:_ZN7Threads25possibly_parallel_oops_doEbP10OopClosureP15CodeBlobClosure
   fun:_ZN15G1RootProcessor18process_java_rootsEP14G1RootClosuresP14G1GCPhaseTimesj
   fun:_ZN15G1RootProcessor14evacuate_rootsEP20G1ParScanThreadStatej
   fun:_ZN21G1EvacuateRegionsTask10scan_rootsEP20G1ParScanThreadStatej
   fun:_ZN25G1EvacuateRegionsBaseTask4workEj
}

{
   <insert_a_suppression_name_here>
   Memcheck:Leak
   match-leak-kinds: reachable
   fun:malloc
   fun:_ZN2os6mallocEm8MEMFLAGSRK15NativeCallStack
   fun:_Z12AllocateHeapm8MEMFLAGSN17AllocFailStrategy13AllocFailEnumE
   fun:_ZN11StringDedup9Processor18initialize_storageEv
   fun:_ZN11StringDedup10initializeEv
   fun:_ZN13CollectedHeap15post_initializeEv
   fun:_ZN15G1CollectedHeap15post_initializeEv
   fun:_Z18universe_post_initv
   fun:_Z13init_globals2v
   fun:_ZN7Threads9create_vmEP14JavaVMInitArgsPb
   fun:JNI_CreateJavaVM
   fun:JavaMain
}

{
   <insert_a_suppression_name_here>
   Memcheck:Leak
   match-leak-kinds: reachable
   fun:malloc
   fun:_ZN2os6mallocEm8MEMFLAGSRK15NativeCallStack
   fun:_Z12AllocateHeapm8MEMFLAGSN17AllocFailStrategy13AllocFailEnumE
   fun:_ZN11StringTable12create_tableEv
   fun:_Z13universe_initv
   fun:_Z12init_globalsv
   fun:_ZN7Threads9create_vmEP14JavaVMInitArgsPb
   fun:JNI_CreateJavaVM
   fun:JavaMain
   fun:ThreadJavaMain
   fun:start_thread
   fun:clone
}

{
   <insert_a_suppression_name_here>
   Memcheck:Leak
   match-leak-kinds: reachable
   fun:malloc
   fun:_ZN2os6mallocEm8MEMFLAGSRK15NativeCallStack
   fun:_Z12AllocateHeapm8MEMFLAGSN17AllocFailStrategy13AllocFailEnumE
   fun:_ZN11StringTable9do_internE6HandlePKtimP10JavaThread
   fun:_ZN11StringTable6internEP6SymbolP10JavaThread
   fun:_ZN10Reflection10new_methodERK12methodHandlebP10JavaThread
   fun:_ZL33get_class_declared_methods_helperP7JNIEnv_P7_jclasshbP5KlassP10JavaThread.constprop.0
   fun:JVM_GetClassDeclaredMethods
   obj:*
   obj:*
   obj:*
   obj:*
}

{
   <insert_a_suppression_name_here>
   Memcheck:Leak
   match-leak-kinds: reachable
   fun:malloc
   fun:_ZN2os6mallocEm8MEMFLAGSRK15NativeCallStack
   fun:_Z12AllocateHeapm8MEMFLAGSN17AllocFailStrategy13AllocFailEnumE
   fun:_ZN11StringTable9do_internE6HandlePKtimP10JavaThread
   fun:_ZN11StringTable6internEP6SymbolP10JavaThread
   fun:_ZN10Reflection9new_fieldEP15fieldDescriptorP10JavaThread
   fun:JVM_GetClassDeclaredFields
   obj:*
   obj:*
   obj:*
   obj:*
   obj:*
}

{
   <insert_a_suppression_name_here>
   Memcheck:Leak
   match-leak-kinds: reachable
   fun:malloc
   fun:_ZN2os6mallocEm8MEMFLAGSRK15NativeCallStack
   fun:_Z12AllocateHeapm8MEMFLAGSN17AllocFailStrategy13AllocFailEnumE
   fun:_ZN11StringTable9do_internE6HandlePKtimP10JavaThread
   fun:_ZN11StringTable6internEP6SymbolP10JavaThread
   fun:_ZN12ConstantPool14string_at_implERK18constantPoolHandleiiP10JavaThread
   fun:_ZN12ConstantPool24resolve_constant_at_implERK18constantPoolHandleiiPbP10JavaThread
   fun:_ZN12ConstantPool32copy_bootstrap_arguments_at_implERK18constantPoolHandleiii14objArrayHandleib6HandleP10JavaThread
   fun:_ZN13BootstrapInfo12resolve_argsEP10JavaThread
   fun:_ZN13BootstrapInfo11resolve_bsmEP10JavaThread
   fun:_ZN16SystemDictionary23invoke_bootstrap_methodER13BootstrapInfoP10JavaThread
   fun:_ZN12LinkResolver20resolve_dynamic_callER8CallInfoR13BootstrapInfoP10JavaThread
}

{
   <insert_a_suppression_name_here>
   Memcheck:Leak
   match-leak-kinds: reachable
   fun:malloc
   fun:_ZN2os6mallocEm8MEMFLAGSRK15NativeCallStack
   fun:_Z12AllocateHeapm8MEMFLAGSN17AllocFailStrategy13AllocFailEnumE
   fun:_ZN11StringTable9do_internE6HandlePKtimP10JavaThread
   fun:_ZN11StringTable6internEP6SymbolP10JavaThread
   fun:_ZN12ConstantPool14string_at_implERK18constantPoolHandleiiP10JavaThread
   fun:_ZN12ConstantPool24resolve_constant_at_implERK18constantPoolHandleiiPbP10JavaThread
   fun:_ZNK21Bytecode_loadconstant16resolve_constantEP10JavaThread
   fun:_ZN18InterpreterRuntime11resolve_ldcEP10JavaThreadN9Bytecodes4CodeE
   obj:*
   obj:*
   fun:_ZN9JavaCalls11call_helperEP9JavaValueRK12methodHandleP17JavaCallArgumentsP10JavaThread
}

{
   <insert_a_suppression_name_here>
   Memcheck:Leak
   match-leak-kinds: reachable
   fun:malloc
   fun:_ZN2os6mallocEm8MEMFLAGSRK15NativeCallStack
   fun:_Z12AllocateHeapm8MEMFLAGSN17AllocFailStrategy13AllocFailEnumE
   fun:_ZN11StringTable9do_internE6HandlePKtimP10JavaThread
   fun:_ZN11StringTable6internEP6SymbolP10JavaThread
   fun:_ZN12ConstantPool14string_at_implERK18constantPoolHandleiiP10JavaThread
   fun:_ZN12ConstantPool24resolve_constant_at_implERK18constantPoolHandleiiPbP10JavaThread
   fun:_ZNK21Bytecode_loadconstant16resolve_constantEP10JavaThread
   fun:_ZN18InterpreterRuntime11resolve_ldcEP10JavaThreadN9Bytecodes4CodeE
   obj:*
   obj:*
   obj:*
}

{
   <insert_a_suppression_name_here>
   Memcheck:Leak
   match-leak-kinds: reachable
   fun:malloc
   fun:_ZN2os6mallocEm8MEMFLAGSRK15NativeCallStack
   fun:_Z12AllocateHeapm8MEMFLAGSN17AllocFailStrategy13AllocFailEnumE
   fun:_ZN11StringTable9do_internE6HandlePKtimP10JavaThread
   fun:_ZN11StringTable6internEP6SymbolP10JavaThread
   fun:_ZN12ConstantPool18uncached_string_atEiP10JavaThread
   fun:_ZL23initialize_static_fieldP15fieldDescriptor6HandleP10JavaThread
   fun:_ZN13InstanceKlass22do_local_static_fieldsEPFvP15fieldDescriptor6HandleP10JavaThreadES2_S4_
   fun:_ZN15java_lang_Class24initialize_mirror_fieldsEP5Klass6HandleS2_S2_P10JavaThread
   fun:_ZN15java_lang_Class15allocate_mirrorEP5Klassb6HandleS2_RS2_S3_P10JavaThread
   fun:_ZN15java_lang_Class13create_mirrorEP5Klass6HandleS2_S2_S2_P10JavaThread
   fun:_ZN15ClassFileParser19fill_instance_klassEP13InstanceKlassbRK17ClassInstanceInfoP10JavaThread
}

{
   <insert_a_suppression_name_here>
   Memcheck:Leak
   match-leak-kinds: reachable
   fun:malloc
   fun:_ZN2os6mallocEm8MEMFLAGSRK15NativeCallStack
   fun:_Z12AllocateHeapm8MEMFLAGSN17AllocFailStrategy13AllocFailEnumE
   fun:_ZN11StringTable9do_internE6HandlePKtimP10JavaThread
   fun:_ZN11StringTable6internEP7oopDescP10JavaThread
   fun:JVM_InternString
   obj:*
   obj:*
   obj:*
   fun:_ZN9JavaCalls11call_helperEP9JavaValueRK12methodHandleP17JavaCallArgumentsP10JavaThread
   fun:_ZN9JavaCalls11call_staticEP9JavaValueP5KlassP6SymbolS5_P17JavaCallArgumentsP10JavaThread
   fun:_ZN16SystemDictionary23invoke_bootstrap_methodER13BootstrapInfoP10JavaThread
}

{
   <insert_a_suppression_name_here>
   Memcheck:Leak
   match-leak-kinds: reachable
   fun:malloc
   fun:_ZN2os6mallocEm8MEMFLAGSRK15NativeCallStack
   fun:_Z12AllocateHeapm8MEMFLAGSN17AllocFailStrategy13AllocFailEnumE
   fun:_ZN11StringTable9do_internE6HandlePKtimP10JavaThread
   fun:_ZN11StringTable6internEP7oopDescP10JavaThread
   fun:JVM_InternString
   obj:*
   obj:*
   obj:*
   obj:*
   obj:*
   obj:*
}

{
   <insert_a_suppression_name_here>
   Memcheck:Leak
   match-leak-kinds: reachable
   fun:malloc
   fun:_ZN2os6mallocEm8MEMFLAGSRK15NativeCallStack
   fun:_Z12AllocateHeapm8MEMFLAGSN17AllocFailStrategy13AllocFailEnumE
   fun:_ZN11StringTable9do_internE6HandlePKtimP10JavaThread
   fun:_ZN11StringTable6internEPKcP10JavaThread
   fun:_ZN15java_lang_Class4nameE6HandleP10JavaThread
   fun:JVM_InitClassName
   obj:*
   obj:*
   obj:*
   obj:*
   obj:*
}

{
   <insert_a_suppression_name_here>
   Memcheck:Leak
   match-leak-kinds: reachable
   fun:malloc
   fun:_ZN2os6mallocEm8MEMFLAGSRK15NativeCallStack
   fun:_Z12AllocateHeapm8MEMFLAGSN17AllocFailStrategy13AllocFailEnumE
   fun:_ZN11StringTable9do_internE6HandlePKtimP10JavaThread
   fun:_ZN11StringTable6internEPKcP10JavaThread
   fun:_ZN8Universe7genesisEP10JavaThread
   fun:_Z14universe2_initv
   fun:_Z13init_globals2v
   fun:_ZN7Threads9create_vmEP14JavaVMInitArgsPb
   fun:JNI_CreateJavaVM
   fun:JavaMain
   fun:ThreadJavaMain
}

{
   <insert_a_suppression_name_here>
   Memcheck:Leak
   match-leak-kinds: reachable
   fun:malloc
   fun:_ZN2os6mallocEm8MEMFLAGSRK15NativeCallStack
   fun:_Z12AllocateHeapm8MEMFLAGSN17AllocFailStrategy13AllocFailEnumE
   fun:_ZN11SymbolTable12create_tableEv
   fun:_Z13universe_initv
   fun:_Z12init_globalsv
   fun:_ZN7Threads9create_vmEP14JavaVMInitArgsPb
   fun:JNI_CreateJavaVM
   fun:JavaMain
   fun:ThreadJavaMain
   fun:start_thread
   fun:clone
}

{
   <insert_a_suppression_name_here>
   Memcheck:Leak
   match-leak-kinds: reachable
   fun:malloc
   fun:_ZN2os6mallocEm8MEMFLAGSRK15NativeCallStack
   fun:_Z12AllocateHeapm8MEMFLAGSN17AllocFailStrategy13AllocFailEnumE
   fun:_ZN11SymbolTable16do_add_if_neededEPKcimb
   fun:JVM_FindClassFromCaller
   fun:Java_java_lang_Class_forName0
   obj:*
   obj:*
   obj:*
   obj:*
   obj:*
   fun:_ZN9JavaCalls11call_helperEP9JavaValueRK12methodHandleP17JavaCallArgumentsP10JavaThread
}

{
   <insert_a_suppression_name_here>
   Memcheck:Leak
   match-leak-kinds: reachable
   fun:malloc
   fun:_ZN2os6mallocEm8MEMFLAGSRK15NativeCallStack
   fun:_Z12AllocateHeapm8MEMFLAGSN17AllocFailStrategy13AllocFailEnumE
   fun:_ZN11SymbolTable16do_add_if_neededEPKcimb
   fun:JVM_FindClassFromCaller
   fun:Java_java_lang_Class_forName0
   obj:*
   obj:*
   obj:*
   obj:*
   obj:*
   obj:*
}

{
   <insert_a_suppression_name_here>
   Memcheck:Leak
   match-leak-kinds: reachable
   fun:malloc
   fun:_ZN2os6mallocEm8MEMFLAGSRK15NativeCallStack
   fun:_Z12AllocateHeapm8MEMFLAGSN17AllocFailStrategy13AllocFailEnumE
   fun:_ZN11SymbolTable16do_add_if_neededEPKcimb
   fun:_ZL23jvm_lookup_define_classP7_jclassPKcPKaiP8_jobjecthiS6_P10JavaThread
   fun:JVM_LookupDefineClass
   fun:Java_java_lang_ClassLoader_defineClass0
   obj:*
   obj:*
   obj:*
   obj:*
   obj:*
}

{
   <insert_a_suppression_name_here>
   Memcheck:Leak
   match-leak-kinds: reachable
   fun:malloc
   fun:_ZN2os6mallocEm8MEMFLAGSRK15NativeCallStack
   fun:_Z12AllocateHeapm8MEMFLAGSN17AllocFailStrategy13AllocFailEnumE
   fun:_ZN11SymbolTable16do_add_if_neededEPKcimb
   fun:_ZN11SymbolTable11new_symbolsEP15ClassLoaderDataRK18constantPoolHandleiPPKcPiS8_Pj
   fun:_ZN15ClassFileParser27parse_constant_pool_entriesEPK15ClassFileStreamP12ConstantPooliP10JavaThread
   fun:_ZN15ClassFileParser12parse_streamEPK15ClassFileStreamP10JavaThread.part.0
   fun:_ZN15ClassFileParserC1EP15ClassFileStreamP6SymbolP15ClassLoaderDataPK13ClassLoadInfoNS_9PublicityEP10JavaThread
   fun:_ZN12KlassFactory18create_from_streamEP15ClassFileStreamP6SymbolP15ClassLoaderDataRK13ClassLoadInfoP10JavaThread
   fun:_ZN16SystemDictionary19resolve_from_streamEP15ClassFileStreamP6Symbol6HandleRK13ClassLoadInfoP10JavaThread
   fun:_ZL23jvm_lookup_define_classP7_jclassPKcPKaiP8_jobjecthiS6_P10JavaThread
   fun:JVM_LookupDefineClass
}

{
   <insert_a_suppression_name_here>
   Memcheck:Leak
   match-leak-kinds: reachable
   fun:malloc
   fun:_ZN2os6mallocEm8MEMFLAGSRK15NativeCallStack
   fun:_Z12AllocateHeapm8MEMFLAGSN17AllocFailStrategy13AllocFailEnumE
   fun:_ZN11SymbolTable16do_add_if_neededEPKcimb
   fun:_ZN11SymbolTable11new_symbolsEP15ClassLoaderDataRK18constantPoolHandleiPPKcPiS8_Pj
   fun:_ZN15ClassFileParser27parse_constant_pool_entriesEPK15ClassFileStreamP12ConstantPooliP10JavaThread
   fun:_ZN15ClassFileParser12parse_streamEPK15ClassFileStreamP10JavaThread.part.0
   fun:_ZN15ClassFileParserC1EP15ClassFileStreamP6SymbolP15ClassLoaderDataPK13ClassLoadInfoNS_9PublicityEP10JavaThread
   fun:_ZN12KlassFactory18create_from_streamEP15ClassFileStreamP6SymbolP15ClassLoaderDataRK13ClassLoadInfoP10JavaThread
   fun:_ZN16SystemDictionary25resolve_class_from_streamEP15ClassFileStreamP6Symbol6HandleRK13ClassLoadInfoP10JavaThread
   fun:_ZL23jvm_define_class_commonPKcP8_jobjectPKaiS2_S0_P10JavaThread
   fun:JVM_DefineClassWithSource
}

{
   <insert_a_suppression_name_here>
   Memcheck:Leak
   match-leak-kinds: reachable
   fun:malloc
   fun:_ZN2os6mallocEm8MEMFLAGSRK15NativeCallStack
   fun:_Z12AllocateHeapm8MEMFLAGSN17AllocFailStrategy13AllocFailEnumE
   fun:_ZN11SymbolTable16do_add_if_neededEPKcimb
   fun:_ZN13MethodHandles27lookup_basic_type_signatureEP6Symbolb
   fun:_ZN12LinkResolver25lookup_polymorphic_methodERK8LinkInfoP6HandleP10JavaThread
   fun:_ZN12LinkResolver14resolve_methodERK8LinkInfoN9Bytecodes4CodeEP10JavaThread
   fun:_ZN12LinkResolver19resolve_static_callER8CallInfoRK8LinkInfobP10JavaThread
   fun:_ZN12LinkResolver14resolve_invokeER8CallInfo6HandleRK18constantPoolHandleiN9Bytecodes4CodeEP10JavaThread
   fun:_ZN18InterpreterRuntime14resolve_invokeEP10JavaThreadN9Bytecodes4CodeE
   fun:_ZN18InterpreterRuntime18resolve_from_cacheEP10JavaThreadN9Bytecodes4CodeE
   obj:*
}

{
   <insert_a_suppression_name_here>
   Memcheck:Leak
   match-leak-kinds: reachable
   fun:malloc
   fun:_ZN2os6mallocEm8MEMFLAGSRK15NativeCallStack
   fun:_Z12AllocateHeapm8MEMFLAGSN17AllocFailStrategy13AllocFailEnumE
   fun:_ZN11SymbolTable16do_add_if_neededEPKcimb
   fun:_ZN13ObjArrayKlass23allocate_objArray_klassEP15ClassLoaderDataiP5KlassP10JavaThread
   fun:_ZN13InstanceKlass11array_klassEiP10JavaThread
   fun:_ZN13InstanceKlass17allocate_objArrayEiiP10JavaThread
   fun:_ZN19CDSProtectionDomain34allocate_shared_jar_manifest_arrayEiP10JavaThread
   fun:_ZN15MetaspaceShared15post_initializeEP10JavaThread
   fun:_Z18universe_post_initv
   fun:_Z13init_globals2v
   fun:_ZN7Threads9create_vmEP14JavaVMInitArgsPb
}

{
   <insert_a_suppression_name_here>
   Memcheck:Leak
   match-leak-kinds: reachable
   fun:malloc
   fun:_ZN2os6mallocEm8MEMFLAGSRK15NativeCallStack
   fun:_Z12AllocateHeapm8MEMFLAGSN17AllocFailStrategy13AllocFailEnumE
   fun:_ZN11SymbolTable16do_add_if_neededEPKcimb
   fun:_ZN13ObjArrayKlass23allocate_objArray_klassEP15ClassLoaderDataiP5KlassP10JavaThread
   fun:_ZN13InstanceKlass11array_klassEiP10JavaThread
   fun:_ZN13ObjArrayKlass23allocate_objArray_klassEP15ClassLoaderDataiP5KlassP10JavaThread
   fun:_ZN13InstanceKlass11array_klassEiP10JavaThread
   fun:_ZN13InstanceKlass17allocate_objArrayEiiP10JavaThread
   fun:_ZN18InterpreterRuntime9anewarrayEP10JavaThreadP12ConstantPoolii
   obj:*
   obj:*
}

{
   <insert_a_suppression_name_here>
   Memcheck:Leak
   match-leak-kinds: reachable
   fun:malloc
   fun:_ZN2os6mallocEm8MEMFLAGSRK15NativeCallStack
   fun:_Z12AllocateHeapm8MEMFLAGSN17AllocFailStrategy13AllocFailEnumE
   fun:_ZN11SymbolTable16do_add_if_neededEPKcimb
   fun:_ZN13ObjArrayKlass23allocate_objArray_klassEP15ClassLoaderDataiP5KlassP10JavaThread
   fun:_ZN13InstanceKlass11array_klassEiP10JavaThread
   fun:_ZN13ObjArrayKlass23allocate_objArray_klassEP15ClassLoaderDataiP5KlassP10JavaThread
   fun:_ZN13InstanceKlass11array_klassEiP10JavaThread
   fun:_ZN13ObjArrayKlass23allocate_objArray_klassEP15ClassLoaderDataiP5KlassP10JavaThread
   fun:_ZN13InstanceKlass11array_klassEiP10JavaThread
   fun:_ZN13InstanceKlass17allocate_objArrayEiiP10JavaThread
   fun:_ZN18InterpreterRuntime9anewarrayEP10JavaThreadP12ConstantPoolii
}

{
   <insert_a_suppression_name_here>
   Memcheck:Leak
   match-leak-kinds: reachable
   fun:malloc
   fun:_ZN2os6mallocEm8MEMFLAGSRK15NativeCallStack
   fun:_Z12AllocateHeapm8MEMFLAGSN17AllocFailStrategy13AllocFailEnumE
   fun:_ZN11SymbolTable16do_add_if_neededEPKcimb
   fun:_ZN13ObjArrayKlass23allocate_objArray_klassEP15ClassLoaderDataiP5KlassP10JavaThread
   fun:_ZN13InstanceKlass11array_klassEiP10JavaThread
   fun:_ZN13ObjArrayKlass23allocate_objArray_klassEP15ClassLoaderDataiP5KlassP10JavaThread
   fun:_ZN13InstanceKlass11array_klassEiP10JavaThread
   fun:_ZN13ObjArrayKlass23allocate_objArray_klassEP15ClassLoaderDataiP5KlassP10JavaThread
   fun:_ZN13InstanceKlass11array_klassEiP10JavaThread
   fun:_ZN13ObjArrayKlass23allocate_objArray_klassEP15ClassLoaderDataiP5KlassP10JavaThread
   fun:_ZN13InstanceKlass11array_klassEiP10JavaThread
}

{
   <insert_a_suppression_name_here>
   Memcheck:Leak
   match-leak-kinds: reachable
   fun:malloc
   fun:_ZN2os6mallocEm8MEMFLAGSRK15NativeCallStack
   fun:_Z12AllocateHeapm8MEMFLAGSN17AllocFailStrategy13AllocFailEnumE
   fun:_ZN11SymbolTable16do_add_if_neededEPKcimb
   fun:_ZN15ClassFileParser24mangle_hidden_class_nameEP13InstanceKlass
   fun:_ZN15ClassFileParser21create_instance_klassEbRK17ClassInstanceInfoP10JavaThread
   fun:_ZN12KlassFactory18create_from_streamEP15ClassFileStreamP6SymbolP15ClassLoaderDataRK13ClassLoadInfoP10JavaThread
   fun:_ZN16SystemDictionary19resolve_from_streamEP15ClassFileStreamP6Symbol6HandleRK13ClassLoadInfoP10JavaThread
   fun:_ZL23jvm_lookup_define_classP7_jclassPKcPKaiP8_jobjecthiS6_P10JavaThread
   fun:JVM_LookupDefineClass
   fun:Java_java_lang_ClassLoader_defineClass0
   obj:*
}

{
   <insert_a_suppression_name_here>
   Memcheck:Leak
   match-leak-kinds: reachable
   fun:malloc
   fun:_ZN2os6mallocEm8MEMFLAGSRK15NativeCallStack
   fun:_Z12AllocateHeapm8MEMFLAGSN17AllocFailStrategy13AllocFailEnumE
   fun:_ZN11SymbolTable16do_add_if_neededEPKcimb
   fun:_ZN15ClassLoaderData15initialize_nameE6Handle
   fun:_ZN15ClassLoaderDataC1E6Handleb
   fun:_ZN20ClassLoaderDataGraph12add_to_graphE6Handleb
   fun:_ZN20ClassLoaderDataGraph3addE6Handleb
   fun:_ZN7Modules23define_archived_modulesE6HandleS0_P10JavaThread
   fun:JVM_DefineArchivedModules
   obj:*
   obj:*
}

{
   <insert_a_suppression_name_here>
   Memcheck:Leak
   match-leak-kinds: reachable
   fun:malloc
   fun:_ZN2os6mallocEm8MEMFLAGSRK15NativeCallStack
   fun:_Z12AllocateHeapm8MEMFLAGSN17AllocFailStrategy13AllocFailEnumE
   fun:_ZN11SymbolTable16do_add_if_neededEPKcimb
   fun:_ZN15SignatureStream11find_symbolEv
   fun:_ZN13ClassVerifier19translate_signatureEP6SymbolP25sig_as_verification_types
   fun:_ZN13ClassVerifier23create_method_sig_entryEP25sig_as_verification_typesi
   fun:_ZN13ClassVerifier26verify_invoke_instructionsEP17RawBytecodeStreamjP13StackMapFramebPb16VerificationTypeRK18constantPoolHandleP13StackMapTableP10JavaThread
   fun:_ZN13ClassVerifier13verify_methodERK12methodHandleP10JavaThread
   fun:_ZN13ClassVerifier12verify_classEP10JavaThread
   fun:_ZN8Verifier6verifyEP13InstanceKlassbP10JavaThread
   fun:_ZN13InstanceKlass15link_class_implEP10JavaThread
}

{
   <insert_a_suppression_name_here>
   Memcheck:Leak
   match-leak-kinds: reachable
   fun:malloc
   fun:_ZN2os6mallocEm8MEMFLAGSRK15NativeCallStack
   fun:_Z12AllocateHeapm8MEMFLAGSN17AllocFailStrategy13AllocFailEnumE
   fun:_ZN11SymbolTable16do_add_if_neededEPKcimb
   fun:_ZN15SignatureStream11find_symbolEv
   fun:_ZN13StackMapFrame19set_locals_from_argERK12methodHandle16VerificationType
   fun:_ZN13ClassVerifier13verify_methodERK12methodHandleP10JavaThread
   fun:_ZN13ClassVerifier12verify_classEP10JavaThread
   fun:_ZN8Verifier6verifyEP13InstanceKlassbP10JavaThread
   fun:_ZN13InstanceKlass15link_class_implEP10JavaThread
   fun:_ZN13InstanceKlass15initialize_implEP10JavaThread
   fun:_ZN18InterpreterRuntime4_newEP10JavaThreadP12ConstantPooli
}

{
   <insert_a_suppression_name_here>
   Memcheck:Leak
   match-leak-kinds: reachable
   fun:malloc
   fun:_ZN2os6mallocEm8MEMFLAGSRK15NativeCallStack
   fun:_Z12AllocateHeapm8MEMFLAGSN17AllocFailStrategy13AllocFailEnumE
   fun:_ZN11SymbolTable16do_add_if_neededEPKcimb
   fun:_ZN16SystemDictionary24load_instance_class_implEP6Symbol6HandleP10JavaThread
   fun:_ZN16SystemDictionary19load_instance_classEP6Symbol6HandleP10JavaThread
   fun:_ZN16SystemDictionary30resolve_instance_class_or_nullEP6Symbol6HandleS2_P10JavaThread
   fun:JVM_FindClassFromBootLoader
   fun:Java_java_lang_ClassLoader_findBootstrapClass
   obj:*
   obj:*
   obj:*
}

{
   <insert_a_suppression_name_here>
   Memcheck:Leak
   match-leak-kinds: reachable
   fun:malloc
   fun:_ZN2os6mallocEm8MEMFLAGSRK15NativeCallStack
   fun:_Z12AllocateHeapm8MEMFLAGSN17AllocFailStrategy13AllocFailEnumE
   fun:_ZN11SymbolTable16do_add_if_neededEPKcimb
   fun:_ZN19ClassPathImageEntry22open_stream_for_loaderEP10JavaThreadPKcP15ClassLoaderData
   fun:_ZN11ClassLoader10load_classEP6SymbolbP10JavaThread
   fun:_ZN16SystemDictionary24load_instance_class_implEP6Symbol6HandleP10JavaThread
   fun:_ZN16SystemDictionary19load_instance_classEP6Symbol6HandleP10JavaThread
   fun:_ZN16SystemDictionary30resolve_instance_class_or_nullEP6Symbol6HandleS2_P10JavaThread
   fun:JVM_FindClassFromBootLoader
   fun:Java_java_lang_ClassLoader_findBootstrapClass
   obj:*
}

{
   <insert_a_suppression_name_here>
   Memcheck:Leak
   match-leak-kinds: reachable
   fun:malloc
   fun:_ZN2os6mallocEm8MEMFLAGSRK15NativeCallStack
   fun:_Z12AllocateHeapm8MEMFLAGSN17AllocFailStrategy13AllocFailEnumE
   fun:_ZN11SymbolTable16do_add_if_neededEPKcimb
   fun:_ZN19ClassPathImageEntry22open_stream_for_loaderEP10JavaThreadPKcP15ClassLoaderData
   fun:_ZN11ClassLoader10load_classEP6SymbolbP10JavaThread
   fun:_ZN16SystemDictionary24load_instance_class_implEP6Symbol6HandleP10JavaThread
   fun:_ZN16SystemDictionary19load_instance_classEP6Symbol6HandleP10JavaThread
   fun:_ZN16SystemDictionary30resolve_instance_class_or_nullEP6Symbol6HandleS2_P10JavaThread
   fun:_ZN16SystemDictionary15resolve_or_failEP6Symbol6HandleS2_bP10JavaThread
   fun:_Z28find_class_from_class_loaderP7JNIEnv_P6Symbolh6HandleS3_hP10JavaThread
   fun:JVM_FindClassFromCaller
}

{
   <insert_a_suppression_name_here>
   Memcheck:Leak
   match-leak-kinds: reachable
   fun:malloc
   fun:_ZN2os6mallocEm8MEMFLAGSRK15NativeCallStack
   fun:_Z12AllocateHeapm8MEMFLAGSN17AllocFailStrategy13AllocFailEnumE
   fun:_ZN11SymbolTable16do_add_if_neededEPKcimb
   fun:_ZN19ClassPathImageEntry22open_stream_for_loaderEP10JavaThreadPKcP15ClassLoaderData
   fun:_ZN11ClassLoader10load_classEP6SymbolbP10JavaThread
   fun:_ZN16SystemDictionary24load_instance_class_implEP6Symbol6HandleP10JavaThread
   fun:_ZN16SystemDictionary19load_instance_classEP6Symbol6HandleP10JavaThread
   fun:_ZN16SystemDictionary30resolve_instance_class_or_nullEP6Symbol6HandleS2_P10JavaThread
   fun:_ZN16SystemDictionary15resolve_or_failEP6Symbol6HandleS2_bP10JavaThread
   fun:_ZN12ConstantPool13klass_at_implERK18constantPoolHandleiP10JavaThread
   fun:_ZN12ConstantPool12klass_ref_atEiN9Bytecodes4CodeEP10JavaThread
}

{
   <insert_a_suppression_name_here>
   Memcheck:Leak
   match-leak-kinds: reachable
   fun:malloc
   fun:_ZN2os6mallocEm8MEMFLAGSRK15NativeCallStack
   fun:_Z12AllocateHeapm8MEMFLAGSN17AllocFailStrategy13AllocFailEnumE
   fun:_ZN11SymbolTable16do_add_if_neededEPKcimb
   fun:_ZN19ClassPathImageEntry22open_stream_for_loaderEP10JavaThreadPKcP15ClassLoaderData
   fun:_ZN11ClassLoader10load_classEP6SymbolbP10JavaThread
   fun:_ZN16SystemDictionary24load_instance_class_implEP6Symbol6HandleP10JavaThread
   fun:_ZN16SystemDictionary19load_instance_classEP6Symbol6HandleP10JavaThread
   fun:_ZN16SystemDictionary30resolve_instance_class_or_nullEP6Symbol6HandleS2_P10JavaThread
   fun:_ZN16SystemDictionary15resolve_or_failEP6Symbol6HandleS2_bP10JavaThread
   fun:_ZN12ConstantPool13klass_at_implERK18constantPoolHandleiP10JavaThread
   fun:_ZN18InterpreterRuntime3ldcEP10JavaThreadb
}

{
   <insert_a_suppression_name_here>
   Memcheck:Leak
   match-leak-kinds: reachable
   fun:malloc
   fun:_ZN2os6mallocEm8MEMFLAGSRK15NativeCallStack
   fun:_Z12AllocateHeapm8MEMFLAGSN17AllocFailStrategy13AllocFailEnumE
   fun:_ZN11SymbolTable16do_add_if_neededEPKcimb
   fun:_ZN19ClassPathImageEntry22open_stream_for_loaderEP10JavaThreadPKcP15ClassLoaderData
   fun:_ZN11ClassLoader10load_classEP6SymbolbP10JavaThread
   fun:_ZN16SystemDictionary24load_instance_class_implEP6Symbol6HandleP10JavaThread
   fun:_ZN16SystemDictionary19load_instance_classEP6Symbol6HandleP10JavaThread
   fun:_ZN16SystemDictionary30resolve_instance_class_or_nullEP6Symbol6HandleS2_P10JavaThread
   fun:_ZN16SystemDictionary15resolve_or_failEP6Symbol6HandleS2_bP10JavaThread
   fun:_ZN12ConstantPool13klass_at_implERK18constantPoolHandleiP10JavaThread
   fun:_ZN18InterpreterRuntime4_newEP10JavaThreadP12ConstantPooli
}

{
   <insert_a_suppression_name_here>
   Memcheck:Leak
   match-leak-kinds: reachable
   fun:malloc
   fun:_ZN2os6mallocEm8MEMFLAGSRK15NativeCallStack
   fun:_Z12AllocateHeapm8MEMFLAGSN17AllocFailStrategy13AllocFailEnumE
   fun:_ZN11SymbolTable16do_add_if_neededEPKcimb
   fun:_ZN19ClassPathImageEntry22open_stream_for_loaderEP10JavaThreadPKcP15ClassLoaderData
   fun:_ZN11ClassLoader10load_classEP6SymbolbP10JavaThread
   fun:_ZN16SystemDictionary24load_instance_class_implEP6Symbol6HandleP10JavaThread
   fun:_ZN16SystemDictionary19load_instance_classEP6Symbol6HandleP10JavaThread
   fun:_ZN16SystemDictionary30resolve_instance_class_or_nullEP6Symbol6HandleS2_P10JavaThread
   fun:_ZN16SystemDictionary15resolve_or_failEP6Symbol6HandleS2_bP10JavaThread
   fun:_ZN12ConstantPool13klass_at_implERK18constantPoolHandleiP10JavaThread
   fun:_ZN18InterpreterRuntime9anewarrayEP10JavaThreadP12ConstantPoolii
}

{
   <insert_a_suppression_name_here>
   Memcheck:Leak
   match-leak-kinds: reachable
   fun:malloc
   fun:_ZN2os6mallocEm8MEMFLAGSRK15NativeCallStack
   fun:_Z12AllocateHeapm8MEMFLAGSN17AllocFailStrategy13AllocFailEnumE
   fun:_ZN11SymbolTable16do_add_if_neededEPKcimb
   fun:_ZN19ClassPathImageEntry22open_stream_for_loaderEP10JavaThreadPKcP15ClassLoaderData
   fun:_ZN11ClassLoader10load_classEP6SymbolbP10JavaThread
   fun:_ZN16SystemDictionary24load_instance_class_implEP6Symbol6HandleP10JavaThread
   fun:_ZN16SystemDictionary19load_instance_classEP6Symbol6HandleP10JavaThread
   fun:_ZN16SystemDictionary30resolve_instance_class_or_nullEP6Symbol6HandleS2_P10JavaThread
   fun:_ZN16SystemDictionary21resolve_super_or_failEP6SymbolS1_6HandleS2_bP10JavaThread
   fun:_ZN15ClassFileParser16parse_interfacesEPK15ClassFileStreamiP12ConstantPoolPbP10JavaThread.part.0
   fun:_ZN15ClassFileParser12parse_streamEPK15ClassFileStreamP10JavaThread.part.0
}

{
   <insert_a_suppression_name_here>
   Memcheck:Leak
   match-leak-kinds: reachable
   fun:malloc
   fun:_ZN2os6mallocEm8MEMFLAGSRK15NativeCallStack
   fun:_Z12AllocateHeapm8MEMFLAGSN17AllocFailStrategy13AllocFailEnumE
   fun:_ZN11SymbolTable16do_add_if_neededEPKcimb
   fun:_ZN19ClassPathImageEntry22open_stream_for_loaderEP10JavaThreadPKcP15ClassLoaderData
   fun:_ZN11ClassLoader10load_classEP6SymbolbP10JavaThread
   fun:_ZN16SystemDictionary24load_instance_class_implEP6Symbol6HandleP10JavaThread
   fun:_ZN16SystemDictionary19load_instance_classEP6Symbol6HandleP10JavaThread
   fun:_ZN16SystemDictionary30resolve_instance_class_or_nullEP6Symbol6HandleS2_P10JavaThread
   fun:_ZN16SystemDictionary21resolve_super_or_failEP6SymbolS1_6HandleS2_bP10JavaThread
   fun:_ZN15ClassFileParser26post_process_parsed_streamEPK15ClassFileStreamP12ConstantPoolP10JavaThread
   fun:_ZN12KlassFactory18create_from_streamEP15ClassFileStreamP6SymbolP15ClassLoaderDataRK13ClassLoadInfoP10JavaThread
}

{
   <insert_a_suppression_name_here>
   Memcheck:Leak
   match-leak-kinds: reachable
   fun:malloc
   fun:_ZN2os6mallocEm8MEMFLAGSRK15NativeCallStack
   fun:_Z12AllocateHeapm8MEMFLAGSN17AllocFailStrategy13AllocFailEnumE
   fun:_ZN11SymbolTable16do_add_if_neededEPKcimb
   fun:_ZN19ClassPathImageEntry22open_stream_for_loaderEP10JavaThreadPKcP15ClassLoaderData
   fun:_ZN11ClassLoader10load_classEP6SymbolbP10JavaThread
   fun:_ZN16SystemDictionary24load_instance_class_implEP6Symbol6HandleP10JavaThread
   fun:_ZN16SystemDictionary19load_instance_classEP6Symbol6HandleP10JavaThread
   fun:_ZN16SystemDictionary30resolve_instance_class_or_nullEP6Symbol6HandleS2_P10JavaThread
   fun:_ZN7Threads9create_vmEP14JavaVMInitArgsPb
   fun:JNI_CreateJavaVM
   fun:JavaMain
}

{
   <insert_a_suppression_name_here>
   Memcheck:Leak
   match-leak-kinds: reachable
   fun:malloc
   fun:_ZN2os6mallocEm8MEMFLAGSRK15NativeCallStack
   fun:_Z12AllocateHeapm8MEMFLAGSN17AllocFailStrategy13AllocFailEnumE
   fun:_ZN11SymbolTable16do_add_if_neededEPKcimb
   fun:_ZN27java_lang_invoke_MethodType12as_signatureEP7oopDescb
   fun:_ZN13MethodHandles18resolve_MemberNameE6HandleP5KlassibP10JavaThread
   fun:MHN_resolve_Mem
   obj:*
   obj:*
   obj:*
   obj:*
   obj:*
}

{
   <insert_a_suppression_name_here>
   Memcheck:Leak
   match-leak-kinds: reachable
   fun:malloc
   fun:_ZN2os6mallocEm8MEMFLAGSRK15NativeCallStack
   fun:_Z12AllocateHeapm8MEMFLAGSN17AllocFailStrategy13AllocFailEnumE
   fun:_ZN11SymbolTable16do_add_if_neededEPKcimb
   fun:_ZNK12MethodFamily23generate_method_messageEP6SymbolP6Method
   fun:_ZN14DefaultMethods24generate_default_methodsEP13InstanceKlassPK13GrowableArrayIP6MethodEP10JavaThread
   fun:_ZN15ClassFileParser19fill_instance_klassEP13InstanceKlassbRK17ClassInstanceInfoP10JavaThread
   fun:_ZN15ClassFileParser21create_instance_klassEbRK17ClassInstanceInfoP10JavaThread
   fun:_ZN12KlassFactory18create_from_streamEP15ClassFileStreamP6SymbolP15ClassLoaderDataRK13ClassLoadInfoP10JavaThread
   fun:_ZN16SystemDictionary25resolve_class_from_streamEP15ClassFileStreamP6Symbol6HandleRK13ClassLoadInfoP10JavaThread
   fun:_ZL23jvm_define_class_commonPKcP8_jobjectPKaiS2_S0_P10JavaThread
   fun:JVM_DefineClassWithSource
}

{
   <insert_a_suppression_name_here>
   Memcheck:Leak
   match-leak-kinds: reachable
   fun:malloc
   fun:_ZN2os6mallocEm8MEMFLAGSRK15NativeCallStack
   fun:_Z12AllocateHeapm8MEMFLAGSN17AllocFailStrategy13AllocFailEnumE
   fun:_ZN11ThreadsList13remove_threadEPS_P10JavaThread
   fun:_ZN17ThreadsSMRSupport13remove_threadEP10JavaThread
   fun:_ZN7Threads6removeEP10JavaThreadb
   fun:_ZN10JavaThread4exitEbNS_8ExitTypeE
   fun:_ZN10JavaThread8post_runEv
   fun:_ZL19thread_native_entryP6Thread
   fun:start_thread
   fun:clone
}

{
   <insert_a_suppression_name_here>
   Memcheck:Leak
   match-leak-kinds: reachable
   fun:malloc
   fun:_ZN2os6mallocEm8MEMFLAGSRK15NativeCallStack
   fun:_Z12AllocateHeapm8MEMFLAGSN17AllocFailStrategy13AllocFailEnumE
   fun:_ZN12BasicMatcher20parse_method_patternEPcRPKcb
   fun:_ZN15DirectivesStack4initEv
   fun:_Z18compileBroker_initv
   fun:_Z13init_globals2v
   fun:_ZN7Threads9create_vmEP14JavaVMInitArgsPb
   fun:JNI_CreateJavaVM
   fun:JavaMain
   fun:ThreadJavaMain
   fun:start_thread
}

{
   <insert_a_suppression_name_here>
   Memcheck:Leak
   match-leak-kinds: reachable
   fun:malloc
   fun:_ZN2os6mallocEm8MEMFLAGSRK15NativeCallStack
   fun:_Z12AllocateHeapm8MEMFLAGSN17AllocFailStrategy13AllocFailEnumE
   fun:_ZN12CodeHeapPoolC1EP8CodeHeapPKcb
   fun:_ZN13MemoryService25add_code_heap_memory_poolEP8CodeHeapPKc
   fun:_ZN9CodeCache10initializeEv
   fun:_Z12init_globalsv
   fun:_ZN7Threads9create_vmEP14JavaVMInitArgsPb
   fun:JNI_CreateJavaVM
   fun:JavaMain
   fun:ThreadJavaMain
   fun:start_thread
}

{
   <insert_a_suppression_name_here>
   Memcheck:Leak
   match-leak-kinds: reachable
   fun:malloc
   fun:_ZN2os6mallocEm8MEMFLAGSRK15NativeCallStack
   fun:_Z12AllocateHeapm8MEMFLAGSN17AllocFailStrategy13AllocFailEnumE
   fun:_ZN12G1BarrierSetC1EP11G1CardTable
   fun:_ZN15G1CollectedHeap10initializeEv
   fun:_Z13universe_initv
   fun:_Z12init_globalsv
   fun:_ZN7Threads9create_vmEP14JavaVMInitArgsPb
   fun:JNI_CreateJavaVM
   fun:JavaMain
   fun:ThreadJavaMain
   fun:start_thread
}

{
   <insert_a_suppression_name_here>
   Memcheck:Leak
   match-leak-kinds: reachable
   fun:malloc
   fun:_ZN2os6mallocEm8MEMFLAGSRK15NativeCallStack
   fun:_Z12AllocateHeapm8MEMFLAGSN17AllocFailStrategy13AllocFailEnumE
   fun:_ZN12PosixSignals4initEv
   fun:_ZN2os6init_2Ev
   fun:_ZN7Threads9create_vmEP14JavaVMInitArgsPb
   fun:JNI_CreateJavaVM
   fun:JavaMain
   fun:ThreadJavaMain
   fun:start_thread
   fun:clone
}

{
   <insert_a_suppression_name_here>
   Memcheck:Leak
   match-leak-kinds: reachable
   fun:malloc
   fun:_ZN2os6mallocEm8MEMFLAGSRK15NativeCallStack
   fun:_Z12AllocateHeapm8MEMFLAGSN17AllocFailStrategy13AllocFailEnumE
   fun:_ZN12StubCodeMarkC1EP17StubCodeGeneratorPKcS3_
   fun:_ZN10VM_Version10initializeEv
   fun:_Z15VM_Version_initv
   fun:_Z12init_globalsv
   fun:_ZN7Threads9create_vmEP14JavaVMInitArgsPb
   fun:JNI_CreateJavaVM
   fun:JavaMain
   fun:ThreadJavaMain
   fun:start_thread
}

{
   <insert_a_suppression_name_here>
   Memcheck:Leak
   match-leak-kinds: reachable
   fun:malloc
   fun:_ZN2os6mallocEm8MEMFLAGSRK15NativeCallStack
   fun:_Z12AllocateHeapm8MEMFLAGSN17AllocFailStrategy13AllocFailEnumE
   fun:_ZN12StubCodeMarkC1EP17StubCodeGeneratorPKcS3_
   fun:_ZN13MethodHandles17generate_adaptersEv
   fun:_Z13init_globals2v
   fun:_ZN7Threads9create_vmEP14JavaVMInitArgsPb
   fun:JNI_CreateJavaVM
   fun:JavaMain
   fun:ThreadJavaMain
   fun:start_thread
   fun:clone
}

{
   <insert_a_suppression_name_here>
   Memcheck:Leak
   match-leak-kinds: reachable
   fun:malloc
   fun:_ZN2os6mallocEm8MEMFLAGSRK15NativeCallStack
   fun:_Z12AllocateHeapm8MEMFLAGSN17AllocFailStrategy13AllocFailEnumE
   fun:_ZN12StubCodeMarkC1EP17StubCodeGeneratorPKcS3_
   fun:_ZN13StubGenerator13generate_fillE9BasicTypebPKc
   fun:_ZN13StubGenerator24generate_arraycopy_stubsEv
   fun:_ZN13StubGenerator20generate_final_stubsEv
   fun:_Z22StubGenerator_generateP10CodeBufferN17StubCodeGenerator9StubsKindE
   fun:_ZL16initialize_stubsN17StubCodeGenerator9StubsKindEiiPKcS2_S2_.constprop.0
   fun:_Z16final_stubs_initv
   fun:_Z13init_globals2v
   fun:_ZN7Threads9create_vmEP14JavaVMInitArgsPb
}

{
   <insert_a_suppression_name_here>
   Memcheck:Leak
   match-leak-kinds: reachable
   fun:malloc
   fun:_ZN2os6mallocEm8MEMFLAGSRK15NativeCallStack
   fun:_Z12AllocateHeapm8MEMFLAGSN17AllocFailStrategy13AllocFailEnumE
   fun:_ZN12StubCodeMarkC1EP17StubCodeGeneratorPKcS3_
   fun:_ZN13StubGenerator16generate_libmCosEv
   fun:_ZN13StubGenerator19generate_libm_stubsEv.part.0
   fun:_ZN13StubGenerator22generate_initial_stubsEv
   fun:_Z22StubGenerator_generateP10CodeBufferN17StubCodeGenerator9StubsKindE
   fun:_ZL16initialize_stubsN17StubCodeGenerator9StubsKindEiiPKcS2_S2_.constprop.0
   fun:_Z18initial_stubs_initv
   fun:_Z12init_globalsv
   fun:_ZN7Threads9create_vmEP14JavaVMInitArgsPb
}

{
   <insert_a_suppression_name_here>
   Memcheck:Leak
   match-leak-kinds: reachable
   fun:malloc
   fun:_ZN2os6mallocEm8MEMFLAGSRK15NativeCallStack
   fun:_Z12AllocateHeapm8MEMFLAGSN17AllocFailStrategy13AllocFailEnumE
   fun:_ZN12StubCodeMarkC1EP17StubCodeGeneratorPKcS3_
   fun:_ZN13StubGenerator16generate_libmExpEv
   fun:_ZN13StubGenerator19generate_libm_stubsEv.part.0
   fun:_ZN13StubGenerator22generate_initial_stubsEv
   fun:_Z22StubGenerator_generateP10CodeBufferN17StubCodeGenerator9StubsKindE
   fun:_ZL16initialize_stubsN17StubCodeGenerator9StubsKindEiiPKcS2_S2_.constprop.0
   fun:_Z18initial_stubs_initv
   fun:_Z12init_globalsv
   fun:_ZN7Threads9create_vmEP14JavaVMInitArgsPb
}

{
   <insert_a_suppression_name_here>
   Memcheck:Leak
   match-leak-kinds: reachable
   fun:malloc
   fun:_ZN2os6mallocEm8MEMFLAGSRK15NativeCallStack
   fun:_Z12AllocateHeapm8MEMFLAGSN17AllocFailStrategy13AllocFailEnumE
   fun:_ZN12StubCodeMarkC1EP17StubCodeGeneratorPKcS3_
   fun:_ZN13StubGenerator16generate_libmLogEv
   fun:_ZN13StubGenerator19generate_libm_stubsEv.part.0
   fun:_ZN13StubGenerator22generate_initial_stubsEv
   fun:_Z22StubGenerator_generateP10CodeBufferN17StubCodeGenerator9StubsKindE
   fun:_ZL16initialize_stubsN17StubCodeGenerator9StubsKindEiiPKcS2_S2_.constprop.0
   fun:_Z18initial_stubs_initv
   fun:_Z12init_globalsv
   fun:_ZN7Threads9create_vmEP14JavaVMInitArgsPb
}

{
   <insert_a_suppression_name_here>
   Memcheck:Leak
   match-leak-kinds: reachable
   fun:malloc
   fun:_ZN2os6mallocEm8MEMFLAGSRK15NativeCallStack
   fun:_Z12AllocateHeapm8MEMFLAGSN17AllocFailStrategy13AllocFailEnumE
   fun:_ZN12StubCodeMarkC1EP17StubCodeGeneratorPKcS3_
   fun:_ZN13StubGenerator16generate_libmPowEv
   fun:_ZN13StubGenerator19generate_libm_stubsEv.part.0
   fun:_ZN13StubGenerator22generate_initial_stubsEv
   fun:_Z22StubGenerator_generateP10CodeBufferN17StubCodeGenerator9StubsKindE
   fun:_ZL16initialize_stubsN17StubCodeGenerator9StubsKindEiiPKcS2_S2_.constprop.0
   fun:_Z18initial_stubs_initv
   fun:_Z12init_globalsv
   fun:_ZN7Threads9create_vmEP14JavaVMInitArgsPb
}

{
   <insert_a_suppression_name_here>
   Memcheck:Leak
   match-leak-kinds: reachable
   fun:malloc
   fun:_ZN2os6mallocEm8MEMFLAGSRK15NativeCallStack
   fun:_Z12AllocateHeapm8MEMFLAGSN17AllocFailStrategy13AllocFailEnumE
   fun:_ZN12StubCodeMarkC1EP17StubCodeGeneratorPKcS3_
   fun:_ZN13StubGenerator16generate_libmSinEv
   fun:_ZN13StubGenerator19generate_libm_stubsEv.part.0
   fun:_ZN13StubGenerator22generate_initial_stubsEv
   fun:_Z22StubGenerator_generateP10CodeBufferN17StubCodeGenerator9StubsKindE
   fun:_ZL16initialize_stubsN17StubCodeGenerator9StubsKindEiiPKcS2_S2_.constprop.0
   fun:_Z18initial_stubs_initv
   fun:_Z12init_globalsv
   fun:_ZN7Threads9create_vmEP14JavaVMInitArgsPb
}

{
   <insert_a_suppression_name_here>
   Memcheck:Leak
   match-leak-kinds: reachable
   fun:malloc
   fun:_ZN2os6mallocEm8MEMFLAGSRK15NativeCallStack
   fun:_Z12AllocateHeapm8MEMFLAGSN17AllocFailStrategy13AllocFailEnumE
   fun:_ZN12StubCodeMarkC1EP17StubCodeGeneratorPKcS3_
   fun:_ZN13StubGenerator16generate_libmTanEv
   fun:_ZN13StubGenerator19generate_libm_stubsEv.part.0
   fun:_ZN13StubGenerator22generate_initial_stubsEv
   fun:_Z22StubGenerator_generateP10CodeBufferN17StubCodeGenerator9StubsKindE
   fun:_ZL16initialize_stubsN17StubCodeGenerator9StubsKindEiiPKcS2_S2_.constprop.0
   fun:_Z18initial_stubs_initv
   fun:_Z12init_globalsv
   fun:_ZN7Threads9create_vmEP14JavaVMInitArgsPb
}

{
   <insert_a_suppression_name_here>
   Memcheck:Leak
   match-leak-kinds: reachable
   fun:malloc
   fun:_ZN2os6mallocEm8MEMFLAGSRK15NativeCallStack
   fun:_Z12AllocateHeapm8MEMFLAGSN17AllocFailStrategy13AllocFailEnumE
   fun:_ZN12StubCodeMarkC1EP17StubCodeGeneratorPKcS3_
   fun:_ZN13StubGenerator17generate_libmFmodEv
   fun:_ZN13StubGenerator22generate_initial_stubsEv
   fun:_Z22StubGenerator_generateP10CodeBufferN17StubCodeGenerator9StubsKindE
   fun:_ZL16initialize_stubsN17StubCodeGenerator9StubsKindEiiPKcS2_S2_.constprop.0
   fun:_Z18initial_stubs_initv
   fun:_Z12init_globalsv
   fun:_ZN7Threads9create_vmEP14JavaVMInitArgsPb
   fun:JNI_CreateJavaVM
}

{
   <insert_a_suppression_name_here>
   Memcheck:Leak
   match-leak-kinds: reachable
   fun:malloc
   fun:_ZN2os6mallocEm8MEMFLAGSRK15NativeCallStack
   fun:_Z12AllocateHeapm8MEMFLAGSN17AllocFailStrategy13AllocFailEnumE
   fun:_ZN12StubCodeMarkC1EP17StubCodeGeneratorPKcS3_
   fun:_ZN13StubGenerator18generate_call_stubERPh
   fun:_ZN13StubGenerator22generate_initial_stubsEv
   fun:_Z22StubGenerator_generateP10CodeBufferN17StubCodeGenerator9StubsKindE
   fun:_ZL16initialize_stubsN17StubCodeGenerator9StubsKindEiiPKcS2_S2_.constprop.0
   fun:_Z18initial_stubs_initv
   fun:_Z12init_globalsv
   fun:_ZN7Threads9create_vmEP14JavaVMInitArgsPb
   fun:JNI_CreateJavaVM
}

{
   <insert_a_suppression_name_here>
   Memcheck:Leak
   match-leak-kinds: reachable
   fun:malloc
   fun:_ZN2os6mallocEm8MEMFLAGSRK15NativeCallStack
   fun:_Z12AllocateHeapm8MEMFLAGSN17AllocFailStrategy13AllocFailEnumE
   fun:_ZN12StubCodeMarkC1EP17StubCodeGeneratorPKcS3_
   fun:_ZN13StubGenerator18generate_cont_thawEPKcN12Continuation9thaw_kindE
   fun:_Z22StubGenerator_generateP10CodeBufferN17StubCodeGenerator9StubsKindE
   fun:_ZL16initialize_stubsN17StubCodeGenerator9StubsKindEiiPKcS2_S2_.constprop.0
   fun:_Z23continuation_stubs_initv
   fun:_Z12init_globalsv
   fun:_ZN7Threads9create_vmEP14JavaVMInitArgsPb
   fun:JNI_CreateJavaVM
   fun:JavaMain
}

{
   <insert_a_suppression_name_here>
   Memcheck:Leak
   match-leak-kinds: reachable
   fun:malloc
   fun:_ZN2os6mallocEm8MEMFLAGSRK15NativeCallStack
   fun:_Z12AllocateHeapm8MEMFLAGSN17AllocFailStrategy13AllocFailEnumE
   fun:_ZN12StubCodeMarkC1EP17StubCodeGeneratorPKcS3_
   fun:_ZN13StubGenerator18generate_d2i_fixupEv
   fun:_ZN13StubGenerator22generate_initial_stubsEv
   fun:_Z22StubGenerator_generateP10CodeBufferN17StubCodeGenerator9StubsKindE
   fun:_ZL16initialize_stubsN17StubCodeGenerator9StubsKindEiiPKcS2_S2_.constprop.0
   fun:_Z18initial_stubs_initv
   fun:_Z12init_globalsv
   fun:_ZN7Threads9create_vmEP14JavaVMInitArgsPb
   fun:JNI_CreateJavaVM
}

{
   <insert_a_suppression_name_here>
   Memcheck:Leak
   match-leak-kinds: reachable
   fun:malloc
   fun:_ZN2os6mallocEm8MEMFLAGSRK15NativeCallStack
   fun:_Z12AllocateHeapm8MEMFLAGSN17AllocFailStrategy13AllocFailEnumE
   fun:_ZN12StubCodeMarkC1EP17StubCodeGeneratorPKcS3_
   fun:_ZN13StubGenerator18generate_d2l_fixupEv
   fun:_ZN13StubGenerator22generate_initial_stubsEv
   fun:_Z22StubGenerator_generateP10CodeBufferN17StubCodeGenerator9StubsKindE
   fun:_ZL16initialize_stubsN17StubCodeGenerator9StubsKindEiiPKcS2_S2_.constprop.0
   fun:_Z18initial_stubs_initv
   fun:_Z12init_globalsv
   fun:_ZN7Threads9create_vmEP14JavaVMInitArgsPb
   fun:JNI_CreateJavaVM
}

{
   <insert_a_suppression_name_here>
   Memcheck:Leak
   match-leak-kinds: reachable
   fun:malloc
   fun:_ZN2os6mallocEm8MEMFLAGSRK15NativeCallStack
   fun:_Z12AllocateHeapm8MEMFLAGSN17AllocFailStrategy13AllocFailEnumE
   fun:_ZN12StubCodeMarkC1EP17StubCodeGeneratorPKcS3_
   fun:_ZN13StubGenerator18generate_f2i_fixupEv
   fun:_ZN13StubGenerator22generate_initial_stubsEv
   fun:_Z22StubGenerator_generateP10CodeBufferN17StubCodeGenerator9StubsKindE
   fun:_ZL16initialize_stubsN17StubCodeGenerator9StubsKindEiiPKcS2_S2_.constprop.0
   fun:_Z18initial_stubs_initv
   fun:_Z12init_globalsv
   fun:_ZN7Threads9create_vmEP14JavaVMInitArgsPb
   fun:JNI_CreateJavaVM
}

{
   <insert_a_suppression_name_here>
   Memcheck:Leak
   match-leak-kinds: reachable
   fun:malloc
   fun:_ZN2os6mallocEm8MEMFLAGSRK15NativeCallStack
   fun:_Z12AllocateHeapm8MEMFLAGSN17AllocFailStrategy13AllocFailEnumE
   fun:_ZN12StubCodeMarkC1EP17StubCodeGeneratorPKcS3_
   fun:_ZN13StubGenerator18generate_f2l_fixupEv
   fun:_ZN13StubGenerator22generate_initial_stubsEv
   fun:_Z22StubGenerator_generateP10CodeBufferN17StubCodeGenerator9StubsKindE
   fun:_ZL16initialize_stubsN17StubCodeGenerator9StubsKindEiiPKcS2_S2_.constprop.0
   fun:_Z18initial_stubs_initv
   fun:_Z12init_globalsv
   fun:_ZN7Threads9create_vmEP14JavaVMInitArgsPb
   fun:JNI_CreateJavaVM
}

{
   <insert_a_suppression_name_here>
   Memcheck:Leak
   match-leak-kinds: reachable
   fun:malloc
   fun:_ZN2os6mallocEm8MEMFLAGSRK15NativeCallStack
   fun:_Z12AllocateHeapm8MEMFLAGSN17AllocFailStrategy13AllocFailEnumE
   fun:_ZN12StubCodeMarkC1EP17StubCodeGeneratorPKcS3_
   fun:_ZN13StubGenerator18generate_libmLog10Ev
   fun:_ZN13StubGenerator19generate_libm_stubsEv.part.0
   fun:_ZN13StubGenerator22generate_initial_stubsEv
   fun:_Z22StubGenerator_generateP10CodeBufferN17StubCodeGenerator9StubsKindE
   fun:_ZL16initialize_stubsN17StubCodeGenerator9StubsKindEiiPKcS2_S2_.constprop.0
   fun:_Z18initial_stubs_initv
   fun:_Z12init_globalsv
   fun:_ZN7Threads9create_vmEP14JavaVMInitArgsPb
}

{
   <insert_a_suppression_name_here>
   Memcheck:Leak
   match-leak-kinds: reachable
   fun:malloc
   fun:_ZN2os6mallocEm8MEMFLAGSRK15NativeCallStack
   fun:_Z12AllocateHeapm8MEMFLAGSN17AllocFailStrategy13AllocFailEnumE
   fun:_ZN12StubCodeMarkC1EP17StubCodeGeneratorPKcS3_
   fun:_ZN13StubGenerator20generate_unsafe_copyEPKcPhS2_S2_S2_
   fun:_ZN13StubGenerator24generate_arraycopy_stubsEv
   fun:_ZN13StubGenerator20generate_final_stubsEv
   fun:_Z22StubGenerator_generateP10CodeBufferN17StubCodeGenerator9StubsKindE
   fun:_ZL16initialize_stubsN17StubCodeGenerator9StubsKindEiiPKcS2_S2_.constprop.0
   fun:_Z16final_stubs_initv
   fun:_Z13init_globals2v
   fun:_ZN7Threads9create_vmEP14JavaVMInitArgsPb
}

{
   <insert_a_suppression_name_here>
   Memcheck:Leak
   match-leak-kinds: reachable
   fun:malloc
   fun:_ZN2os6mallocEm8MEMFLAGSRK15NativeCallStack
   fun:_Z12AllocateHeapm8MEMFLAGSN17AllocFailStrategy13AllocFailEnumE
   fun:_ZN12StubCodeMarkC1EP17StubCodeGeneratorPKcS3_
   fun:_ZN13StubGenerator21generate_generic_copyEPKcPhS2_S2_S2_S2_S2_
   fun:_ZN13StubGenerator24generate_arraycopy_stubsEv
   fun:_ZN13StubGenerator20generate_final_stubsEv
   fun:_Z22StubGenerator_generateP10CodeBufferN17StubCodeGenerator9StubsKindE
   fun:_ZL16initialize_stubsN17StubCodeGenerator9StubsKindEiiPKcS2_S2_.constprop.0
   fun:_Z16final_stubs_initv
   fun:_Z13init_globals2v
   fun:_ZN7Threads9create_vmEP14JavaVMInitArgsPb
}

{
   <insert_a_suppression_name_here>
   Memcheck:Leak
   match-leak-kinds: reachable
   fun:malloc
   fun:_ZN2os6mallocEm8MEMFLAGSRK15NativeCallStack
   fun:_Z12AllocateHeapm8MEMFLAGSN17AllocFailStrategy13AllocFailEnumE
   fun:_ZN12StubCodeMarkC1EP17StubCodeGeneratorPKcS3_
   fun:_ZN13StubGenerator21generate_verify_mxcsrEv
   fun:_ZN13StubGenerator22generate_initial_stubsEv
   fun:_Z22StubGenerator_generateP10CodeBufferN17StubCodeGenerator9StubsKindE
   fun:_ZL16initialize_stubsN17StubCodeGenerator9StubsKindEiiPKcS2_S2_.constprop.0
   fun:_Z18initial_stubs_initv
   fun:_Z12init_globalsv
   fun:_ZN7Threads9create_vmEP14JavaVMInitArgsPb
   fun:JNI_CreateJavaVM
}

{
   <insert_a_suppression_name_here>
   Memcheck:Leak
   match-leak-kinds: reachable
   fun:malloc
   fun:_ZN2os6mallocEm8MEMFLAGSRK15NativeCallStack
   fun:_Z12AllocateHeapm8MEMFLAGSN17AllocFailStrategy13AllocFailEnumE
   fun:_ZN12StubCodeMarkC1EP17StubCodeGeneratorPKcS3_
   fun:_ZN13StubGenerator22generate_initial_stubsEv
   fun:_Z22StubGenerator_generateP10CodeBufferN17StubCodeGenerator9StubsKindE
   fun:_ZL16initialize_stubsN17StubCodeGenerator9StubsKindEiiPKcS2_S2_.constprop.0
   fun:_Z18initial_stubs_initv
   fun:_Z12init_globalsv
   fun:_ZN7Threads9create_vmEP14JavaVMInitArgsPb
   fun:JNI_CreateJavaVM
   fun:JavaMain
}

{
   <insert_a_suppression_name_here>
   Memcheck:Leak
   match-leak-kinds: reachable
   fun:malloc
   fun:_ZN2os6mallocEm8MEMFLAGSRK15NativeCallStack
   fun:_Z12AllocateHeapm8MEMFLAGSN17AllocFailStrategy13AllocFailEnumE
   fun:_ZN12StubCodeMarkC1EP17StubCodeGeneratorPKcS3_
   fun:_ZN13StubGenerator23generate_checkcast_copyEPKcPPhb
   fun:_ZN13StubGenerator24generate_arraycopy_stubsEv
   fun:_ZN13StubGenerator20generate_final_stubsEv
   fun:_Z22StubGenerator_generateP10CodeBufferN17StubCodeGenerator9StubsKindE
   fun:_ZL16initialize_stubsN17StubCodeGenerator9StubsKindEiiPKcS2_S2_.constprop.0
   fun:_Z16final_stubs_initv
   fun:_Z13init_globals2v
   fun:_ZN7Threads9create_vmEP14JavaVMInitArgsPb
}

{
   <insert_a_suppression_name_here>
   Memcheck:Leak
   match-leak-kinds: reachable
   fun:malloc
   fun:_ZN2os6mallocEm8MEMFLAGSRK15NativeCallStack
   fun:_Z12AllocateHeapm8MEMFLAGSN17AllocFailStrategy13AllocFailEnumE
   fun:_ZN12StubCodeMarkC1EP17StubCodeGeneratorPKcS3_
   fun:_ZN13StubGenerator24generate_catch_exceptionEv
   fun:_ZN13StubGenerator22generate_initial_stubsEv
   fun:_Z22StubGenerator_generateP10CodeBufferN17StubCodeGenerator9StubsKindE
   fun:_ZL16initialize_stubsN17StubCodeGenerator9StubsKindEiiPKcS2_S2_.constprop.0
   fun:_Z18initial_stubs_initv
   fun:_Z12init_globalsv
   fun:_ZN7Threads9create_vmEP14JavaVMInitArgsPb
   fun:JNI_CreateJavaVM
}

{
   <insert_a_suppression_name_here>
   Memcheck:Leak
   match-leak-kinds: reachable
   fun:malloc
   fun:_ZN2os6mallocEm8MEMFLAGSRK15NativeCallStack
   fun:_Z12AllocateHeapm8MEMFLAGSN17AllocFailStrategy13AllocFailEnumE
   fun:_ZN12StubCodeMarkC1EP17StubCodeGeneratorPKcS3_
   fun:_ZN13StubGenerator25generate_updateBytesCRC32Ev
   fun:_ZN13StubGenerator22generate_initial_stubsEv
   fun:_Z22StubGenerator_generateP10CodeBufferN17StubCodeGenerator9StubsKindE
   fun:_ZL16initialize_stubsN17StubCodeGenerator9StubsKindEiiPKcS2_S2_.constprop.0
   fun:_Z18initial_stubs_initv
   fun:_Z12init_globalsv
   fun:_ZN7Threads9create_vmEP14JavaVMInitArgsPb
   fun:JNI_CreateJavaVM
}

{
   <insert_a_suppression_name_here>
   Memcheck:Leak
   match-leak-kinds: reachable
   fun:malloc
   fun:_ZN2os6mallocEm8MEMFLAGSRK15NativeCallStack
   fun:_Z12AllocateHeapm8MEMFLAGSN17AllocFailStrategy13AllocFailEnumE
   fun:_ZN12StubCodeMarkC1EP17StubCodeGeneratorPKcS3_
   fun:_ZN13StubGenerator26generate_forward_exceptionEv
   fun:_ZN13StubGenerator22generate_initial_stubsEv
   fun:_Z22StubGenerator_generateP10CodeBufferN17StubCodeGenerator9StubsKindE
   fun:_ZL16initialize_stubsN17StubCodeGenerator9StubsKindEiiPKcS2_S2_.constprop.0
   fun:_Z18initial_stubs_initv
   fun:_Z12init_globalsv
   fun:_ZN7Threads9create_vmEP14JavaVMInitArgsPb
   fun:JNI_CreateJavaVM
}

{
   <insert_a_suppression_name_here>
   Memcheck:Leak
   match-leak-kinds: reachable
   fun:malloc
   fun:_ZN2os6mallocEm8MEMFLAGSRK15NativeCallStack
   fun:_Z12AllocateHeapm8MEMFLAGSN17AllocFailStrategy13AllocFailEnumE
   fun:_ZN12StubCodeMarkC1EP17StubCodeGeneratorPKcS3_
   fun:_ZN13StubGenerator26generate_updateBytesCRC32CEb
   fun:_ZN13StubGenerator22generate_initial_stubsEv
   fun:_Z22StubGenerator_generateP10CodeBufferN17StubCodeGenerator9StubsKindE
   fun:_ZL16initialize_stubsN17StubCodeGenerator9StubsKindEiiPKcS2_S2_.constprop.0
   fun:_Z18initial_stubs_initv
   fun:_Z12init_globalsv
   fun:_ZN7Threads9create_vmEP14JavaVMInitArgsPb
   fun:JNI_CreateJavaVM
}

{
   <insert_a_suppression_name_here>
   Memcheck:Leak
   match-leak-kinds: reachable
   fun:malloc
   fun:_ZN2os6mallocEm8MEMFLAGSRK15NativeCallStack
   fun:_Z12AllocateHeapm8MEMFLAGSN17AllocFailStrategy13AllocFailEnumE
   fun:_ZN12StubCodeMarkC1EP17StubCodeGeneratorPKcS3_
   fun:_ZN13StubGenerator27generate_conjoint_byte_copyEbPhPS0_PKc
   fun:_ZN13StubGenerator24generate_arraycopy_stubsEv
   fun:_ZN13StubGenerator20generate_final_stubsEv
   fun:_Z22StubGenerator_generateP10CodeBufferN17StubCodeGenerator9StubsKindE
   fun:_ZL16initialize_stubsN17StubCodeGenerator9StubsKindEiiPKcS2_S2_.constprop.0
   fun:_Z16final_stubs_initv
   fun:_Z13init_globals2v
   fun:_ZN7Threads9create_vmEP14JavaVMInitArgsPb
}

{
   <insert_a_suppression_name_here>
   Memcheck:Leak
   match-leak-kinds: reachable
   fun:malloc
   fun:_ZN2os6mallocEm8MEMFLAGSRK15NativeCallStack
   fun:_Z12AllocateHeapm8MEMFLAGSN17AllocFailStrategy13AllocFailEnumE
   fun:_ZN12StubCodeMarkC1EP17StubCodeGeneratorPKcS3_
   fun:_ZN13StubGenerator27generate_disjoint_byte_copyEbPPhPKc
   fun:_ZN13StubGenerator24generate_arraycopy_stubsEv
   fun:_ZN13StubGenerator20generate_final_stubsEv
   fun:_Z22StubGenerator_generateP10CodeBufferN17StubCodeGenerator9StubsKindE
   fun:_ZL16initialize_stubsN17StubCodeGenerator9StubsKindEiiPKcS2_S2_.constprop.0
   fun:_Z16final_stubs_initv
   fun:_Z13init_globals2v
   fun:_ZN7Threads9create_vmEP14JavaVMInitArgsPb
}

{
   <insert_a_suppression_name_here>
   Memcheck:Leak
   match-leak-kinds: reachable
   fun:malloc
   fun:_ZN2os6mallocEm8MEMFLAGSRK15NativeCallStack
   fun:_Z12AllocateHeapm8MEMFLAGSN17AllocFailStrategy13AllocFailEnumE
   fun:_ZN12StubCodeMarkC1EP17StubCodeGeneratorPKcS3_
   fun:_ZN13StubGenerator27generate_vectorizedMismatchEv
   fun:_ZN13StubGenerator20generate_final_stubsEv
   fun:_Z22StubGenerator_generateP10CodeBufferN17StubCodeGenerator9StubsKindE
   fun:_ZL16initialize_stubsN17StubCodeGenerator9StubsKindEiiPKcS2_S2_.constprop.0
   fun:_Z16final_stubs_initv
   fun:_Z13init_globals2v
   fun:_ZN7Threads9create_vmEP14JavaVMInitArgsPb
   fun:JNI_CreateJavaVM
}

{
   <insert_a_suppression_name_here>
   Memcheck:Leak
   match-leak-kinds: reachable
   fun:malloc
   fun:_ZN2os6mallocEm8MEMFLAGSRK15NativeCallStack
   fun:_Z12AllocateHeapm8MEMFLAGSN17AllocFailStrategy13AllocFailEnumE
   fun:_ZN12StubCodeMarkC1EP17StubCodeGeneratorPKcS3_
   fun:_ZN13StubGenerator28generate_conjoint_short_copyEbPhPS0_PKc
   fun:_ZN13StubGenerator24generate_arraycopy_stubsEv
   fun:_ZN13StubGenerator20generate_final_stubsEv
   fun:_Z22StubGenerator_generateP10CodeBufferN17StubCodeGenerator9StubsKindE
   fun:_ZL16initialize_stubsN17StubCodeGenerator9StubsKindEiiPKcS2_S2_.constprop.0
   fun:_Z16final_stubs_initv
   fun:_Z13init_globals2v
   fun:_ZN7Threads9create_vmEP14JavaVMInitArgsPb
}

{
   <insert_a_suppression_name_here>
   Memcheck:Leak
   match-leak-kinds: reachable
   fun:malloc
   fun:_ZN2os6mallocEm8MEMFLAGSRK15NativeCallStack
   fun:_Z12AllocateHeapm8MEMFLAGSN17AllocFailStrategy13AllocFailEnumE
   fun:_ZN12StubCodeMarkC1EP17StubCodeGeneratorPKcS3_
   fun:_ZN13StubGenerator28generate_disjoint_short_copyEbPPhPKc
   fun:_ZN13StubGenerator24generate_arraycopy_stubsEv
   fun:_ZN13StubGenerator20generate_final_stubsEv
   fun:_Z22StubGenerator_generateP10CodeBufferN17StubCodeGenerator9StubsKindE
   fun:_ZL16initialize_stubsN17StubCodeGenerator9StubsKindEiiPKcS2_S2_.constprop.0
   fun:_Z16final_stubs_initv
   fun:_Z13init_globals2v
   fun:_ZN7Threads9create_vmEP14JavaVMInitArgsPb
}

{
   <insert_a_suppression_name_here>
   Memcheck:Leak
   match-leak-kinds: reachable
   fun:malloc
   fun:_ZN2os6mallocEm8MEMFLAGSRK15NativeCallStack
   fun:_Z12AllocateHeapm8MEMFLAGSN17AllocFailStrategy13AllocFailEnumE
   fun:_ZN12StubCodeMarkC1EP17StubCodeGeneratorPKcS3_
   fun:_ZN13StubGenerator29generate_data_cache_writebackEv
   fun:_ZN13StubGenerator20generate_final_stubsEv
   fun:_Z22StubGenerator_generateP10CodeBufferN17StubCodeGenerator9StubsKindE
   fun:_ZL16initialize_stubsN17StubCodeGenerator9StubsKindEiiPKcS2_S2_.constprop.0
   fun:_Z16final_stubs_initv
   fun:_Z13init_globals2v
   fun:_ZN7Threads9create_vmEP14JavaVMInitArgsPb
   fun:JNI_CreateJavaVM
}

{
   <insert_a_suppression_name_here>
   Memcheck:Leak
   match-leak-kinds: reachable
   fun:malloc
   fun:_ZN2os6mallocEm8MEMFLAGSRK15NativeCallStack
   fun:_Z12AllocateHeapm8MEMFLAGSN17AllocFailStrategy13AllocFailEnumE
   fun:_ZN12StubCodeMarkC1EP17StubCodeGeneratorPKcS3_
   fun:_ZN13StubGenerator29generate_method_entry_barrierEv
   fun:_ZN13StubGenerator20generate_final_stubsEv
   fun:_Z22StubGenerator_generateP10CodeBufferN17StubCodeGenerator9StubsKindE
   fun:_ZL16initialize_stubsN17StubCodeGenerator9StubsKindEiiPKcS2_S2_.constprop.0
   fun:_Z16final_stubs_initv
   fun:_Z13init_globals2v
   fun:_ZN7Threads9create_vmEP14JavaVMInitArgsPb
   fun:JNI_CreateJavaVM
}

{
   <insert_a_suppression_name_here>
   Memcheck:Leak
   match-leak-kinds: reachable
   fun:malloc
   fun:_ZN2os6mallocEm8MEMFLAGSRK15NativeCallStack
   fun:_Z12AllocateHeapm8MEMFLAGSN17AllocFailStrategy13AllocFailEnumE
   fun:_ZN12StubCodeMarkC1EP17StubCodeGeneratorPKcS3_
   fun:_ZN13StubGenerator30generate_conjoint_int_oop_copyEbbPhPS0_PKcb
   fun:_ZN13StubGenerator24generate_arraycopy_stubsEv
   fun:_ZN13StubGenerator20generate_final_stubsEv
   fun:_Z22StubGenerator_generateP10CodeBufferN17StubCodeGenerator9StubsKindE
   fun:_ZL16initialize_stubsN17StubCodeGenerator9StubsKindEiiPKcS2_S2_.constprop.0
   fun:_Z16final_stubs_initv
   fun:_Z13init_globals2v
   fun:_ZN7Threads9create_vmEP14JavaVMInitArgsPb
}

{
   <insert_a_suppression_name_here>
   Memcheck:Leak
   match-leak-kinds: reachable
   fun:malloc
   fun:_ZN2os6mallocEm8MEMFLAGSRK15NativeCallStack
   fun:_Z12AllocateHeapm8MEMFLAGSN17AllocFailStrategy13AllocFailEnumE
   fun:_ZN12StubCodeMarkC1EP17StubCodeGeneratorPKcS3_
   fun:_ZN13StubGenerator30generate_disjoint_int_oop_copyEbbPPhPKcb
   fun:_ZN13StubGenerator24generate_arraycopy_stubsEv
   fun:_ZN13StubGenerator20generate_final_stubsEv
   fun:_Z22StubGenerator_generateP10CodeBufferN17StubCodeGenerator9StubsKindE
   fun:_ZL16initialize_stubsN17StubCodeGenerator9StubsKindEiiPKcS2_S2_.constprop.0
   fun:_Z16final_stubs_initv
   fun:_Z13init_globals2v
   fun:_ZN7Threads9create_vmEP14JavaVMInitArgsPb
}

{
   <insert_a_suppression_name_here>
   Memcheck:Leak
   match-leak-kinds: reachable
   fun:malloc
   fun:_ZN2os6mallocEm8MEMFLAGSRK15NativeCallStack
   fun:_Z12AllocateHeapm8MEMFLAGSN17AllocFailStrategy13AllocFailEnumE
   fun:_ZN12StubCodeMarkC1EP17StubCodeGeneratorPKcS3_
   fun:_ZN13StubGenerator31generate_conjoint_long_oop_copyEbbPhPS0_PKcb
   fun:_ZN13StubGenerator24generate_arraycopy_stubsEv
   fun:_ZN13StubGenerator20generate_final_stubsEv
   fun:_Z22StubGenerator_generateP10CodeBufferN17StubCodeGenerator9StubsKindE
   fun:_ZL16initialize_stubsN17StubCodeGenerator9StubsKindEiiPKcS2_S2_.constprop.0
   fun:_Z16final_stubs_initv
   fun:_Z13init_globals2v
   fun:_ZN7Threads9create_vmEP14JavaVMInitArgsPb
}

{
   <insert_a_suppression_name_here>
   Memcheck:Leak
   match-leak-kinds: reachable
   fun:malloc
   fun:_ZN2os6mallocEm8MEMFLAGSRK15NativeCallStack
   fun:_Z12AllocateHeapm8MEMFLAGSN17AllocFailStrategy13AllocFailEnumE
   fun:_ZN12StubCodeMarkC1EP17StubCodeGeneratorPKcS3_
   fun:_ZN13StubGenerator31generate_disjoint_long_oop_copyEbbPPhPKcb
   fun:_ZN13StubGenerator24generate_arraycopy_stubsEv
   fun:_ZN13StubGenerator20generate_final_stubsEv
   fun:_Z22StubGenerator_generateP10CodeBufferN17StubCodeGenerator9StubsKindE
   fun:_ZL16initialize_stubsN17StubCodeGenerator9StubsKindEiiPKcS2_S2_.constprop.0
   fun:_Z16final_stubs_initv
   fun:_Z13init_globals2v
   fun:_ZN7Threads9create_vmEP14JavaVMInitArgsPb
}

{
   <insert_a_suppression_name_here>
   Memcheck:Leak
   match-leak-kinds: reachable
   fun:malloc
   fun:_ZN2os6mallocEm8MEMFLAGSRK15NativeCallStack
   fun:_Z12AllocateHeapm8MEMFLAGSN17AllocFailStrategy13AllocFailEnumE
   fun:_ZN12StubCodeMarkC1EP17StubCodeGeneratorPKcS3_
   fun:_ZN13StubGenerator34generate_data_cache_writeback_syncEv
   fun:_ZN13StubGenerator20generate_final_stubsEv
   fun:_Z22StubGenerator_generateP10CodeBufferN17StubCodeGenerator9StubsKindE
   fun:_ZL16initialize_stubsN17StubCodeGenerator9StubsKindEiiPKcS2_S2_.constprop.0
   fun:_Z16final_stubs_initv
   fun:_Z13init_globals2v
   fun:_ZN7Threads9create_vmEP14JavaVMInitArgsPb
   fun:JNI_CreateJavaVM
}

{
   <insert_a_suppression_name_here>
   Memcheck:Leak
   match-leak-kinds: reachable
   fun:malloc
   fun:_ZN2os6mallocEm8MEMFLAGSRK15NativeCallStack
   fun:_Z12AllocateHeapm8MEMFLAGSN17AllocFailStrategy13AllocFailEnumE
   fun:_ZN12StubCodeMarkC1EP17StubCodeGeneratorPKcS3_
   fun:_ZN19ICacheStubGenerator21generate_icache_flushEPPFiPhiiE
   fun:_ZN14AbstractICache10initializeEv
   fun:_Z12init_globalsv
   fun:_ZN7Threads9create_vmEP14JavaVMInitArgsPb
   fun:JNI_CreateJavaVM
   fun:JavaMain
   fun:ThreadJavaMain
   fun:start_thread
}

{
   <insert_a_suppression_name_here>
   Memcheck:Leak
   match-leak-kinds: reachable
   fun:malloc
   fun:_ZN2os6mallocEm8MEMFLAGSRK15NativeCallStack
   fun:_Z12AllocateHeapm8MEMFLAGSN17AllocFailStrategy13AllocFailEnumE
   fun:_ZN12StubCodeMarkC1EP17StubCodeGeneratorPKcS3_
   fun:_ZN24VM_Version_StubGenerator21generate_get_cpu_infoEv
   fun:_ZN10VM_Version10initializeEv
   fun:_Z15VM_Version_initv
   fun:_Z12init_globalsv
   fun:_ZN7Threads9create_vmEP14JavaVMInitArgsPb
   fun:JNI_CreateJavaVM
   fun:JavaMain
   fun:ThreadJavaMain
}

{
   <insert_a_suppression_name_here>
   Memcheck:Leak
   match-leak-kinds: reachable
   fun:malloc
   fun:_ZN2os6mallocEm8MEMFLAGSRK15NativeCallStack
   fun:_Z12AllocateHeapm8MEMFLAGSN17AllocFailStrategy13AllocFailEnumE
   fun:_ZN12StubCodeMarkC1EP17StubCodeGeneratorPKcS3_
   fun:_ZN24VM_Version_StubGenerator28generate_getCPUIDBrandStringEv
   fun:_ZN10VM_Version14initialize_tscEv
   fun:_ZN5Rdtsc10initializeEv
   fun:_ZN29CompositeElapsedCounterSource3nowEv
   fun:_ZN15G1CollectedHeapC1Ev
   fun:_ZN11G1Arguments11create_heapEv
   fun:_Z13universe_initv
   fun:_Z12init_globalsv
}

{
   <insert_a_suppression_name_here>
   Memcheck:Leak
   match-leak-kinds: reachable
   fun:malloc
   fun:_ZN2os6mallocEm8MEMFLAGSRK15NativeCallStack
   fun:_Z12AllocateHeapm8MEMFLAGSN17AllocFailStrategy13AllocFailEnumE
   fun:_ZN12TruncatedSeqC1Eid
   fun:_ZN11G1AnalyticsC1EPK13G1Predictions
   fun:_ZN8G1PolicyC1EP10STWGCTimer
   fun:_ZN15G1CollectedHeapC1Ev
   fun:_ZN11G1Arguments11create_heapEv
   fun:_Z13universe_initv
   fun:_Z12init_globalsv
   fun:_ZN7Threads9create_vmEP14JavaVMInitArgsPb
   fun:JNI_CreateJavaVM
}

{
   <insert_a_suppression_name_here>
   Memcheck:Leak
   match-leak-kinds: reachable
   fun:malloc
   fun:_ZN2os6mallocEm8MEMFLAGSRK15NativeCallStack
   fun:_Z12AllocateHeapm8MEMFLAGSN17AllocFailStrategy13AllocFailEnumE
   fun:_ZN12TruncatedSeqC1Eid
   fun:_ZN15G1SurvRateGroup19stop_adding_regionsEv
   fun:_ZN15G1SurvRateGroup5resetEv
   fun:_ZN15G1SurvRateGroupC1Ev
   fun:_ZN8G1PolicyC1EP10STWGCTimer
   fun:_ZN15G1CollectedHeapC1Ev
   fun:_ZN11G1Arguments11create_heapEv
   fun:_Z13universe_initv
   fun:_Z12init_globalsv
}

{
   <insert_a_suppression_name_here>
   Memcheck:Leak
   match-leak-kinds: reachable
   fun:malloc
   fun:_ZN2os6mallocEm8MEMFLAGSRK15NativeCallStack
   fun:_Z12AllocateHeapm8MEMFLAGSN17AllocFailStrategy13AllocFailEnumE
   fun:_ZN12TruncatedSeqC1Eid
   fun:_ZN15G1SurvRateGroup19stop_adding_regionsEv
   fun:_ZN8G1Policy29record_young_collection_startEv
   fun:_ZN16G1YoungCollector7collectEv
   fun:_ZN15G1CollectedHeap39do_collection_pause_at_safepoint_helperEv
   fun:_ZN15G1CollectedHeap32do_collection_pause_at_safepointEv
   fun:_ZN25VM_G1CollectForAllocation4doitEv
   fun:_ZN12VM_Operation8evaluateEv
   fun:_ZN8VMThread18evaluate_operationEP12VM_Operation
}

{
   <insert_a_suppression_name_here>
   Memcheck:Leak
   match-leak-kinds: reachable
   fun:malloc
   fun:_ZN2os6mallocEm8MEMFLAGSRK15NativeCallStack
   fun:_Z12AllocateHeapm8MEMFLAGSN17AllocFailStrategy13AllocFailEnumE
   fun:_ZN12TruncatedSeqC1Eid
   fun:_ZN21G1AdaptiveIHOPControlC1EdPK25G1OldGenAllocationTrackerPK13G1Predictionsmm
   fun:_ZN8G1PolicyC1EP10STWGCTimer
   fun:_ZN15G1CollectedHeapC1Ev
   fun:_ZN11G1Arguments11create_heapEv
   fun:_Z13universe_initv
   fun:_Z12init_globalsv
   fun:_ZN7Threads9create_vmEP14JavaVMInitArgsPb
   fun:JNI_CreateJavaVM
}

{
   <insert_a_suppression_name_here>
   Memcheck:Leak
   match-leak-kinds: reachable
   fun:malloc
   fun:_ZN2os6mallocEm8MEMFLAGSRK15NativeCallStack
   fun:_Z12AllocateHeapm8MEMFLAGSN17AllocFailStrategy13AllocFailEnumE
   fun:_ZN12TruncatedSeqC1Eid
   fun:_ZN8G1CMTaskC1EjP16G1ConcurrentMarkP16GenericTaskQueueI16G1TaskQueueEntryL8MEMFLAGS5ELj131072EEP17G1RegionMarkStats
   fun:_ZN16G1ConcurrentMarkC1EP15G1CollectedHeapP21G1RegionToSpaceMapper
   fun:_ZN15G1CollectedHeap10initializeEv
   fun:_Z13universe_initv
   fun:_Z12init_globalsv
   fun:_ZN7Threads9create_vmEP14JavaVMInitArgsPb
   fun:JNI_CreateJavaVM
   fun:JavaMain
}

{
   <insert_a_suppression_name_here>
   Memcheck:Leak
   match-leak-kinds: reachable
   fun:malloc
   fun:_ZN2os6mallocEm8MEMFLAGSRK15NativeCallStack
   fun:_Z12AllocateHeapm8MEMFLAGSN17AllocFailStrategy13AllocFailEnumE
   fun:_ZN12stringStream5writeEPKcm
   fun:_ZN12outputStream44do_vsnprintf_and_write_with_automatic_bufferEPKcP13__va_list_tagb
   fun:_ZN13GCLogPrecious6vwriteE15LogTargetHandlePKcP13__va_list_tag
   fun:_ZN19GCLogPreciousHandle5writeEPKcz
   fun:_ZN22G1CardSetConfigurationC1Ev
   fun:_ZN15G1CollectedHeapC1Ev
   fun:_ZN11G1Arguments11create_heapEv
   fun:_Z13universe_initv
   fun:_Z12init_globalsv
}

{
   <insert_a_suppression_name_here>
   Memcheck:Leak
   match-leak-kinds: reachable
   fun:malloc
   fun:_ZN2os6mallocEm8MEMFLAGSRK15NativeCallStack
   fun:_Z12AllocateHeapm8MEMFLAGSN17AllocFailStrategy13AllocFailEnumE
   fun:_ZN13CollectedHeapC1Ev
   fun:_ZN15G1CollectedHeapC1Ev
   fun:_ZN11G1Arguments11create_heapEv
   fun:_Z13universe_initv
   fun:_Z12init_globalsv
   fun:_ZN7Threads9create_vmEP14JavaVMInitArgsPb
   fun:JNI_CreateJavaVM
   fun:JavaMain
   fun:ThreadJavaMain
}

{
   <insert_a_suppression_name_here>
   Memcheck:Leak
   match-leak-kinds: reachable
   fun:malloc
   fun:_ZN2os6mallocEm8MEMFLAGSRK15NativeCallStack
   fun:_Z12AllocateHeapm8MEMFLAGSN17AllocFailStrategy13AllocFailEnumE
   fun:_ZN13G1CodeRootSetC1Ev
   fun:_ZN16HeapRegionRemSetC1EP10HeapRegionP22G1CardSetConfiguration
   fun:_ZN10HeapRegionC1EjP18G1BlockOffsetTable9MemRegionP22G1CardSetConfiguration
   fun:_ZN15G1CollectedHeap15new_heap_regionEj9MemRegion
   fun:_ZN15G1CollectedHeap10initializeEv
   fun:_Z13universe_initv
   fun:_Z12init_globalsv
   fun:_ZN7Threads9create_vmEP14JavaVMInitArgsPb
   fun:JNI_CreateJavaVM
}

{
   <insert_a_suppression_name_here>
   Memcheck:Leak
   match-leak-kinds: reachable
   fun:malloc
   fun:_ZN2os6mallocEm8MEMFLAGSRK15NativeCallStack
   fun:_Z12AllocateHeapm8MEMFLAGSN17AllocFailStrategy13AllocFailEnumE
   fun:_ZN13G1CodeRootSetC1Ev
   fun:_ZN16HeapRegionRemSetC1EP10HeapRegionP22G1CardSetConfiguration
   fun:_ZN10HeapRegionC1EjP18G1BlockOffsetTable9MemRegionP22G1CardSetConfiguration
   fun:_ZN15G1CollectedHeap15new_heap_regionEj9MemRegion
   fun:_ZN17HeapRegionManager12expand_exactEjjP13WorkerThreads
   fun:_ZN17HeapRegionManager27allocate_containing_regionsE9MemRegionPmP13WorkerThreads
   fun:_ZN15G1CollectedHeap21alloc_archive_regionsE9MemRegion
   fun:_ZN11FileMapInfo20map_heap_region_implEv
   fun:_ZN11FileMapInfo23map_or_load_heap_regionEv
}

{
   <insert_a_suppression_name_here>
   Memcheck:Leak
   match-leak-kinds: reachable
   fun:malloc
   fun:_ZN2os6mallocEm8MEMFLAGSRK15NativeCallStack
   fun:_Z12AllocateHeapm8MEMFLAGSN17AllocFailStrategy13AllocFailEnumE
   fun:_ZN13G1CodeRootSetC1Ev
   fun:_ZN16HeapRegionRemSetC1EP10HeapRegionP22G1CardSetConfiguration
   fun:_ZN10HeapRegionC1EjP18G1BlockOffsetTable9MemRegionP22G1CardSetConfiguration
   fun:_ZN15G1CollectedHeap15new_heap_regionEj9MemRegion
   fun:_ZN17HeapRegionManager6expandEjjP13WorkerThreads
   fun:_ZN17HeapRegionManager9expand_byEjP13WorkerThreads
   fun:_ZN15G1CollectedHeap6expandEmP13WorkerThreadsPd
   fun:_ZN15G1CollectedHeap10initializeEv
   fun:_Z13universe_initv
}

{
   <insert_a_suppression_name_here>
   Memcheck:Leak
   match-leak-kinds: reachable
   fun:malloc
   fun:_ZN2os6mallocEm8MEMFLAGSRK15NativeCallStack
   fun:_Z12AllocateHeapm8MEMFLAGSN17AllocFailStrategy13AllocFailEnumE
   fun:_ZN13GCLogPrecious10initializeEv
   fun:_Z13universe_initv
   fun:_Z12init_globalsv
   fun:_ZN7Threads9create_vmEP14JavaVMInitArgsPb
   fun:JNI_CreateJavaVM
   fun:JavaMain
   fun:ThreadJavaMain
   fun:start_thread
   fun:clone
}

{
   <insert_a_suppression_name_here>
   Memcheck:Leak
   match-leak-kinds: reachable
   fun:malloc
   fun:_ZN2os6mallocEm8MEMFLAGSRK15NativeCallStack
   fun:_Z12AllocateHeapm8MEMFLAGSN17AllocFailStrategy13AllocFailEnumE
   fun:_ZN13InstanceKlass10jni_id_forEi
   fun:jni_GetStaticFieldID
   fun:checked_jni_GetStaticFieldID
   fun:Java_java_lang_System_setErr0
   obj:*
   obj:*
   obj:*
   fun:_ZN9JavaCalls11call_helperEP9JavaValueRK12methodHandleP17JavaCallArgumentsP10JavaThread
   fun:_ZN9JavaCalls11call_staticEP9JavaValueP5KlassP6SymbolS5_P10JavaThread
}

{
   <insert_a_suppression_name_here>
   Memcheck:Leak
   match-leak-kinds: reachable
   fun:malloc
   fun:_ZN2os6mallocEm8MEMFLAGSRK15NativeCallStack
   fun:_Z12AllocateHeapm8MEMFLAGSN17AllocFailStrategy13AllocFailEnumE
   fun:_ZN13InstanceKlass10jni_id_forEi
   fun:jni_GetStaticFieldID
   fun:checked_jni_GetStaticFieldID
   fun:Java_java_lang_System_setIn0
   obj:*
   obj:*
   obj:*
   fun:_ZN9JavaCalls11call_helperEP9JavaValueRK12methodHandleP17JavaCallArgumentsP10JavaThread
   fun:_ZN9JavaCalls11call_staticEP9JavaValueP5KlassP6SymbolS5_P10JavaThread
}

{
   <insert_a_suppression_name_here>
   Memcheck:Leak
   match-leak-kinds: reachable
   fun:malloc
   fun:_ZN2os6mallocEm8MEMFLAGSRK15NativeCallStack
   fun:_Z12AllocateHeapm8MEMFLAGSN17AllocFailStrategy13AllocFailEnumE
   fun:_ZN13InstanceKlass10jni_id_forEi
   fun:jni_GetStaticFieldID
   fun:checked_jni_GetStaticFieldID
   fun:Java_java_lang_System_setOut0
   obj:*
   obj:*
   obj:*
   fun:_ZN9JavaCalls11call_helperEP9JavaValueRK12methodHandleP17JavaCallArgumentsP10JavaThread
   fun:_ZN9JavaCalls11call_staticEP9JavaValueP5KlassP6SymbolS5_P10JavaThread
}

{
   <insert_a_suppression_name_here>
   Memcheck:Leak
   match-leak-kinds: reachable
   fun:malloc
   fun:_ZN2os6mallocEm8MEMFLAGSRK15NativeCallStack
   fun:_Z12AllocateHeapm8MEMFLAGSN17AllocFailStrategy13AllocFailEnumE
   fun:_ZN13InstanceKlass14get_jmethod_idERK12methodHandle
   fun:_ZN6Method10jmethod_idEv
   fun:_ZL13get_method_idP7JNIEnv_P7_jclassPKcS4_bP10JavaThread.constprop.0
   fun:jni_GetMethodID
   fun:checked_jni_GetMethodID
   fun:InitializeEncoding
   fun:Java_jdk_internal_util_SystemProps_00024Raw_platformProperties
   obj:*
   obj:*
}

{
   <insert_a_suppression_name_here>
   Memcheck:Leak
   match-leak-kinds: reachable
   fun:malloc
   fun:_ZN2os6mallocEm8MEMFLAGSRK15NativeCallStack
   fun:_Z12AllocateHeapm8MEMFLAGSN17AllocFailStrategy13AllocFailEnumE
   fun:_ZN13InstanceKlass14get_jmethod_idERK12methodHandle
   fun:_ZN6Method10jmethod_idEv
   fun:_ZL13get_method_idP7JNIEnv_P7_jclassPKcS4_bP10JavaThread.constprop.0
   fun:jni_GetMethodID
   fun:checked_jni_GetMethodID
   fun:_ZL29initializeDirectBufferSupportP7JNIEnv_P10JavaThread.part.0
   fun:jni_NewDirectByteBuffer
   fun:checked_jni_NewDirectByteBuffer
   fun:Perf_CreateLong
}

{
   <insert_a_suppression_name_here>
   Memcheck:Leak
   match-leak-kinds: reachable
   fun:malloc
   fun:_ZN2os6mallocEm8MEMFLAGSRK15NativeCallStack
   fun:_Z12AllocateHeapm8MEMFLAGSN17AllocFailStrategy13AllocFailEnumE
   fun:_ZN13InstanceKlass14get_jmethod_idERK12methodHandle
   fun:_ZN6Method10jmethod_idEv
   fun:_ZL13get_method_idP7JNIEnv_P7_jclassPKcS4_bP10JavaThread.constprop.0
   fun:jni_GetStaticMethodID
   fun:checked_jni_GetStaticMethodID
   fun:JNU_CallStaticMethodByName
   fun:InitializeEncoding
   fun:Java_jdk_internal_util_SystemProps_00024Raw_platformProperties
   obj:*
}

{
   <insert_a_suppression_name_here>
   Memcheck:Leak
   match-leak-kinds: reachable
   fun:malloc
   fun:_ZN2os6mallocEm8MEMFLAGSRK15NativeCallStack
   fun:_Z12AllocateHeapm8MEMFLAGSN17AllocFailStrategy13AllocFailEnumE
   fun:_ZN13InstanceKlass14get_jmethod_idERK12methodHandle
   fun:_ZN6Method10jmethod_idEv
   fun:_ZL13get_method_idP7JNIEnv_P7_jclassPKcS4_bP10JavaThread.constprop.0
   fun:jni_GetStaticMethodID
   fun:checked_jni_GetStaticMethodID
   fun:JavaMain
   fun:ThreadJavaMain
   fun:start_thread
   fun:clone
}

{
   <insert_a_suppression_name_here>
   Memcheck:Leak
   match-leak-kinds: reachable
   fun:malloc
   fun:_ZN2os6mallocEm8MEMFLAGSRK15NativeCallStack
   fun:_Z12AllocateHeapm8MEMFLAGSN17AllocFailStrategy13AllocFailEnumE
   fun:_ZN13InstanceKlass8mask_forERK12methodHandleiP17InterpreterOopMap
   fun:_ZN6Method8mask_forEiP17InterpreterOopMap
   fun:_ZNK17interpretedVFrame10stack_dataEb
   fun:JVM_GetStackAccessControlContext
   obj:*
   obj:*
   obj:*
   obj:*
   obj:*
}

{
   <insert_a_suppression_name_here>
   Memcheck:Leak
   match-leak-kinds: reachable
   fun:malloc
   fun:_ZN2os6mallocEm8MEMFLAGSRK15NativeCallStack
   fun:_Z12AllocateHeapm8MEMFLAGSN17AllocFailStrategy13AllocFailEnumE
   fun:_ZN13InstanceKlass8mask_forERK12methodHandleiP17InterpreterOopMap
   fun:_ZNK5frame19oops_interpreted_doEP10OopClosurePK11RegisterMapb
   fun:_ZN10JavaThread14oops_do_framesEP10OopClosureP15CodeBlobClosure.part.0
   fun:_ZN6Thread7oops_doEP10OopClosureP15CodeBlobClosure
   fun:_ZN7Threads25possibly_parallel_oops_doEbP10OopClosureP15CodeBlobClosure
   fun:_ZN15G1RootProcessor18process_java_rootsEP14G1RootClosuresP14G1GCPhaseTimesj
   fun:_ZN15G1RootProcessor14evacuate_rootsEP20G1ParScanThreadStatej
   fun:_ZN21G1EvacuateRegionsTask10scan_rootsEP20G1ParScanThreadStatej
   fun:_ZN25G1EvacuateRegionsBaseTask4workEj
}

{
   <insert_a_suppression_name_here>
   Memcheck:Leak
   match-leak-kinds: reachable
   fun:malloc
   fun:_ZN2os6mallocEm8MEMFLAGSRK15NativeCallStack
   fun:_Z12AllocateHeapm8MEMFLAGSN17AllocFailStrategy13AllocFailEnumE
   fun:_ZN13MemoryManager28get_metaspace_memory_managerEv
   fun:_ZN13MemoryService26add_metaspace_memory_poolsEv
   fun:_Z18universe_post_initv
   fun:_Z13init_globals2v
   fun:_ZN7Threads9create_vmEP14JavaVMInitArgsPb
   fun:JNI_CreateJavaVM
   fun:JavaMain
   fun:ThreadJavaMain
   fun:start_thread
}

{
   <insert_a_suppression_name_here>
   Memcheck:Leak
   match-leak-kinds: reachable
   fun:malloc
   fun:_ZN2os6mallocEm8MEMFLAGSRK15NativeCallStack
   fun:_Z12AllocateHeapm8MEMFLAGSN17AllocFailStrategy13AllocFailEnumE
   fun:_ZN13MemoryManager29get_code_cache_memory_managerEv
   fun:_ZN13MemoryService25add_code_heap_memory_poolEP8CodeHeapPKc
   fun:_ZN9CodeCache10initializeEv
   fun:_Z12init_globalsv
   fun:_ZN7Threads9create_vmEP14JavaVMInitArgsPb
   fun:JNI_CreateJavaVM
   fun:JavaMain
   fun:ThreadJavaMain
   fun:start_thread
}

{
   <insert_a_suppression_name_here>
   Memcheck:Leak
   match-leak-kinds: reachable
   fun:malloc
   fun:_ZN2os6mallocEm8MEMFLAGSRK15NativeCallStack
   fun:_Z12AllocateHeapm8MEMFLAGSN17AllocFailStrategy13AllocFailEnumE
   fun:_ZN13MemoryService25add_code_heap_memory_poolEP8CodeHeapPKc
   fun:_ZN9CodeCache10initializeEv
   fun:_Z12init_globalsv
   fun:_ZN7Threads9create_vmEP14JavaVMInitArgsPb
   fun:JNI_CreateJavaVM
   fun:JavaMain
   fun:ThreadJavaMain
   fun:start_thread
   fun:clone
}

{
   <insert_a_suppression_name_here>
   Memcheck:Leak
   match-leak-kinds: reachable
   fun:malloc
   fun:_ZN2os6mallocEm8MEMFLAGSRK15NativeCallStack
   fun:_Z12AllocateHeapm8MEMFLAGSN17AllocFailStrategy13AllocFailEnumE
   fun:_ZN13MemoryService26add_metaspace_memory_poolsEv
   fun:_Z18universe_post_initv
   fun:_Z13init_globals2v
   fun:_ZN7Threads9create_vmEP14JavaVMInitArgsPb
   fun:JNI_CreateJavaVM
   fun:JavaMain
   fun:ThreadJavaMain
   fun:start_thread
   fun:clone
}

{
   <insert_a_suppression_name_here>
   Memcheck:Leak
   match-leak-kinds: reachable
   fun:malloc
   fun:_ZN2os6mallocEm8MEMFLAGSRK15NativeCallStack
   fun:_Z12AllocateHeapm8MEMFLAGSN17AllocFailStrategy13AllocFailEnumE
   fun:_ZN13MetaspacePoolC1Ev
   fun:_ZN13MemoryService26add_metaspace_memory_poolsEv
   fun:_Z18universe_post_initv
   fun:_Z13init_globals2v
   fun:_ZN7Threads9create_vmEP14JavaVMInitArgsPb
   fun:JNI_CreateJavaVM
   fun:JavaMain
   fun:ThreadJavaMain
   fun:start_thread
}

{
   <insert_a_suppression_name_here>
   Memcheck:Leak
   match-leak-kinds: reachable
   fun:malloc
   fun:_ZN2os6mallocEm8MEMFLAGSRK15NativeCallStack
   fun:_Z12AllocateHeapm8MEMFLAGSN17AllocFailStrategy13AllocFailEnumE
   fun:_ZN13ServiceThread10initializeEv
   fun:_ZN7Threads9create_vmEP14JavaVMInitArgsPb
   fun:JNI_CreateJavaVM
   fun:JavaMain
   fun:ThreadJavaMain
   fun:start_thread
   fun:clone
}

{
   <insert_a_suppression_name_here>
   Memcheck:Leak
   match-leak-kinds: reachable
   fun:malloc
   fun:_ZN2os6mallocEm8MEMFLAGSRK15NativeCallStack
   fun:_Z12AllocateHeapm8MEMFLAGSN17AllocFailStrategy13AllocFailEnumE
   fun:_ZN13WorkerThreads13create_workerEj
   fun:_ZN13WorkerThreads18initialize_workersEv
   fun:_ZN15G1CollectedHeap10initializeEv
   fun:_Z13universe_initv
   fun:_Z12init_globalsv
   fun:_ZN7Threads9create_vmEP14JavaVMInitArgsPb
   fun:JNI_CreateJavaVM
   fun:JavaMain
   fun:ThreadJavaMain
}

{
   <insert_a_suppression_name_here>
   Memcheck:Leak
   match-leak-kinds: reachable
   fun:malloc
   fun:_ZN2os6mallocEm8MEMFLAGSRK15NativeCallStack
   fun:_Z12AllocateHeapm8MEMFLAGSN17AllocFailStrategy13AllocFailEnumE
   fun:_ZN13WorkerThreads13create_workerEj
   fun:_ZN13WorkerThreads18initialize_workersEv
   fun:_ZN16G1ConcurrentMarkC1EP15G1CollectedHeapP21G1RegionToSpaceMapper
   fun:_ZN15G1CollectedHeap10initializeEv
   fun:_Z13universe_initv
   fun:_Z12init_globalsv
   fun:_ZN7Threads9create_vmEP14JavaVMInitArgsPb
   fun:JNI_CreateJavaVM
   fun:JavaMain
}

{
   <insert_a_suppression_name_here>
   Memcheck:Leak
   match-leak-kinds: reachable
   fun:malloc
   fun:_ZN2os6mallocEm8MEMFLAGSRK15NativeCallStack
   fun:_Z12AllocateHeapm8MEMFLAGSN17AllocFailStrategy13AllocFailEnumE
   fun:_ZN13WorkerThreads13create_workerEj
   fun:_ZN13WorkerThreads18set_active_workersEj
   fun:_ZN16G1YoungCollector7collectEv
   fun:_ZN15G1CollectedHeap39do_collection_pause_at_safepoint_helperEv
   fun:_ZN15G1CollectedHeap32do_collection_pause_at_safepointEv
   fun:_ZN25VM_G1CollectForAllocation4doitEv
   fun:_ZN12VM_Operation8evaluateEv
   fun:_ZN8VMThread18evaluate_operationEP12VM_Operation
   fun:_ZN8VMThread13inner_executeEP12VM_Operation
}

{
   <insert_a_suppression_name_here>
   Memcheck:Leak
   match-leak-kinds: reachable
   fun:malloc
   fun:_ZN2os6mallocEm8MEMFLAGSRK15NativeCallStack
   fun:_Z12AllocateHeapm8MEMFLAGSN17AllocFailStrategy13AllocFailEnumE
   fun:_ZN13WorkerThreadsC1EPKcj
   fun:_ZN15G1CollectedHeap10initializeEv
   fun:_Z13universe_initv
   fun:_Z12init_globalsv
   fun:_ZN7Threads9create_vmEP14JavaVMInitArgsPb
   fun:JNI_CreateJavaVM
   fun:JavaMain
   fun:ThreadJavaMain
   fun:start_thread
}

{
   <insert_a_suppression_name_here>
   Memcheck:Leak
   match-leak-kinds: reachable
   fun:malloc
   fun:_ZN2os6mallocEm8MEMFLAGSRK15NativeCallStack
   fun:_Z12AllocateHeapm8MEMFLAGSN17AllocFailStrategy13AllocFailEnumE
   fun:_ZN13WorkerThreadsC1EPKcj
   fun:_ZN16G1ConcurrentMarkC1EP15G1CollectedHeapP21G1RegionToSpaceMapper
   fun:_ZN15G1CollectedHeap10initializeEv
   fun:_Z13universe_initv
   fun:_Z12init_globalsv
   fun:_ZN7Threads9create_vmEP14JavaVMInitArgsPb
   fun:JNI_CreateJavaVM
   fun:JavaMain
   fun:ThreadJavaMain
}

{
   <insert_a_suppression_name_here>
   Memcheck:Leak
   match-leak-kinds: reachable
   fun:malloc
   fun:_ZN2os6mallocEm8MEMFLAGSRK15NativeCallStack
   fun:_Z12AllocateHeapm8MEMFLAGSN17AllocFailStrategy13AllocFailEnumE
   fun:_ZN14CompilationLog4initEv
   fun:_Z18compileBroker_initv
   fun:_Z13init_globals2v
   fun:_ZN7Threads9create_vmEP14JavaVMInitArgsPb
   fun:JNI_CreateJavaVM
   fun:JavaMain
   fun:ThreadJavaMain
   fun:start_thread
   fun:clone
}

{
   <insert_a_suppression_name_here>
   Memcheck:Leak
   match-leak-kinds: reachable
   fun:malloc
   fun:_ZN2os6mallocEm8MEMFLAGSRK15NativeCallStack
   fun:_Z12AllocateHeapm8MEMFLAGSN17AllocFailStrategy13AllocFailEnumE
   fun:_ZN14CompressedOops10initializeERK17ReservedHeapSpace
   fun:_ZN8Universe12reserve_heapEmm
   fun:_ZN15G1CollectedHeap10initializeEv
   fun:_Z13universe_initv
   fun:_Z12init_globalsv
   fun:_ZN7Threads9create_vmEP14JavaVMInitArgsPb
   fun:JNI_CreateJavaVM
   fun:JavaMain
   fun:ThreadJavaMain
}

{
   <insert_a_suppression_name_here>
   Memcheck:Leak
   match-leak-kinds: reachable
   fun:malloc
   fun:_ZN2os6mallocEm8MEMFLAGSRK15NativeCallStack
   fun:_Z12AllocateHeapm8MEMFLAGSN17AllocFailStrategy13AllocFailEnumE
   fun:_ZN14G1GCPhaseTimesC1EP10STWGCTimerj
   fun:_ZN8G1Policy27record_young_gc_pause_startEv
   fun:_ZN16G1YoungCollector7collectEv
   fun:_ZN15G1CollectedHeap39do_collection_pause_at_safepoint_helperEv
   fun:_ZN15G1CollectedHeap32do_collection_pause_at_safepointEv
   fun:_ZN25VM_G1CollectForAllocation4doitEv
   fun:_ZN12VM_Operation8evaluateEv
   fun:_ZN8VMThread18evaluate_operationEP12VM_Operation
   fun:_ZN8VMThread13inner_executeEP12VM_Operation
}

{
   <insert_a_suppression_name_here>
   Memcheck:Leak
   match-leak-kinds: reachable
   fun:malloc
   fun:_ZN2os6mallocEm8MEMFLAGSRK15NativeCallStack
   fun:_Z12AllocateHeapm8MEMFLAGSN17AllocFailStrategy13AllocFailEnumE
   fun:_ZN14HSpaceCountersC1EPKcS1_imm
   fun:_ZN19G1MonitoringSupportC1EP15G1CollectedHeap
   fun:_ZN15G1CollectedHeap10initializeEv
   fun:_Z13universe_initv
   fun:_Z12init_globalsv
   fun:_ZN7Threads9create_vmEP14JavaVMInitArgsPb
   fun:JNI_CreateJavaVM
   fun:JavaMain
   fun:ThreadJavaMain
}

{
   <insert_a_suppression_name_here>
   Memcheck:Leak
   match-leak-kinds: reachable
   fun:malloc
   fun:_ZN2os6mallocEm8MEMFLAGSRK15NativeCallStack
   fun:_Z12AllocateHeapm8MEMFLAGSN17AllocFailStrategy13AllocFailEnumE
   fun:_ZN14JNIHandleBlock14allocate_blockEP10JavaThreadN17AllocFailStrategy13AllocFailEnumE
   fun:_ZN10JavaThread3runEv
   fun:_ZN6Thread8call_runEv
   fun:_ZL19thread_native_entryP6Thread
   fun:start_thread
   fun:clone
}

{
   <insert_a_suppression_name_here>
   Memcheck:Leak
   match-leak-kinds: reachable
   fun:malloc
   fun:_ZN2os6mallocEm8MEMFLAGSRK15NativeCallStack
   fun:_Z12AllocateHeapm8MEMFLAGSN17AllocFailStrategy13AllocFailEnumE
   fun:_ZN14JNIHandleBlock14allocate_blockEP10JavaThreadN17AllocFailStrategy13AllocFailEnumE
   fun:_ZN15JavaCallWrapperC1ERK12methodHandle6HandleP9JavaValueP10JavaThread
   fun:_ZN9JavaCalls11call_helperEP9JavaValueRK12methodHandleP17JavaCallArgumentsP10JavaThread
   fun:_ZN13InstanceKlass22call_class_initializerEP10JavaThread
   fun:_ZN13InstanceKlass15initialize_implEP10JavaThread
   fun:Unsafe_EnsureClassInitialized0
   obj:*
   obj:*
   obj:*
}

{
   <insert_a_suppression_name_here>
   Memcheck:Leak
   match-leak-kinds: reachable
   fun:malloc
   fun:_ZN2os6mallocEm8MEMFLAGSRK15NativeCallStack
   fun:_Z12AllocateHeapm8MEMFLAGSN17AllocFailStrategy13AllocFailEnumE
   fun:_ZN14JNIHandleBlock14allocate_blockEP10JavaThreadN17AllocFailStrategy13AllocFailEnumE
   fun:_ZN15JavaCallWrapperC1ERK12methodHandle6HandleP9JavaValueP10JavaThread
   fun:_ZN9JavaCalls11call_helperEP9JavaValueRK12methodHandleP17JavaCallArgumentsP10JavaThread
   fun:_ZN13InstanceKlass22call_class_initializerEP10JavaThread
   fun:_ZN13InstanceKlass15initialize_implEP10JavaThread
   fun:_ZN12LinkResolver13resolve_fieldER15fieldDescriptorRK8LinkInfoN9Bytecodes4CodeEbP10JavaThread
   fun:_ZN12LinkResolver20resolve_field_accessER15fieldDescriptorRK18constantPoolHandleiRK12methodHandleN9Bytecodes4CodeEP10JavaThread
   fun:_ZN18InterpreterRuntime15resolve_get_putEP10JavaThreadN9Bytecodes4CodeE
   fun:_ZN18InterpreterRuntime18resolve_from_cacheEP10JavaThreadN9Bytecodes4CodeE
}

{
   <insert_a_suppression_name_here>
   Memcheck:Leak
   match-leak-kinds: reachable
   fun:malloc
   fun:_ZN2os6mallocEm8MEMFLAGSRK15NativeCallStack
   fun:_Z12AllocateHeapm8MEMFLAGSN17AllocFailStrategy13AllocFailEnumE
   fun:_ZN14JNIHandleBlock14allocate_blockEP10JavaThreadN17AllocFailStrategy13AllocFailEnumE
   fun:_ZN15JavaCallWrapperC1ERK12methodHandle6HandleP9JavaValueP10JavaThread
   fun:_ZN9JavaCalls11call_helperEP9JavaValueRK12methodHandleP17JavaCallArgumentsP10JavaThread
   fun:_ZN13InstanceKlass22call_class_initializerEP10JavaThread
   fun:_ZN13InstanceKlass15initialize_implEP10JavaThread
   fun:_ZN12LinkResolver19resolve_static_callER8CallInfoRK8LinkInfobP10JavaThread
   fun:_ZN12LinkResolver14resolve_invokeER8CallInfo6HandleRK18constantPoolHandleiN9Bytecodes4CodeEP10JavaThread
   fun:_ZN18InterpreterRuntime14resolve_invokeEP10JavaThreadN9Bytecodes4CodeE
   fun:_ZN18InterpreterRuntime18resolve_from_cacheEP10JavaThreadN9Bytecodes4CodeE
}

{
   <insert_a_suppression_name_here>
   Memcheck:Leak
   match-leak-kinds: reachable
   fun:malloc
   fun:_ZN2os6mallocEm8MEMFLAGSRK15NativeCallStack
   fun:_Z12AllocateHeapm8MEMFLAGSN17AllocFailStrategy13AllocFailEnumE
   fun:_ZN14JNIHandleBlock14allocate_blockEP10JavaThreadN17AllocFailStrategy13AllocFailEnumE
   fun:_ZN15JavaCallWrapperC1ERK12methodHandle6HandleP9JavaValueP10JavaThread
   fun:_ZN9JavaCalls11call_helperEP9JavaValueRK12methodHandleP17JavaCallArgumentsP10JavaThread
   fun:_ZN9JavaCalls12call_virtualEP9JavaValue6HandleP5KlassP6SymbolS6_P10JavaThread
   fun:_ZL12thread_entryP10JavaThreadS0_
   fun:_ZN10JavaThread17thread_main_innerEv
   fun:_ZN6Thread8call_runEv
   fun:_ZL19thread_native_entryP6Thread
   fun:start_thread
}

{
   <insert_a_suppression_name_here>
   Memcheck:Leak
   match-leak-kinds: reachable
   fun:malloc
   fun:_ZN2os6mallocEm8MEMFLAGSRK15NativeCallStack
   fun:_Z12AllocateHeapm8MEMFLAGSN17AllocFailStrategy13AllocFailEnumE
   fun:_ZN14SystemPropertyC1EPKcS1_bb
   fun:_ZN14CompressedOops10initializeERK17ReservedHeapSpace
   fun:_ZN8Universe12reserve_heapEmm
   fun:_ZN15G1CollectedHeap10initializeEv
   fun:_Z13universe_initv
   fun:_Z12init_globalsv
   fun:_ZN7Threads9create_vmEP14JavaVMInitArgsPb
   fun:JNI_CreateJavaVM
   fun:JavaMain
}

{
   <insert_a_suppression_name_here>
   Memcheck:Leak
   match-leak-kinds: reachable
   fun:malloc
   fun:_ZN2os6mallocEm8MEMFLAGSRK15NativeCallStack
   fun:_Z12AllocateHeapm8MEMFLAGSN17AllocFailStrategy13AllocFailEnumE
   fun:_ZN14TimePartitionsC1Ev
   fun:_ZN15G1CollectedHeapC1Ev
   fun:_ZN11G1Arguments11create_heapEv
   fun:_Z13universe_initv
   fun:_Z12init_globalsv
   fun:_ZN7Threads9create_vmEP14JavaVMInitArgsPb
   fun:JNI_CreateJavaVM
   fun:JavaMain
   fun:ThreadJavaMain
}

{
   <insert_a_suppression_name_here>
   Memcheck:Leak
   match-leak-kinds: reachable
   fun:malloc
   fun:_ZN2os6mallocEm8MEMFLAGSRK15NativeCallStack
   fun:_Z12AllocateHeapm8MEMFLAGSN17AllocFailStrategy13AllocFailEnumE
   fun:_ZN14TimePartitionsC1Ev
   fun:_ZN16G1ConcurrentMarkC1EP15G1CollectedHeapP21G1RegionToSpaceMapper
   fun:_ZN15G1CollectedHeap10initializeEv
   fun:_Z13universe_initv
   fun:_Z12init_globalsv
   fun:_ZN7Threads9create_vmEP14JavaVMInitArgsPb
   fun:JNI_CreateJavaVM
   fun:JavaMain
   fun:ThreadJavaMain
}

{
   <insert_a_suppression_name_here>
   Memcheck:Leak
   match-leak-kinds: reachable
   fun:malloc
   fun:_ZN2os6mallocEm8MEMFLAGSRK15NativeCallStack
   fun:_Z12AllocateHeapm8MEMFLAGSN17AllocFailStrategy13AllocFailEnumE
   fun:_ZN15ClassLoaderData10add_handleE6Handle
   fun:_ZN11ModuleEntry21restore_archived_oopsEP15ClassLoaderData
   fun:_ZN16ModuleEntryTable21restore_archived_oopsEP15ClassLoaderDataP5ArrayIP11ModuleEntryE
   fun:_ZN21ClassLoaderDataShared48restore_archived_oops_for_null_class_loader_dataEv
   fun:_ZN7Modules23define_archived_modulesE6HandleS0_P10JavaThread
   fun:JVM_DefineArchivedModules
   obj:*
   obj:*
   obj:*
}

{
   <insert_a_suppression_name_here>
   Memcheck:Leak
   match-leak-kinds: reachable
   fun:malloc
   fun:_ZN2os6mallocEm8MEMFLAGSRK15NativeCallStack
   fun:_Z12AllocateHeapm8MEMFLAGSN17AllocFailStrategy13AllocFailEnumE
   fun:_ZN15ClassLoaderData10add_handleE6Handle
   fun:_ZN12ConstantPool24restore_unshareable_infoEP10JavaThread
   fun:_ZN13InstanceKlass24restore_unshareable_infoEP15ClassLoaderData6HandleP12PackageEntryP10JavaThread
   fun:_ZN16SystemDictionary17load_shared_classEP13InstanceKlass6HandleS2_PK15ClassFileStreamP12PackageEntryP10JavaThread
   fun:_ZN16SystemDictionary24load_instance_class_implEP6Symbol6HandleP10JavaThread
   fun:_ZN16SystemDictionary19load_instance_classEP6Symbol6HandleP10JavaThread
   fun:_ZN16SystemDictionary30resolve_instance_class_or_nullEP6Symbol6HandleS2_P10JavaThread
   fun:_ZN10HeapShared39resolve_or_init_classes_for_subgraph_ofEP5KlassbP10JavaThread
   fun:_ZN10HeapShared29resolve_classes_for_subgraphsEP10JavaThreadP25ArchivableStaticFieldInfo
}

{
   <insert_a_suppression_name_here>
   Memcheck:Leak
   match-leak-kinds: reachable
   fun:malloc
   fun:_ZN2os6mallocEm8MEMFLAGSRK15NativeCallStack
   fun:_Z12AllocateHeapm8MEMFLAGSN17AllocFailStrategy13AllocFailEnumE
   fun:_ZN15ClassLoaderData10add_handleE6Handle
   fun:_ZN12ConstantPool24restore_unshareable_infoEP10JavaThread
   fun:_ZN13InstanceKlass24restore_unshareable_infoEP15ClassLoaderData6HandleP12PackageEntryP10JavaThread
   fun:_ZN16SystemDictionary17load_shared_classEP13InstanceKlass6HandleS2_PK15ClassFileStreamP12PackageEntryP10JavaThread
   fun:_ZN16SystemDictionary24load_instance_class_implEP6Symbol6HandleP10JavaThread
   fun:_ZN16SystemDictionary19load_instance_classEP6Symbol6HandleP10JavaThread
   fun:_ZN16SystemDictionary30resolve_instance_class_or_nullEP6Symbol6HandleS2_P10JavaThread
   fun:_ZN16SystemDictionary15resolve_or_failEP6Symbol6HandleS2_bP10JavaThread
   fun:_ZN12ConstantPool13klass_at_implERK18constantPoolHandleiP10JavaThread
}

{
   <insert_a_suppression_name_here>
   Memcheck:Leak
   match-leak-kinds: reachable
   fun:malloc
   fun:_ZN2os6mallocEm8MEMFLAGSRK15NativeCallStack
   fun:_Z12AllocateHeapm8MEMFLAGSN17AllocFailStrategy13AllocFailEnumE
   fun:_ZN15ClassLoaderData10add_handleE6Handle
   fun:_ZN12ConstantPool24restore_unshareable_infoEP10JavaThread
   fun:_ZN13InstanceKlass24restore_unshareable_infoEP15ClassLoaderData6HandleP12PackageEntryP10JavaThread
   fun:_ZN16SystemDictionary17load_shared_classEP13InstanceKlass6HandleS2_PK15ClassFileStreamP12PackageEntryP10JavaThread
   fun:_ZN16SystemDictionary24load_instance_class_implEP6Symbol6HandleP10JavaThread
   fun:_ZN16SystemDictionary19load_instance_classEP6Symbol6HandleP10JavaThread
   fun:_ZN16SystemDictionary30resolve_instance_class_or_nullEP6Symbol6HandleS2_P10JavaThread
   fun:_ZN16SystemDictionary21resolve_super_or_failEP6SymbolS1_6HandleS2_bP10JavaThread
   fun:_ZN16SystemDictionary29check_shared_class_super_typeEP13InstanceKlassS1_6HandleS2_bP10JavaThread
}

{
   <insert_a_suppression_name_here>
   Memcheck:Leak
   match-leak-kinds: reachable
   fun:malloc
   fun:_ZN2os6mallocEm8MEMFLAGSRK15NativeCallStack
   fun:_Z12AllocateHeapm8MEMFLAGSN17AllocFailStrategy13AllocFailEnumE
   fun:_ZN15ClassLoaderData10add_handleE6Handle
   fun:_ZN12ConstantPool24restore_unshareable_infoEP10JavaThread
   fun:_ZN13InstanceKlass24restore_unshareable_infoEP15ClassLoaderData6HandleP12PackageEntryP10JavaThread
   fun:_ZN16SystemDictionary17load_shared_classEP13InstanceKlass6HandleS2_PK15ClassFileStreamP12PackageEntryP10JavaThread
   fun:_ZN16SystemDictionary24load_instance_class_implEP6Symbol6HandleP10JavaThread
   fun:_ZN16SystemDictionary19load_instance_classEP6Symbol6HandleP10JavaThread
   fun:_ZN16SystemDictionary30resolve_instance_class_or_nullEP6Symbol6HandleS2_P10JavaThread
   fun:_ZN16SystemDictionary21resolve_super_or_failEP6SymbolS1_6HandleS2_bP10JavaThread
   fun:_ZN16SystemDictionary30check_shared_class_super_typesEP13InstanceKlass6HandleS2_P10JavaThread
}

{
   <insert_a_suppression_name_here>
   Memcheck:Leak
   match-leak-kinds: reachable
   fun:malloc
   fun:_ZN2os6mallocEm8MEMFLAGSRK15NativeCallStack
   fun:_Z12AllocateHeapm8MEMFLAGSN17AllocFailStrategy13AllocFailEnumE
   fun:_ZN15ClassLoaderData10add_handleE6Handle
   fun:_ZN12ConstantPool24restore_unshareable_infoEP10JavaThread
   fun:_ZN13InstanceKlass24restore_unshareable_infoEP15ClassLoaderData6HandleP12PackageEntryP10JavaThread
   fun:_ZN9vmClasses20resolve_shared_classEP13InstanceKlassP15ClassLoaderData6HandleP10JavaThread
   fun:_ZN9vmClasses20resolve_shared_classEP13InstanceKlassP15ClassLoaderData6HandleP10JavaThread
   fun:_ZN9vmClasses7resolveE9vmClassIDP10JavaThread
   fun:_ZN9vmClasses11resolve_allEP10JavaThread
   fun:_ZN16SystemDictionary10initializeEP10JavaThread
   fun:_ZN8Universe7genesisEP10JavaThread
}

{
   <insert_a_suppression_name_here>
   Memcheck:Leak
   match-leak-kinds: reachable
   fun:malloc
   fun:_ZN2os6mallocEm8MEMFLAGSRK15NativeCallStack
   fun:_Z12AllocateHeapm8MEMFLAGSN17AllocFailStrategy13AllocFailEnumE
   fun:_ZN15ClassLoaderData10add_handleE6Handle
   fun:_ZN12ConstantPool24restore_unshareable_infoEP10JavaThread
   fun:_ZN9vmClasses11resolve_allEP10JavaThread
   fun:_ZN16SystemDictionary10initializeEP10JavaThread
   fun:_ZN8Universe7genesisEP10JavaThread
   fun:_Z14universe2_initv
   fun:_Z13init_globals2v
   fun:_ZN7Threads9create_vmEP14JavaVMInitArgsPb
   fun:JNI_CreateJavaVM
}

{
   <insert_a_suppression_name_here>
   Memcheck:Leak
   match-leak-kinds: reachable
   fun:malloc
   fun:_ZN2os6mallocEm8MEMFLAGSRK15NativeCallStack
   fun:_Z12AllocateHeapm8MEMFLAGSN17AllocFailStrategy13AllocFailEnumE
   fun:_ZN15ClassLoaderData10add_handleE6Handle
   fun:_ZN12ConstantPool30initialize_resolved_referencesEP15ClassLoaderDataRK13GrowableArrayIiEiP10JavaThread
   fun:_ZN8Rewriter24make_constant_pool_cacheEP10JavaThread
   fun:_ZN8RewriterC1EP13InstanceKlassRK18constantPoolHandleP5ArrayIP6MethodEP10JavaThread
   fun:_ZN8Rewriter7rewriteEP13InstanceKlassP10JavaThread
   fun:_ZN13InstanceKlass15link_class_implEP10JavaThread
   fun:_ZN13InstanceKlass15initialize_implEP10JavaThread
   fun:_ZN12LinkResolver13resolve_fieldER15fieldDescriptorRK8LinkInfoN9Bytecodes4CodeEbP10JavaThread
   fun:_ZN12LinkResolver20resolve_field_accessER15fieldDescriptorRK18constantPoolHandleiRK12methodHandleN9Bytecodes4CodeEP10JavaThread
}

{
   <insert_a_suppression_name_here>
   Memcheck:Leak
   match-leak-kinds: reachable
   fun:malloc
   fun:_ZN2os6mallocEm8MEMFLAGSRK15NativeCallStack
   fun:_Z12AllocateHeapm8MEMFLAGSN17AllocFailStrategy13AllocFailEnumE
   fun:_ZN15ClassLoaderData10add_handleE6Handle
   fun:_ZN12ConstantPool30initialize_resolved_referencesEP15ClassLoaderDataRK13GrowableArrayIiEiP10JavaThread
   fun:_ZN8Rewriter24make_constant_pool_cacheEP10JavaThread
   fun:_ZN8RewriterC1EP13InstanceKlassRK18constantPoolHandleP5ArrayIP6MethodEP10JavaThread
   fun:_ZN8Rewriter7rewriteEP13InstanceKlassP10JavaThread
   fun:_ZN13InstanceKlass15link_class_implEP10JavaThread
   fun:_ZN13InstanceKlass15initialize_implEP10JavaThread
   fun:_ZN12LinkResolver19resolve_static_callER8CallInfoRK8LinkInfobP10JavaThread
   fun:_ZN12LinkResolver14resolve_invokeER8CallInfo6HandleRK18constantPoolHandleiN9Bytecodes4CodeEP10JavaThread
}

{
   <insert_a_suppression_name_here>
   Memcheck:Leak
   match-leak-kinds: reachable
   fun:malloc
   fun:_ZN2os6mallocEm8MEMFLAGSRK15NativeCallStack
   fun:_Z12AllocateHeapm8MEMFLAGSN17AllocFailStrategy13AllocFailEnumE
   fun:_ZN15ClassLoaderData10add_handleE6Handle
   fun:_ZN12ConstantPool30initialize_resolved_referencesEP15ClassLoaderDataRK13GrowableArrayIiEiP10JavaThread
   fun:_ZN8Rewriter24make_constant_pool_cacheEP10JavaThread
   fun:_ZN8RewriterC1EP13InstanceKlassRK18constantPoolHandleP5ArrayIP6MethodEP10JavaThread
   fun:_ZN8Rewriter7rewriteEP13InstanceKlassP10JavaThread
   fun:_ZN13InstanceKlass15link_class_implEP10JavaThread
   fun:_ZN13InstanceKlass15initialize_implEP10JavaThread
   fun:_ZN18InterpreterRuntime4_newEP10JavaThreadP12ConstantPooli
   obj:*
}

{
   <insert_a_suppression_name_here>
   Memcheck:Leak
   match-leak-kinds: reachable
   fun:malloc
   fun:_ZN2os6mallocEm8MEMFLAGSRK15NativeCallStack
   fun:_Z12AllocateHeapm8MEMFLAGSN17AllocFailStrategy13AllocFailEnumE
   fun:_ZN15ClassLoaderData10add_handleE6Handle
   fun:_ZN12ConstantPool30initialize_resolved_referencesEP15ClassLoaderDataRK13GrowableArrayIiEiP10JavaThread
   fun:_ZN8Rewriter24make_constant_pool_cacheEP10JavaThread
   fun:_ZN8RewriterC1EP13InstanceKlassRK18constantPoolHandleP5ArrayIP6MethodEP10JavaThread
   fun:_ZN8Rewriter7rewriteEP13InstanceKlassP10JavaThread
   fun:_ZN13InstanceKlass15link_class_implEP10JavaThread
   fun:_ZN13InstanceKlass15link_class_implEP10JavaThread
   fun:_ZN13InstanceKlass15initialize_implEP10JavaThread
   fun:_ZN18InterpreterRuntime4_newEP10JavaThreadP12ConstantPooli
}

{
   <insert_a_suppression_name_here>
   Memcheck:Leak
   match-leak-kinds: reachable
   fun:malloc
   fun:_ZN2os6mallocEm8MEMFLAGSRK15NativeCallStack
   fun:_Z12AllocateHeapm8MEMFLAGSN17AllocFailStrategy13AllocFailEnumE
   fun:_ZN15ClassLoaderData10add_handleE6Handle
   fun:_ZN5Klass15set_java_mirrorE6Handle
   fun:_ZN15java_lang_Class13create_mirrorEP5Klass6HandleS2_S2_S2_P10JavaThread
   fun:_ZN15ClassFileParser19fill_instance_klassEP13InstanceKlassbRK17ClassInstanceInfoP10JavaThread
   fun:_ZN15ClassFileParser21create_instance_klassEbRK17ClassInstanceInfoP10JavaThread
   fun:_ZN12KlassFactory18create_from_streamEP15ClassFileStreamP6SymbolP15ClassLoaderDataRK13ClassLoadInfoP10JavaThread
   fun:_ZN11ClassLoader10load_classEP6SymbolbP10JavaThread
   fun:_ZN16SystemDictionary24load_instance_class_implEP6Symbol6HandleP10JavaThread
   fun:_ZN16SystemDictionary19load_instance_classEP6Symbol6HandleP10JavaThread
}

{
   <insert_a_suppression_name_here>
   Memcheck:Leak
   match-leak-kinds: reachable
   fun:malloc
   fun:_ZN2os6mallocEm8MEMFLAGSRK15NativeCallStack
   fun:_Z12AllocateHeapm8MEMFLAGSN17AllocFailStrategy13AllocFailEnumE
   fun:_ZN15ClassLoaderData10add_handleE6Handle
   fun:_ZN5Klass15set_java_mirrorE6Handle
   fun:_ZN15java_lang_Class13create_mirrorEP5Klass6HandleS2_S2_S2_P10JavaThread
   fun:_ZN15ClassFileParser19fill_instance_klassEP13InstanceKlassbRK17ClassInstanceInfoP10JavaThread
   fun:_ZN15ClassFileParser21create_instance_klassEbRK17ClassInstanceInfoP10JavaThread
   fun:_ZN12KlassFactory18create_from_streamEP15ClassFileStreamP6SymbolP15ClassLoaderDataRK13ClassLoadInfoP10JavaThread
   fun:_ZN16SystemDictionary19resolve_from_streamEP15ClassFileStreamP6Symbol6HandleRK13ClassLoadInfoP10JavaThread
   fun:_ZL23jvm_lookup_define_classP7_jclassPKcPKaiP8_jobjecthiS6_P10JavaThread
   fun:JVM_LookupDefineClass
}

{
   <insert_a_suppression_name_here>
   Memcheck:Leak
   match-leak-kinds: reachable
   fun:malloc
   fun:_ZN2os6mallocEm8MEMFLAGSRK15NativeCallStack
   fun:_Z12AllocateHeapm8MEMFLAGSN17AllocFailStrategy13AllocFailEnumE
   fun:_ZN15ClassLoaderData10add_handleE6Handle
   fun:_ZN5Klass15set_java_mirrorE6Handle
   fun:_ZN15java_lang_Class13create_mirrorEP5Klass6HandleS2_S2_S2_P10JavaThread
   fun:_ZN15ClassFileParser19fill_instance_klassEP13InstanceKlassbRK17ClassInstanceInfoP10JavaThread
   fun:_ZN15ClassFileParser21create_instance_klassEbRK17ClassInstanceInfoP10JavaThread
   fun:_ZN12KlassFactory18create_from_streamEP15ClassFileStreamP6SymbolP15ClassLoaderDataRK13ClassLoadInfoP10JavaThread
   fun:_ZN16SystemDictionary25resolve_class_from_streamEP15ClassFileStreamP6Symbol6HandleRK13ClassLoadInfoP10JavaThread
   fun:_ZL23jvm_define_class_commonPKcP8_jobjectPKaiS2_S0_P10JavaThread
   fun:JVM_DefineClassWithSource
}

{
   <insert_a_suppression_name_here>
   Memcheck:Leak
   match-leak-kinds: reachable
   fun:malloc
   fun:_ZN2os6mallocEm8MEMFLAGSRK15NativeCallStack
   fun:_Z12AllocateHeapm8MEMFLAGSN17AllocFailStrategy13AllocFailEnumE
   fun:_ZN15ClassLoaderData10add_handleE6Handle
   fun:_ZN5Klass15set_java_mirrorE6Handle
   fun:_ZN15java_lang_Class23restore_archived_mirrorEP5Klass6HandleS2_S2_P10JavaThread
   fun:_ZN5Klass24restore_unshareable_infoEP15ClassLoaderData6HandleP10JavaThread
   fun:_ZN13InstanceKlass24restore_unshareable_infoEP15ClassLoaderData6HandleP12PackageEntryP10JavaThread
   fun:_ZN16SystemDictionary17load_shared_classEP13InstanceKlass6HandleS2_PK15ClassFileStreamP12PackageEntryP10JavaThread
   fun:_ZN16SystemDictionary24load_instance_class_implEP6Symbol6HandleP10JavaThread
   fun:_ZN16SystemDictionary19load_instance_classEP6Symbol6HandleP10JavaThread
   fun:_ZN16SystemDictionary30resolve_instance_class_or_nullEP6Symbol6HandleS2_P10JavaThread
}

{
   <insert_a_suppression_name_here>
   Memcheck:Leak
   match-leak-kinds: reachable
   fun:malloc
   fun:_ZN2os6mallocEm8MEMFLAGSRK15NativeCallStack
   fun:_Z12AllocateHeapm8MEMFLAGSN17AllocFailStrategy13AllocFailEnumE
   fun:_ZN15ClassLoaderData10add_handleE6Handle
   fun:_ZN5Klass15set_java_mirrorE6Handle
   fun:_ZN15java_lang_Class23restore_archived_mirrorEP5Klass6HandleS2_S2_P10JavaThread
   fun:_ZN5Klass24restore_unshareable_infoEP15ClassLoaderData6HandleP10JavaThread
   fun:_ZN13InstanceKlass24restore_unshareable_infoEP15ClassLoaderData6HandleP12PackageEntryP10JavaThread
   fun:_ZN9vmClasses20resolve_shared_classEP13InstanceKlassP15ClassLoaderData6HandleP10JavaThread
   fun:_ZN9vmClasses7resolveE9vmClassIDP10JavaThread
   fun:_ZN9vmClasses11resolve_allEP10JavaThread
   fun:_ZN16SystemDictionary10initializeEP10JavaThread
}

{
   <insert_a_suppression_name_here>
   Memcheck:Leak
   match-leak-kinds: reachable
   fun:malloc
   fun:_ZN2os6mallocEm8MEMFLAGSRK15NativeCallStack
   fun:_Z12AllocateHeapm8MEMFLAGSN17AllocFailStrategy13AllocFailEnumE
   fun:_ZN15ClassLoaderData10add_handleE6Handle
   fun:_ZN5Klass15set_java_mirrorE6Handle
   fun:_ZN15java_lang_Class23restore_archived_mirrorEP5Klass6HandleS2_S2_P10JavaThread
   fun:_ZN8Universe13fixup_mirrorsEP10JavaThread
   fun:_ZN9vmClasses11resolve_allEP10JavaThread
   fun:_ZN16SystemDictionary10initializeEP10JavaThread
   fun:_ZN8Universe7genesisEP10JavaThread
   fun:_Z14universe2_initv
   fun:_Z13init_globals2v
}

{
   <insert_a_suppression_name_here>
   Memcheck:Leak
   match-leak-kinds: reachable
   fun:malloc
   fun:_ZN2os6mallocEm8MEMFLAGSRK15NativeCallStack
   fun:_Z12AllocateHeapm8MEMFLAGSN17AllocFailStrategy13AllocFailEnumE
   fun:_ZN15ClassLoaderData17create_dictionaryEv
   fun:_ZN15ClassLoaderData27init_null_class_loader_dataEv
   fun:_Z13universe_initv
   fun:_Z12init_globalsv
   fun:_ZN7Threads9create_vmEP14JavaVMInitArgsPb
   fun:JNI_CreateJavaVM
   fun:JavaMain
   fun:ThreadJavaMain
   fun:start_thread
}

{
   <insert_a_suppression_name_here>
   Memcheck:Leak
   match-leak-kinds: reachable
   fun:malloc
   fun:_ZN2os6mallocEm8MEMFLAGSRK15NativeCallStack
   fun:_Z12AllocateHeapm8MEMFLAGSN17AllocFailStrategy13AllocFailEnumE
   fun:_ZN15ClassLoaderData17create_dictionaryEv
   fun:_ZN15ClassLoaderDataC1E6Handleb
   fun:_ZN20ClassLoaderDataGraph12add_to_graphE6Handleb
   fun:_ZN20ClassLoaderDataGraph3addE6Handleb
   fun:_ZN7Modules23define_archived_modulesE6HandleS0_P10JavaThread
   fun:JVM_DefineArchivedModules
   obj:*
   obj:*
   obj:*
}

{
   <insert_a_suppression_name_here>
   Memcheck:Leak
   match-leak-kinds: reachable
   fun:malloc
   fun:_ZN2os6mallocEm8MEMFLAGSRK15NativeCallStack
   fun:_Z12AllocateHeapm8MEMFLAGSN17AllocFailStrategy13AllocFailEnumE
   fun:_ZN15ClassLoaderData18metaspace_non_nullEv
   fun:_ZN9Metaspace8allocateEP15ClassLoaderDatamN12MetaspaceObj4TypeEP10JavaThread
   fun:_ZN12ConstantPool8allocateEP15ClassLoaderDataiP10JavaThread
   fun:_ZN15ClassFileParser12parse_streamEPK15ClassFileStreamP10JavaThread.part.0
   fun:_ZN15ClassFileParserC1EP15ClassFileStreamP6SymbolP15ClassLoaderDataPK13ClassLoadInfoNS_9PublicityEP10JavaThread
   fun:_ZN12KlassFactory18create_from_streamEP15ClassFileStreamP6SymbolP15ClassLoaderDataRK13ClassLoadInfoP10JavaThread
   fun:_ZN16SystemDictionary19resolve_from_streamEP15ClassFileStreamP6Symbol6HandleRK13ClassLoadInfoP10JavaThread
   fun:_ZL23jvm_lookup_define_classP7_jclassPKcPKaiP8_jobjecthiS6_P10JavaThread
   fun:JVM_LookupDefineClass
}

{
   <insert_a_suppression_name_here>
   Memcheck:Leak
   match-leak-kinds: reachable
   fun:malloc
   fun:_ZN2os6mallocEm8MEMFLAGSRK15NativeCallStack
   fun:_Z12AllocateHeapm8MEMFLAGSN17AllocFailStrategy13AllocFailEnumE
   fun:_ZN15ClassLoaderData18metaspace_non_nullEv
   fun:_ZN9Metaspace8allocateEP15ClassLoaderDatamN12MetaspaceObj4TypeEP10JavaThread
   fun:_ZN12ConstantPool8allocateEP15ClassLoaderDataiP10JavaThread
   fun:_ZN15ClassFileParser12parse_streamEPK15ClassFileStreamP10JavaThread.part.0
   fun:_ZN15ClassFileParserC1EP15ClassFileStreamP6SymbolP15ClassLoaderDataPK13ClassLoadInfoNS_9PublicityEP10JavaThread
   fun:_ZN12KlassFactory18create_from_streamEP15ClassFileStreamP6SymbolP15ClassLoaderDataRK13ClassLoadInfoP10JavaThread
   fun:_ZN16SystemDictionary25resolve_class_from_streamEP15ClassFileStreamP6Symbol6HandleRK13ClassLoadInfoP10JavaThread
   fun:_ZL23jvm_define_class_commonPKcP8_jobjectPKaiS2_S0_P10JavaThread
   fun:JVM_DefineClassWithSource
}

{
   <insert_a_suppression_name_here>
   Memcheck:Leak
   match-leak-kinds: reachable
   fun:malloc
   fun:_ZN2os6mallocEm8MEMFLAGSRK15NativeCallStack
   fun:_Z12AllocateHeapm8MEMFLAGSN17AllocFailStrategy13AllocFailEnumE
   fun:_ZN15ClassLoaderData18metaspace_non_nullEv
   fun:_ZN9Metaspace8allocateEP15ClassLoaderDatamN12MetaspaceObj4TypeEP10JavaThread
   fun:_ZN13ObjArrayKlass23allocate_objArray_klassEP15ClassLoaderDataiP5KlassP10JavaThread
   fun:_ZN13InstanceKlass11array_klassEiP10JavaThread
   fun:_ZN13InstanceKlass17allocate_objArrayEiiP10JavaThread
   fun:_ZN19CDSProtectionDomain39allocate_shared_protection_domain_arrayEiP10JavaThread
   fun:_ZN15MetaspaceShared15post_initializeEP10JavaThread
   fun:_Z18universe_post_initv
   fun:_Z13init_globals2v
}

{
   <insert_a_suppression_name_here>
   Memcheck:Leak
   match-leak-kinds: reachable
   fun:malloc
   fun:_ZN2os6mallocEm8MEMFLAGSRK15NativeCallStack
   fun:_Z12AllocateHeapm8MEMFLAGSN17AllocFailStrategy13AllocFailEnumE
   fun:_ZN15ClassLoaderData22add_to_deallocate_listEP8Metadata
   fun:_ZN12KlassFactory18create_from_streamEP15ClassFileStreamP6SymbolP15ClassLoaderDataRK13ClassLoadInfoP10JavaThread
   fun:_ZN11ClassLoader10load_classEP6SymbolbP10JavaThread
   fun:_ZN16SystemDictionary24load_instance_class_implEP6Symbol6HandleP10JavaThread
   fun:_ZN16SystemDictionary19load_instance_classEP6Symbol6HandleP10JavaThread
   fun:_ZN16SystemDictionary30resolve_instance_class_or_nullEP6Symbol6HandleS2_P10JavaThread
   fun:_ZN16SystemDictionary21resolve_super_or_failEP6SymbolS1_6HandleS2_bP10JavaThread
   fun:_ZN15ClassFileParser26post_process_parsed_streamEPK15ClassFileStreamP12ConstantPoolP10JavaThread
   fun:_ZN12KlassFactory18create_from_streamEP15ClassFileStreamP6SymbolP15ClassLoaderDataRK13ClassLoadInfoP10JavaThread
}

{
   <insert_a_suppression_name_here>
   Memcheck:Leak
   match-leak-kinds: reachable
   fun:malloc
   fun:_ZN2os6mallocEm8MEMFLAGSRK15NativeCallStack
   fun:_Z12AllocateHeapm8MEMFLAGSN17AllocFailStrategy13AllocFailEnumE
   fun:_ZN15ClassLoaderData22add_to_deallocate_listEP8Metadata
   fun:_ZN14DefaultMethods24generate_default_methodsEP13InstanceKlassPK13GrowableArrayIP6MethodEP10JavaThread
   fun:_ZN15ClassFileParser19fill_instance_klassEP13InstanceKlassbRK17ClassInstanceInfoP10JavaThread
   fun:_ZN15ClassFileParser21create_instance_klassEbRK17ClassInstanceInfoP10JavaThread
   fun:_ZN12KlassFactory18create_from_streamEP15ClassFileStreamP6SymbolP15ClassLoaderDataRK13ClassLoadInfoP10JavaThread
   fun:_ZN16SystemDictionary25resolve_class_from_streamEP15ClassFileStreamP6Symbol6HandleRK13ClassLoadInfoP10JavaThread
   fun:_ZL23jvm_define_class_commonPKcP8_jobjectPKaiS2_S0_P10JavaThread
   fun:JVM_DefineClassWithSource
   fun:Java_java_lang_ClassLoader_defineClass1
}

{
   <insert_a_suppression_name_here>
   Memcheck:Leak
   match-leak-kinds: reachable
   fun:malloc
   fun:_ZN2os6mallocEm8MEMFLAGSRK15NativeCallStack
   fun:_Z12AllocateHeapm8MEMFLAGSN17AllocFailStrategy13AllocFailEnumE
   fun:_ZN15ClassLoaderData27init_null_class_loader_dataEv
   fun:_Z13universe_initv
   fun:_Z12init_globalsv
   fun:_ZN7Threads9create_vmEP14JavaVMInitArgsPb
   fun:JNI_CreateJavaVM
   fun:JavaMain
   fun:ThreadJavaMain
   fun:start_thread
   fun:clone
}

{
   <insert_a_suppression_name_here>
   Memcheck:Leak
   match-leak-kinds: reachable
   fun:malloc
   fun:_ZN2os6mallocEm8MEMFLAGSRK15NativeCallStack
   fun:_Z12AllocateHeapm8MEMFLAGSN17AllocFailStrategy13AllocFailEnumE
   fun:_ZN15ClassLoaderData7modulesEv
   fun:_ZN21ClassLoaderDataShared39restore_java_system_loader_from_archiveEP15ClassLoaderData
   fun:JVM_DefineArchivedModules
   obj:*
   obj:*
   obj:*
   obj:*
   fun:_ZN9JavaCalls11call_helperEP9JavaValueRK12methodHandleP17JavaCallArgumentsP10JavaThread
   fun:_ZN9JavaCalls11call_staticEP9JavaValueP5KlassP6SymbolS5_P17JavaCallArgumentsP10JavaThread
}

{
   <insert_a_suppression_name_here>
   Memcheck:Leak
   match-leak-kinds: reachable
   fun:malloc
   fun:_ZN2os6mallocEm8MEMFLAGSRK15NativeCallStack
   fun:_Z12AllocateHeapm8MEMFLAGSN17AllocFailStrategy13AllocFailEnumE
   fun:_ZN15ClassLoaderData7modulesEv
   fun:_ZN21ClassLoaderDataShared41restore_java_platform_loader_from_archiveEP15ClassLoaderData
   fun:_ZN7Modules23define_archived_modulesE6HandleS0_P10JavaThread
   fun:JVM_DefineArchivedModules
   obj:*
   obj:*
   obj:*
   obj:*
   fun:_ZN9JavaCalls11call_helperEP9JavaValueRK12methodHandleP17JavaCallArgumentsP10JavaThread
}

{
   <insert_a_suppression_name_here>
   Memcheck:Leak
   match-leak-kinds: reachable
   fun:malloc
   fun:_ZN2os6mallocEm8MEMFLAGSRK15NativeCallStack
   fun:_Z12AllocateHeapm8MEMFLAGSN17AllocFailStrategy13AllocFailEnumE
   fun:_ZN15ClassLoaderData7modulesEv
   fun:_ZN21ClassLoaderDataShared9serializeEP16SerializeClosure
   fun:_ZN15MetaspaceShared9serializeEP16SerializeClosure
   fun:_ZN15MetaspaceShared24initialize_shared_spacesEv
   fun:_Z13universe_initv
   fun:_Z12init_globalsv
   fun:_ZN7Threads9create_vmEP14JavaVMInitArgsPb
   fun:JNI_CreateJavaVM
   fun:JavaMain
}

{
   <insert_a_suppression_name_here>
   Memcheck:Leak
   match-leak-kinds: reachable
   fun:malloc
   fun:_ZN2os6mallocEm8MEMFLAGSRK15NativeCallStack
   fun:_Z12AllocateHeapm8MEMFLAGSN17AllocFailStrategy13AllocFailEnumE
   fun:_ZN15ClassLoaderDataC1E6Handleb
   fun:_ZN20ClassLoaderDataGraph12add_to_graphE6Handleb
   fun:_ZN20ClassLoaderDataGraph3addE6Handleb
   fun:_ZN16SystemDictionary19resolve_from_streamEP15ClassFileStreamP6Symbol6HandleRK13ClassLoadInfoP10JavaThread
   fun:_ZL23jvm_lookup_define_classP7_jclassPKcPKaiP8_jobjecthiS6_P10JavaThread
   fun:JVM_LookupDefineClass
   fun:Java_java_lang_ClassLoader_defineClass0
   obj:*
   obj:*
}

{
   <insert_a_suppression_name_here>
   Memcheck:Leak
   match-leak-kinds: reachable
   fun:malloc
   fun:_ZN2os6mallocEm8MEMFLAGSRK15NativeCallStack
   fun:_Z12AllocateHeapm8MEMFLAGSN17AllocFailStrategy13AllocFailEnumE
   fun:_ZN15ClassLoaderDataC1E6Handleb
   fun:_ZN20ClassLoaderDataGraph12add_to_graphE6Handleb
   fun:_ZN20ClassLoaderDataGraph3addE6Handleb
   fun:_ZN7Modules23define_archived_modulesE6HandleS0_P10JavaThread
   fun:JVM_DefineArchivedModules
   obj:*
   obj:*
   obj:*
   obj:*
}

{
   <insert_a_suppression_name_here>
   Memcheck:Leak
   match-leak-kinds: reachable
   fun:malloc
   fun:_ZN2os6mallocEm8MEMFLAGSRK15NativeCallStack
   fun:_Z12AllocateHeapm8MEMFLAGSN17AllocFailStrategy13AllocFailEnumE
   fun:_ZN15DirectivesStack4initEv
   fun:_Z18compileBroker_initv
   fun:_Z13init_globals2v
   fun:_ZN7Threads9create_vmEP14JavaVMInitArgsPb
   fun:JNI_CreateJavaVM
   fun:JavaMain
   fun:ThreadJavaMain
   fun:start_thread
   fun:clone
}

{
   <insert_a_suppression_name_here>
   Memcheck:Leak
   match-leak-kinds: reachable
   fun:malloc
   fun:_ZN2os6mallocEm8MEMFLAGSRK15NativeCallStack
   fun:_Z12AllocateHeapm8MEMFLAGSN17AllocFailStrategy13AllocFailEnumE
   fun:_ZN15G1CollectedHeap10initializeEv
   fun:_Z13universe_initv
   fun:_Z12init_globalsv
   fun:_ZN7Threads9create_vmEP14JavaVMInitArgsPb
   fun:JNI_CreateJavaVM
   fun:JavaMain
   fun:ThreadJavaMain
   fun:start_thread
   fun:clone
}

{
   <insert_a_suppression_name_here>
   Memcheck:Leak
   match-leak-kinds: reachable
   fun:malloc
   fun:_ZN2os6mallocEm8MEMFLAGSRK15NativeCallStack
   fun:_Z12AllocateHeapm8MEMFLAGSN17AllocFailStrategy13AllocFailEnumE
   fun:_ZN15G1CollectedHeap15new_heap_regionEj9MemRegion
   fun:_ZN15G1CollectedHeap10initializeEv
   fun:_Z13universe_initv
   fun:_Z12init_globalsv
   fun:_ZN7Threads9create_vmEP14JavaVMInitArgsPb
   fun:JNI_CreateJavaVM
   fun:JavaMain
   fun:ThreadJavaMain
   fun:start_thread
}

{
   <insert_a_suppression_name_here>
   Memcheck:Leak
   match-leak-kinds: reachable
   fun:malloc
   fun:_ZN2os6mallocEm8MEMFLAGSRK15NativeCallStack
   fun:_Z12AllocateHeapm8MEMFLAGSN17AllocFailStrategy13AllocFailEnumE
   fun:_ZN15G1CollectedHeap15new_heap_regionEj9MemRegion
   fun:_ZN17HeapRegionManager12expand_exactEjjP13WorkerThreads
   fun:_ZN17HeapRegionManager27allocate_containing_regionsE9MemRegionPmP13WorkerThreads
   fun:_ZN15G1CollectedHeap21alloc_archive_regionsE9MemRegion
   fun:_ZN11FileMapInfo20map_heap_region_implEv
   fun:_ZN11FileMapInfo23map_or_load_heap_regionEv
   fun:_ZN15MetaspaceShared12map_archivesEP11FileMapInfoS1_b
   fun:_ZN15MetaspaceShared41initialize_runtime_shared_and_meta_spacesEv
   fun:_ZN9Metaspace17global_initializeEv
}

{
   <insert_a_suppression_name_here>
   Memcheck:Leak
   match-leak-kinds: reachable
   fun:malloc
   fun:_ZN2os6mallocEm8MEMFLAGSRK15NativeCallStack
   fun:_Z12AllocateHeapm8MEMFLAGSN17AllocFailStrategy13AllocFailEnumE
   fun:_ZN15G1CollectedHeap15new_heap_regionEj9MemRegion
   fun:_ZN17HeapRegionManager6expandEjjP13WorkerThreads
   fun:_ZN17HeapRegionManager9expand_byEjP13WorkerThreads
   fun:_ZN15G1CollectedHeap6expandEmP13WorkerThreadsPd
   fun:_ZN15G1CollectedHeap10initializeEv
   fun:_Z13universe_initv
   fun:_Z12init_globalsv
   fun:_ZN7Threads9create_vmEP14JavaVMInitArgsPb
   fun:JNI_CreateJavaVM
}

{
   <insert_a_suppression_name_here>
   Memcheck:Leak
   match-leak-kinds: reachable
   fun:malloc
   fun:_ZN2os6mallocEm8MEMFLAGSRK15NativeCallStack
   fun:_Z12AllocateHeapm8MEMFLAGSN17AllocFailStrategy13AllocFailEnumE
   fun:_ZN15G1CollectedHeap15post_initializeEv
   fun:_Z18universe_post_initv
   fun:_Z13init_globals2v
   fun:_ZN7Threads9create_vmEP14JavaVMInitArgsPb
   fun:JNI_CreateJavaVM
   fun:JavaMain
   fun:ThreadJavaMain
   fun:start_thread
   fun:clone
}

{
   <insert_a_suppression_name_here>
   Memcheck:Leak
   match-leak-kinds: reachable
   fun:malloc
   fun:_ZN2os6mallocEm8MEMFLAGSRK15NativeCallStack
   fun:_Z12AllocateHeapm8MEMFLAGSN17AllocFailStrategy13AllocFailEnumE
   fun:_ZN15G1CollectedHeapC1Ev
   fun:_ZN11G1Arguments11create_heapEv
   fun:_Z13universe_initv
   fun:_Z12init_globalsv
   fun:_ZN7Threads9create_vmEP14JavaVMInitArgsPb
   fun:JNI_CreateJavaVM
   fun:JavaMain
   fun:ThreadJavaMain
   fun:start_thread
}

{
   <insert_a_suppression_name_here>
   Memcheck:Leak
   match-leak-kinds: reachable
   fun:malloc
   fun:_ZN2os6mallocEm8MEMFLAGSRK15NativeCallStack
   fun:_Z12AllocateHeapm8MEMFLAGSN17AllocFailStrategy13AllocFailEnumE
   fun:_ZN15G1CollectionSet10initializeEj
   fun:_ZN15G1CollectedHeap10initializeEv
   fun:_Z13universe_initv
   fun:_Z12init_globalsv
   fun:_ZN7Threads9create_vmEP14JavaVMInitArgsPb
   fun:JNI_CreateJavaVM
   fun:JavaMain
   fun:ThreadJavaMain
   fun:start_thread
}

{
   <insert_a_suppression_name_here>
   Memcheck:Leak
   match-leak-kinds: reachable
   fun:malloc
   fun:_ZN2os6mallocEm8MEMFLAGSRK15NativeCallStack
   fun:_Z12AllocateHeapm8MEMFLAGSN17AllocFailStrategy13AllocFailEnumE
   fun:_ZN15G1RemSetSummaryC1Eb
   fun:_ZN8G1RemSetC1EP15G1CollectedHeapP11G1CardTable
   fun:_ZN15G1CollectedHeap10initializeEv
   fun:_Z13universe_initv
   fun:_Z12init_globalsv
   fun:_ZN7Threads9create_vmEP14JavaVMInitArgsPb
   fun:JNI_CreateJavaVM
   fun:JavaMain
   fun:ThreadJavaMain
}

{
   <insert_a_suppression_name_here>
   Memcheck:Leak
   match-leak-kinds: reachable
   fun:malloc
   fun:_ZN2os6mallocEm8MEMFLAGSRK15NativeCallStack
   fun:_Z12AllocateHeapm8MEMFLAGSN17AllocFailStrategy13AllocFailEnumE
   fun:_ZN15G1SurvRateGroup19stop_adding_regionsEv
   fun:_ZN15G1SurvRateGroup5resetEv
   fun:_ZN15G1SurvRateGroupC1Ev
   fun:_ZN8G1PolicyC1EP10STWGCTimer
   fun:_ZN15G1CollectedHeapC1Ev
   fun:_ZN11G1Arguments11create_heapEv
   fun:_Z13universe_initv
   fun:_Z12init_globalsv
   fun:_ZN7Threads9create_vmEP14JavaVMInitArgsPb
}

{
   <insert_a_suppression_name_here>
   Memcheck:Leak
   match-leak-kinds: reachable
   fun:malloc
   fun:_ZN2os6mallocEm8MEMFLAGSRK15NativeCallStack
   fun:_Z12AllocateHeapm8MEMFLAGSN17AllocFailStrategy13AllocFailEnumE
   fun:_ZN15G1SurvRateGroup19stop_adding_regionsEv
   fun:_ZN8G1Policy29record_young_collection_startEv
   fun:_ZN16G1YoungCollector7collectEv
   fun:_ZN15G1CollectedHeap39do_collection_pause_at_safepoint_helperEv
   fun:_ZN15G1CollectedHeap32do_collection_pause_at_safepointEv
   fun:_ZN25VM_G1CollectForAllocation4doitEv
   fun:_ZN12VM_Operation8evaluateEv
   fun:_ZN8VMThread18evaluate_operationEP12VM_Operation
   fun:_ZN8VMThread13inner_executeEP12VM_Operation
}

{
   <insert_a_suppression_name_here>
   Memcheck:Leak
   match-leak-kinds: reachable
   fun:malloc
   fun:_ZN2os6mallocEm8MEMFLAGSRK15NativeCallStack
   fun:_Z12AllocateHeapm8MEMFLAGSN17AllocFailStrategy13AllocFailEnumE
   fun:_ZN15GCMemoryManager23initialize_gc_stat_infoEv
   fun:_ZN13MemoryService17set_universe_heapEP13CollectedHeap
   fun:_Z18universe_post_initv
   fun:_Z13init_globals2v
   fun:_ZN7Threads9create_vmEP14JavaVMInitArgsPb
   fun:JNI_CreateJavaVM
   fun:JavaMain
   fun:ThreadJavaMain
   fun:start_thread
}

{
   <insert_a_suppression_name_here>
   Memcheck:Leak
   match-leak-kinds: reachable
   fun:malloc
   fun:_ZN2os6mallocEm8MEMFLAGSRK15NativeCallStack
   fun:_Z12AllocateHeapm8MEMFLAGSN17AllocFailStrategy13AllocFailEnumE
   fun:_ZN15GCMemoryManagerC1EPKc
   fun:_ZN19G1MonitoringSupportC1EP15G1CollectedHeap
   fun:_ZN15G1CollectedHeap10initializeEv
   fun:_Z13universe_initv
   fun:_Z12init_globalsv
   fun:_ZN7Threads9create_vmEP14JavaVMInitArgsPb
   fun:JNI_CreateJavaVM
   fun:JavaMain
   fun:ThreadJavaMain
}

{
   <insert_a_suppression_name_here>
   Memcheck:Leak
   match-leak-kinds: reachable
   fun:malloc
   fun:_ZN2os6mallocEm8MEMFLAGSRK15NativeCallStack
   fun:_Z12AllocateHeapm8MEMFLAGSN17AllocFailStrategy13AllocFailEnumE
   fun:_ZN15MetaspaceShared41initialize_runtime_shared_and_meta_spacesEv
   fun:_ZN9Metaspace17global_initializeEv
   fun:_Z13universe_initv
   fun:_Z12init_globalsv
   fun:_ZN7Threads9create_vmEP14JavaVMInitArgsPb
   fun:JNI_CreateJavaVM
   fun:JavaMain
   fun:ThreadJavaMain
   fun:start_thread
}

{
   <insert_a_suppression_name_here>
   Memcheck:Leak
   match-leak-kinds: reachable
   fun:malloc
   fun:_ZN2os6mallocEm8MEMFLAGSRK15NativeCallStack
   fun:_Z12AllocateHeapm8MEMFLAGSN17AllocFailStrategy13AllocFailEnumE
   fun:_ZN15WorkerDataArrayIdE24create_thread_work_itemsEPKcjj.constprop.0
   fun:_ZN14G1GCPhaseTimesC1EP10STWGCTimerj
   fun:_ZN8G1Policy27record_young_gc_pause_startEv
   fun:_ZN16G1YoungCollector7collectEv
   fun:_ZN15G1CollectedHeap39do_collection_pause_at_safepoint_helperEv
   fun:_ZN15G1CollectedHeap32do_collection_pause_at_safepointEv
   fun:_ZN25VM_G1CollectForAllocation4doitEv
   fun:_ZN12VM_Operation8evaluateEv
   fun:_ZN8VMThread18evaluate_operationEP12VM_Operation
}

{
   <insert_a_suppression_name_here>
   Memcheck:Leak
   match-leak-kinds: reachable
   fun:malloc
   fun:_ZN2os6mallocEm8MEMFLAGSRK15NativeCallStack
   fun:_Z12AllocateHeapm8MEMFLAGSN17AllocFailStrategy13AllocFailEnumE
   fun:_ZN15WorkerDataArrayIdE24create_thread_work_itemsEPKcjj.constprop.1
   fun:_ZN14G1GCPhaseTimesC1EP10STWGCTimerj
   fun:_ZN8G1Policy27record_young_gc_pause_startEv
   fun:_ZN16G1YoungCollector7collectEv
   fun:_ZN15G1CollectedHeap39do_collection_pause_at_safepoint_helperEv
   fun:_ZN15G1CollectedHeap32do_collection_pause_at_safepointEv
   fun:_ZN25VM_G1CollectForAllocation4doitEv
   fun:_ZN12VM_Operation8evaluateEv
   fun:_ZN8VMThread18evaluate_operationEP12VM_Operation
}

{
   <insert_a_suppression_name_here>
   Memcheck:Leak
   match-leak-kinds: reachable
   fun:malloc
   fun:_ZN2os6mallocEm8MEMFLAGSRK15NativeCallStack
   fun:_Z12AllocateHeapm8MEMFLAGSN17AllocFailStrategy13AllocFailEnumE
   fun:_ZN15WorkerDataArrayIdE24create_thread_work_itemsEPKcjj.constprop.2
   fun:_ZN14G1GCPhaseTimesC1EP10STWGCTimerj
   fun:_ZN8G1Policy27record_young_gc_pause_startEv
   fun:_ZN16G1YoungCollector7collectEv
   fun:_ZN15G1CollectedHeap39do_collection_pause_at_safepoint_helperEv
   fun:_ZN15G1CollectedHeap32do_collection_pause_at_safepointEv
   fun:_ZN25VM_G1CollectForAllocation4doitEv
   fun:_ZN12VM_Operation8evaluateEv
   fun:_ZN8VMThread18evaluate_operationEP12VM_Operation
}

{
   <insert_a_suppression_name_here>
   Memcheck:Leak
   match-leak-kinds: reachable
   fun:malloc
   fun:_ZN2os6mallocEm8MEMFLAGSRK15NativeCallStack
   fun:_Z12AllocateHeapm8MEMFLAGSN17AllocFailStrategy13AllocFailEnumE
   fun:_ZN15WorkerDataArrayIdE24create_thread_work_itemsEPKcjj.constprop.3
   fun:_ZN14G1GCPhaseTimesC1EP10STWGCTimerj
   fun:_ZN8G1Policy27record_young_gc_pause_startEv
   fun:_ZN16G1YoungCollector7collectEv
   fun:_ZN15G1CollectedHeap39do_collection_pause_at_safepoint_helperEv
   fun:_ZN15G1CollectedHeap32do_collection_pause_at_safepointEv
   fun:_ZN25VM_G1CollectForAllocation4doitEv
   fun:_ZN12VM_Operation8evaluateEv
   fun:_ZN8VMThread18evaluate_operationEP12VM_Operation
}

{
   <insert_a_suppression_name_here>
   Memcheck:Leak
   match-leak-kinds: reachable
   fun:malloc
   fun:_ZN2os6mallocEm8MEMFLAGSRK15NativeCallStack
   fun:_Z12AllocateHeapm8MEMFLAGSN17AllocFailStrategy13AllocFailEnumE
   fun:_ZN15WorkerDataArrayIdEC1EPKcS2_j
   fun:_ZN14G1GCPhaseTimesC1EP10STWGCTimerj
   fun:_ZN8G1Policy27record_young_gc_pause_startEv
   fun:_ZN16G1YoungCollector7collectEv
   fun:_ZN15G1CollectedHeap39do_collection_pause_at_safepoint_helperEv
   fun:_ZN15G1CollectedHeap32do_collection_pause_at_safepointEv
   fun:_ZN25VM_G1CollectForAllocation4doitEv
   fun:_ZN12VM_Operation8evaluateEv
   fun:_ZN8VMThread18evaluate_operationEP12VM_Operation
}

{
   <insert_a_suppression_name_here>
   Memcheck:Leak
   match-leak-kinds: reachable
   fun:malloc
   fun:_ZN2os6mallocEm8MEMFLAGSRK15NativeCallStack
   fun:_Z12AllocateHeapm8MEMFLAGSN17AllocFailStrategy13AllocFailEnumE
   fun:_ZN16FinalizerService4initEv
   fun:_Z12init_globalsv
   fun:_ZN7Threads9create_vmEP14JavaVMInitArgsPb
   fun:JNI_CreateJavaVM
   fun:JavaMain
   fun:ThreadJavaMain
   fun:start_thread
   fun:clone
}

{
   <insert_a_suppression_name_here>
   Memcheck:Leak
   match-leak-kinds: reachable
   fun:malloc
   fun:_ZN2os6mallocEm8MEMFLAGSRK15NativeCallStack
   fun:_Z12AllocateHeapm8MEMFLAGSN17AllocFailStrategy13AllocFailEnumE
   fun:_ZN16G1ConcurrentMarkC1EP15G1CollectedHeapP21G1RegionToSpaceMapper
   fun:_ZN15G1CollectedHeap10initializeEv
   fun:_Z13universe_initv
   fun:_Z12init_globalsv
   fun:_ZN7Threads9create_vmEP14JavaVMInitArgsPb
   fun:JNI_CreateJavaVM
   fun:JavaMain
   fun:ThreadJavaMain
   fun:start_thread
}

{
   <insert_a_suppression_name_here>
   Memcheck:Leak
   match-leak-kinds: reachable
   fun:malloc
   fun:_ZN2os6mallocEm8MEMFLAGSRK15NativeCallStack
   fun:_Z12AllocateHeapm8MEMFLAGSN17AllocFailStrategy13AllocFailEnumE
   fun:_ZN16G1DirtyCardQueueC1EP19G1DirtyCardQueueSet
   fun:_ZN10JavaThreadC1EPFvPS_S0_Em
   fun:JVM_StartThread
   obj:*
   obj:*
   obj:*
   obj:*
   obj:*
   obj:*
}

{
   <insert_a_suppression_name_here>
   Memcheck:Leak
   match-leak-kinds: reachable
   fun:malloc
   fun:_ZN2os6mallocEm8MEMFLAGSRK15NativeCallStack
   fun:_Z12AllocateHeapm8MEMFLAGSN17AllocFailStrategy13AllocFailEnumE
   fun:_ZN16G1DirtyCardQueueC1EP19G1DirtyCardQueueSet
   fun:_ZN10JavaThreadC1EPFvPS_S0_Em
   fun:_ZN13ServiceThread10initializeEv
   fun:_ZN7Threads9create_vmEP14JavaVMInitArgsPb
   fun:JNI_CreateJavaVM
   fun:JavaMain
   fun:ThreadJavaMain
   fun:start_thread
   fun:clone
}

{
   <insert_a_suppression_name_here>
   Memcheck:Leak
   match-leak-kinds: reachable
   fun:malloc
   fun:_ZN2os6mallocEm8MEMFLAGSRK15NativeCallStack
   fun:_Z12AllocateHeapm8MEMFLAGSN17AllocFailStrategy13AllocFailEnumE
   fun:_ZN16G1DirtyCardQueueC1EP19G1DirtyCardQueueSet
   fun:_ZN10JavaThreadC1EPFvPS_S0_Em
   fun:_ZN18NotificationThread10initializeEv
   fun:_ZN10Management10initializeEP10JavaThread
   fun:_ZN7Threads9create_vmEP14JavaVMInitArgsPb
   fun:JNI_CreateJavaVM
   fun:JavaMain
   fun:ThreadJavaMain
   fun:start_thread
}

{
   <insert_a_suppression_name_here>
   Memcheck:Leak
   match-leak-kinds: reachable
   fun:malloc
   fun:_ZN2os6mallocEm8MEMFLAGSRK15NativeCallStack
   fun:_Z12AllocateHeapm8MEMFLAGSN17AllocFailStrategy13AllocFailEnumE
   fun:_ZN16G1DirtyCardQueueC1EP19G1DirtyCardQueueSet
   fun:_ZN10JavaThreadC1EPFvPS_S0_Em
   fun:_ZN22MonitorDeflationThread10initializeEv
   fun:_ZN7Threads9create_vmEP14JavaVMInitArgsPb
   fun:JNI_CreateJavaVM
   fun:JavaMain
   fun:ThreadJavaMain
   fun:start_thread
   fun:clone
}

{
   <insert_a_suppression_name_here>
   Memcheck:Leak
   match-leak-kinds: reachable
   fun:malloc
   fun:_ZN2os6mallocEm8MEMFLAGSRK15NativeCallStack
   fun:_Z12AllocateHeapm8MEMFLAGSN17AllocFailStrategy13AllocFailEnumE
   fun:_ZN16G1DirtyCardQueueC1EP19G1DirtyCardQueueSet
   fun:_ZN11NamedThreadC1Ev
   fun:_ZN13WorkerThreads13create_workerEj
   fun:_ZN13WorkerThreads18initialize_workersEv
   fun:_ZN15G1CollectedHeap10initializeEv
   fun:_Z13universe_initv
   fun:_Z12init_globalsv
   fun:_ZN7Threads9create_vmEP14JavaVMInitArgsPb
   fun:JNI_CreateJavaVM
}

{
   <insert_a_suppression_name_here>
   Memcheck:Leak
   match-leak-kinds: reachable
   fun:malloc
   fun:_ZN2os6mallocEm8MEMFLAGSRK15NativeCallStack
   fun:_Z12AllocateHeapm8MEMFLAGSN17AllocFailStrategy13AllocFailEnumE
   fun:_ZN16G1DirtyCardQueueC1EP19G1DirtyCardQueueSet
   fun:_ZN11NamedThreadC1Ev
   fun:_ZN13WorkerThreads13create_workerEj
   fun:_ZN13WorkerThreads18initialize_workersEv
   fun:_ZN16G1ConcurrentMarkC1EP15G1CollectedHeapP21G1RegionToSpaceMapper
   fun:_ZN15G1CollectedHeap10initializeEv
   fun:_Z13universe_initv
   fun:_Z12init_globalsv
   fun:_ZN7Threads9create_vmEP14JavaVMInitArgsPb
}

{
   <insert_a_suppression_name_here>
   Memcheck:Leak
   match-leak-kinds: reachable
   fun:malloc
   fun:_ZN2os6mallocEm8MEMFLAGSRK15NativeCallStack
   fun:_Z12AllocateHeapm8MEMFLAGSN17AllocFailStrategy13AllocFailEnumE
   fun:_ZN16G1DirtyCardQueueC1EP19G1DirtyCardQueueSet
   fun:_ZN11NamedThreadC1Ev
   fun:_ZN13WorkerThreads13create_workerEj
   fun:_ZN13WorkerThreads18set_active_workersEj
   fun:_ZN16G1YoungCollector7collectEv
   fun:_ZN15G1CollectedHeap39do_collection_pause_at_safepoint_helperEv
   fun:_ZN15G1CollectedHeap32do_collection_pause_at_safepointEv
   fun:_ZN25VM_G1CollectForAllocation4doitEv
   fun:_ZN12VM_Operation8evaluateEv
}

{
   <insert_a_suppression_name_here>
   Memcheck:Leak
   match-leak-kinds: reachable
   fun:malloc
   fun:_ZN2os6mallocEm8MEMFLAGSRK15NativeCallStack
   fun:_Z12AllocateHeapm8MEMFLAGSN17AllocFailStrategy13AllocFailEnumE
   fun:_ZN16G1DirtyCardQueueC1EP19G1DirtyCardQueueSet
   fun:_ZN11NamedThreadC1Ev
   fun:_ZN18ConcurrentGCThreadC1Ev
   fun:_ZN15G1ServiceThreadC1Ev
   fun:_ZN15G1CollectedHeap10initializeEv
   fun:_Z13universe_initv
   fun:_Z12init_globalsv
   fun:_ZN7Threads9create_vmEP14JavaVMInitArgsPb
   fun:JNI_CreateJavaVM
}

{
   <insert_a_suppression_name_here>
   Memcheck:Leak
   match-leak-kinds: reachable
   fun:malloc
   fun:_ZN2os6mallocEm8MEMFLAGSRK15NativeCallStack
   fun:_Z12AllocateHeapm8MEMFLAGSN17AllocFailStrategy13AllocFailEnumE
   fun:_ZN16G1DirtyCardQueueC1EP19G1DirtyCardQueueSet
   fun:_ZN11NamedThreadC1Ev
   fun:_ZN18ConcurrentGCThreadC1Ev
   fun:_ZN22G1ConcurrentMarkThreadC1EP16G1ConcurrentMark
   fun:_ZN16G1ConcurrentMarkC1EP15G1CollectedHeapP21G1RegionToSpaceMapper
   fun:_ZN15G1CollectedHeap10initializeEv
   fun:_Z13universe_initv
   fun:_Z12init_globalsv
   fun:_ZN7Threads9create_vmEP14JavaVMInitArgsPb
}

{
   <insert_a_suppression_name_here>
   Memcheck:Leak
   match-leak-kinds: reachable
   fun:malloc
   fun:_ZN2os6mallocEm8MEMFLAGSRK15NativeCallStack
   fun:_Z12AllocateHeapm8MEMFLAGSN17AllocFailStrategy13AllocFailEnumE
   fun:_ZN16G1DirtyCardQueueC1EP19G1DirtyCardQueueSet
   fun:_ZN11NamedThreadC1Ev
   fun:_ZN18ConcurrentGCThreadC1Ev
   fun:_ZN24G1ConcurrentRefineThreadC1EP18G1ConcurrentRefinej
   fun:_ZN24G1ConcurrentRefineThread6createEP18G1ConcurrentRefinej
   fun:_ZN31G1ConcurrentRefineThreadControl10initializeEP18G1ConcurrentRefinej
   fun:_ZN18G1ConcurrentRefine6createEP8G1PolicyPi
   fun:_ZN15G1CollectedHeap10initializeEv
   fun:_Z13universe_initv
}

{
   <insert_a_suppression_name_here>
   Memcheck:Leak
   match-leak-kinds: reachable
   fun:malloc
   fun:_ZN2os6mallocEm8MEMFLAGSRK15NativeCallStack
   fun:_Z12AllocateHeapm8MEMFLAGSN17AllocFailStrategy13AllocFailEnumE
   fun:_ZN16G1DirtyCardQueueC1EP19G1DirtyCardQueueSet
   fun:_ZN11NamedThreadC1Ev
   fun:_ZN8VMThread6createEv
   fun:_ZN7Threads9create_vmEP14JavaVMInitArgsPb
   fun:JNI_CreateJavaVM
   fun:JavaMain
   fun:ThreadJavaMain
   fun:start_thread
   fun:clone
}

{
   <insert_a_suppression_name_here>
   Memcheck:Leak
   match-leak-kinds: reachable
   fun:malloc
   fun:_ZN2os6mallocEm8MEMFLAGSRK15NativeCallStack
   fun:_Z12AllocateHeapm8MEMFLAGSN17AllocFailStrategy13AllocFailEnumE
   fun:_ZN16G1RegionsOnNodesC1Ev
   fun:_ZN15G1CollectedHeapC1Ev
   fun:_ZN11G1Arguments11create_heapEv
   fun:_Z13universe_initv
   fun:_Z12init_globalsv
   fun:_ZN7Threads9create_vmEP14JavaVMInitArgsPb
   fun:JNI_CreateJavaVM
   fun:JavaMain
   fun:ThreadJavaMain
}

{
   <insert_a_suppression_name_here>
   Memcheck:Leak
   match-leak-kinds: reachable
   fun:malloc
   fun:_ZN2os6mallocEm8MEMFLAGSRK15NativeCallStack
   fun:_Z12AllocateHeapm8MEMFLAGSN17AllocFailStrategy13AllocFailEnumE
   fun:_ZN16UnsafeCopyMemory12create_tableEi
   fun:_ZN13StubGenerator22generate_initial_stubsEv
   fun:_Z22StubGenerator_generateP10CodeBufferN17StubCodeGenerator9StubsKindE
   fun:_ZL16initialize_stubsN17StubCodeGenerator9StubsKindEiiPKcS2_S2_.constprop.0
   fun:_Z18initial_stubs_initv
   fun:_Z12init_globalsv
   fun:_ZN7Threads9create_vmEP14JavaVMInitArgsPb
   fun:JNI_CreateJavaVM
   fun:JavaMain
}

{
   <insert_a_suppression_name_here>
   Memcheck:Leak
   match-leak-kinds: reachable
   fun:malloc
   fun:_ZN2os6mallocEm8MEMFLAGSRK15NativeCallStack
   fun:_Z12AllocateHeapm8MEMFLAGSN17AllocFailStrategy13AllocFailEnumE
   fun:_ZN17CollectorCountersC1EPKci
   fun:_ZN19G1MonitoringSupportC1EP15G1CollectedHeap
   fun:_ZN15G1CollectedHeap10initializeEv
   fun:_Z13universe_initv
   fun:_Z12init_globalsv
   fun:_ZN7Threads9create_vmEP14JavaVMInitArgsPb
   fun:JNI_CreateJavaVM
   fun:JavaMain
   fun:ThreadJavaMain
}

{
   <insert_a_suppression_name_here>
   Memcheck:Leak
   match-leak-kinds: reachable
   fun:malloc
   fun:_ZN2os6mallocEm8MEMFLAGSRK15NativeCallStack
   fun:_Z12AllocateHeapm8MEMFLAGSN17AllocFailStrategy13AllocFailEnumE
   fun:_ZN17FilteredFieldsMap10initializeEv
   fun:_Z13init_globals2v
   fun:_ZN7Threads9create_vmEP14JavaVMInitArgsPb
   fun:JNI_CreateJavaVM
   fun:JavaMain
   fun:ThreadJavaMain
   fun:start_thread
   fun:clone
}

{
   <insert_a_suppression_name_here>
   Memcheck:Leak
   match-leak-kinds: reachable
   fun:malloc
   fun:_ZN2os6mallocEm8MEMFLAGSRK15NativeCallStack
   fun:_Z12AllocateHeapm8MEMFLAGSN17AllocFailStrategy13AllocFailEnumE
   fun:_ZN17G1SurvivorRegionsC1Ev
   fun:_ZN15G1CollectedHeapC1Ev
   fun:_ZN11G1Arguments11create_heapEv
   fun:_Z13universe_initv
   fun:_Z12init_globalsv
   fun:_ZN7Threads9create_vmEP14JavaVMInitArgsPb
   fun:JNI_CreateJavaVM
   fun:JavaMain
   fun:ThreadJavaMain
}

{
   <insert_a_suppression_name_here>
   Memcheck:Leak
   match-leak-kinds: reachable
   fun:malloc
   fun:_ZN2os6mallocEm8MEMFLAGSRK15NativeCallStack
   fun:_Z12AllocateHeapm8MEMFLAGSN17AllocFailStrategy13AllocFailEnumE
   fun:_ZN17HeapRegionManagerC1Ev
   fun:_ZN15G1CollectedHeapC1Ev
   fun:_ZN11G1Arguments11create_heapEv
   fun:_Z13universe_initv
   fun:_Z12init_globalsv
   fun:_ZN7Threads9create_vmEP14JavaVMInitArgsPb
   fun:JNI_CreateJavaVM
   fun:JavaMain
   fun:ThreadJavaMain
}

{
   <insert_a_suppression_name_here>
   Memcheck:Leak
   match-leak-kinds: reachable
   fun:malloc
   fun:_ZN2os6mallocEm8MEMFLAGSRK15NativeCallStack
   fun:_Z12AllocateHeapm8MEMFLAGSN17AllocFailStrategy13AllocFailEnumE
   fun:_ZN17PackageEntryTable29locked_create_entry_if_absentEP6SymbolP11ModuleEntry
   fun:_ZN17PackageEntryTable22create_entry_if_absentEP6SymbolP11ModuleEntry
   fun:_ZN13InstanceKlass11set_packageEP15ClassLoaderDataP12PackageEntryP10JavaThread
   fun:_ZN15ClassFileParser19fill_instance_klassEP13InstanceKlassbRK17ClassInstanceInfoP10JavaThread
   fun:_ZN15ClassFileParser21create_instance_klassEbRK17ClassInstanceInfoP10JavaThread
   fun:_ZN12KlassFactory18create_from_streamEP15ClassFileStreamP6SymbolP15ClassLoaderDataRK13ClassLoadInfoP10JavaThread
   fun:_ZN16SystemDictionary25resolve_class_from_streamEP15ClassFileStreamP6Symbol6HandleRK13ClassLoadInfoP10JavaThread
   fun:_ZL23jvm_define_class_commonPKcP8_jobjectPKaiS2_S0_P10JavaThread
   fun:JVM_DefineClassWithSource
}

{
   <insert_a_suppression_name_here>
   Memcheck:Leak
   match-leak-kinds: reachable
   fun:malloc
   fun:_ZN2os6mallocEm8MEMFLAGSRK15NativeCallStack
   fun:_Z12AllocateHeapm8MEMFLAGSN17AllocFailStrategy13AllocFailEnumE
   fun:_ZN18G1ConcurrentRefine6createEP8G1PolicyPi
   fun:_ZN15G1CollectedHeap10initializeEv
   fun:_Z13universe_initv
   fun:_Z12init_globalsv
   fun:_ZN7Threads9create_vmEP14JavaVMInitArgsPb
   fun:JNI_CreateJavaVM
   fun:JavaMain
   fun:ThreadJavaMain
   fun:start_thread
}

{
   <insert_a_suppression_name_here>
   Memcheck:Leak
   match-leak-kinds: reachable
   fun:malloc
   fun:_ZN2os6mallocEm8MEMFLAGSRK15NativeCallStack
   fun:_Z12AllocateHeapm8MEMFLAGSN17AllocFailStrategy13AllocFailEnumE
   fun:_ZN18G1HeapSizingPolicy6createEPK15G1CollectedHeapPK11G1Analytics
   fun:_ZN15G1CollectedHeapC1Ev
   fun:_ZN11G1Arguments11create_heapEv
   fun:_Z13universe_initv
   fun:_Z12init_globalsv
   fun:_ZN7Threads9create_vmEP14JavaVMInitArgsPb
   fun:JNI_CreateJavaVM
   fun:JavaMain
   fun:ThreadJavaMain
}

{
   <insert_a_suppression_name_here>
   Memcheck:Leak
   match-leak-kinds: reachable
   fun:malloc
   fun:_ZN2os6mallocEm8MEMFLAGSRK15NativeCallStack
   fun:_Z12AllocateHeapm8MEMFLAGSN17AllocFailStrategy13AllocFailEnumE
   fun:_ZN18GenerationCounters10initializeEPKciimmm.part.0
   fun:_ZN19G1MonitoringSupportC1EP15G1CollectedHeap
   fun:_ZN15G1CollectedHeap10initializeEv
   fun:_Z13universe_initv
   fun:_Z12init_globalsv
   fun:_ZN7Threads9create_vmEP14JavaVMInitArgsPb
   fun:JNI_CreateJavaVM
   fun:JavaMain
   fun:ThreadJavaMain
}

{
   <insert_a_suppression_name_here>
   Memcheck:Leak
   match-leak-kinds: reachable
   fun:malloc
   fun:_ZN2os6mallocEm8MEMFLAGSRK15NativeCallStack
   fun:_Z12AllocateHeapm8MEMFLAGSN17AllocFailStrategy13AllocFailEnumE
   fun:_ZN18ImmutableOopMapSet10build_fromEPK9OopMapSet
   fun:_ZN11RuntimeBlobC1EPKcP10CodeBufferiiiiP9OopMapSetb
   fun:_ZN11RuntimeStub16new_runtime_stubEPKcP10CodeBufferiiP9OopMapSetb
   fun:_ZN13SharedRuntime21generate_resolve_blobEPhPKc
   fun:_ZN13SharedRuntime14generate_stubsEv
   fun:_Z12init_globalsv
   fun:_ZN7Threads9create_vmEP14JavaVMInitArgsPb
   fun:JNI_CreateJavaVM
   fun:JavaMain
}

{
   <insert_a_suppression_name_here>
   Memcheck:Leak
   match-leak-kinds: reachable
   fun:malloc
   fun:_ZN2os6mallocEm8MEMFLAGSRK15NativeCallStack
   fun:_Z12AllocateHeapm8MEMFLAGSN17AllocFailStrategy13AllocFailEnumE
   fun:_ZN18ImmutableOopMapSet10build_fromEPK9OopMapSet
   fun:_ZN11RuntimeBlobC1EPKcP10CodeBufferiiiiP9OopMapSetb
   fun:_ZN11RuntimeStub16new_runtime_stubEPKcP10CodeBufferiiP9OopMapSetb
   fun:_ZN13StubGenerator24generate_throw_exceptionEPKcPh8RegisterS3_
   fun:_ZN13StubGenerator20generate_final_stubsEv
   fun:_Z22StubGenerator_generateP10CodeBufferN17StubCodeGenerator9StubsKindE
   fun:_ZL16initialize_stubsN17StubCodeGenerator9StubsKindEiiPKcS2_S2_.constprop.0
   fun:_Z16final_stubs_initv
   fun:_Z13init_globals2v
}

{
   <insert_a_suppression_name_here>
   Memcheck:Leak
   match-leak-kinds: reachable
   fun:malloc
   fun:_ZN2os6mallocEm8MEMFLAGSRK15NativeCallStack
   fun:_Z12AllocateHeapm8MEMFLAGSN17AllocFailStrategy13AllocFailEnumE
   fun:_ZN18ImmutableOopMapSet10build_fromEPK9OopMapSet
   fun:_ZN11RuntimeBlobC1EPKcP10CodeBufferiiiiP9OopMapSetb
   fun:_ZN11RuntimeStub16new_runtime_stubEPKcP10CodeBufferiiP9OopMapSetb
   fun:_ZN13StubGenerator24generate_throw_exceptionEPKcPh8RegisterS3_
   fun:_ZN13StubGenerator22generate_initial_stubsEv
   fun:_Z22StubGenerator_generateP10CodeBufferN17StubCodeGenerator9StubsKindE
   fun:_ZL16initialize_stubsN17StubCodeGenerator9StubsKindEiiPKcS2_S2_.constprop.0
   fun:_Z18initial_stubs_initv
   fun:_Z12init_globalsv
}

{
   <insert_a_suppression_name_here>
   Memcheck:Leak
   match-leak-kinds: reachable
   fun:malloc
   fun:_ZN2os6mallocEm8MEMFLAGSRK15NativeCallStack
   fun:_Z12AllocateHeapm8MEMFLAGSN17AllocFailStrategy13AllocFailEnumE
   fun:_ZN18ImmutableOopMapSet10build_fromEPK9OopMapSet
   fun:_ZN11RuntimeBlobC1EPKcP10CodeBufferiiiiP9OopMapSetb
   fun:_ZN11RuntimeStub16new_runtime_stubEPKcP10CodeBufferiiP9OopMapSetb
   fun:_ZN13StubGenerator25generate_jfr_return_leaseEv
   fun:_Z22StubGenerator_generateP10CodeBufferN17StubCodeGenerator9StubsKindE
   fun:_ZL16initialize_stubsN17StubCodeGenerator9StubsKindEiiPKcS2_S2_.constprop.0
   fun:_Z23continuation_stubs_initv
   fun:_Z12init_globalsv
   fun:_ZN7Threads9create_vmEP14JavaVMInitArgsPb
}

{
   <insert_a_suppression_name_here>
   Memcheck:Leak
   match-leak-kinds: reachable
   fun:malloc
   fun:_ZN2os6mallocEm8MEMFLAGSRK15NativeCallStack
   fun:_Z12AllocateHeapm8MEMFLAGSN17AllocFailStrategy13AllocFailEnumE
   fun:_ZN18ImmutableOopMapSet10build_fromEPK9OopMapSet
   fun:_ZN11RuntimeBlobC1EPKcP10CodeBufferiiiiP9OopMapSetb
   fun:_ZN11RuntimeStub16new_runtime_stubEPKcP10CodeBufferiiP9OopMapSetb
   fun:_ZN13StubGenerator29generate_jfr_write_checkpointEv
   fun:_Z22StubGenerator_generateP10CodeBufferN17StubCodeGenerator9StubsKindE
   fun:_ZL16initialize_stubsN17StubCodeGenerator9StubsKindEiiPKcS2_S2_.constprop.0
   fun:_Z23continuation_stubs_initv
   fun:_Z12init_globalsv
   fun:_ZN7Threads9create_vmEP14JavaVMInitArgsPb
}

{
   <insert_a_suppression_name_here>
   Memcheck:Leak
   match-leak-kinds: reachable
   fun:malloc
   fun:_ZN2os6mallocEm8MEMFLAGSRK15NativeCallStack
   fun:_Z12AllocateHeapm8MEMFLAGSN17AllocFailStrategy13AllocFailEnumE
   fun:_ZN18ImmutableOopMapSet10build_fromEPK9OopMapSet
   fun:_ZN11RuntimeBlobC2EPKcP10CodeBufferiiiiP9OopMapSetb.constprop.0
   fun:_ZN13SafepointBlob6createEP10CodeBufferP9OopMapSeti
   fun:_ZN13SharedRuntime21generate_handler_blobEPhi
   fun:_ZN13SharedRuntime14generate_stubsEv
   fun:_Z12init_globalsv
   fun:_ZN7Threads9create_vmEP14JavaVMInitArgsPb
   fun:JNI_CreateJavaVM
   fun:JavaMain
}

{
   <insert_a_suppression_name_here>
   Memcheck:Leak
   match-leak-kinds: reachable
   fun:malloc
   fun:_ZN2os6mallocEm8MEMFLAGSRK15NativeCallStack
   fun:_Z12AllocateHeapm8MEMFLAGSN17AllocFailStrategy13AllocFailEnumE
   fun:_ZN18ImmutableOopMapSet10build_fromEPK9OopMapSet
   fun:_ZN11RuntimeBlobC2EPKcP10CodeBufferiiiiP9OopMapSetb.constprop.0
   fun:_ZN16UncommonTrapBlob6createEP10CodeBufferP9OopMapSeti
   fun:_ZN13SharedRuntime27generate_uncommon_trap_blobEv
   fun:_Z12init_globalsv
   fun:_ZN7Threads9create_vmEP14JavaVMInitArgsPb
   fun:JNI_CreateJavaVM
   fun:JavaMain
   fun:ThreadJavaMain
}

{
   <insert_a_suppression_name_here>
   Memcheck:Leak
   match-leak-kinds: reachable
   fun:malloc
   fun:_ZN2os6mallocEm8MEMFLAGSRK15NativeCallStack
   fun:_Z12AllocateHeapm8MEMFLAGSN17AllocFailStrategy13AllocFailEnumE
   fun:_ZN18ImmutableOopMapSet10build_fromEPK9OopMapSet
   fun:_ZN11RuntimeBlobC2EPKcP10CodeBufferiiiiP9OopMapSetb.constprop.0
   fun:_ZN18DeoptimizationBlob6createEP10CodeBufferP9OopMapSetiiii
   fun:_ZN13SharedRuntime19generate_deopt_blobEv
   fun:_ZN13SharedRuntime14generate_stubsEv
   fun:_Z12init_globalsv
   fun:_ZN7Threads9create_vmEP14JavaVMInitArgsPb
   fun:JNI_CreateJavaVM
   fun:JavaMain
}

{
   <insert_a_suppression_name_here>
   Memcheck:Leak
   match-leak-kinds: reachable
   fun:malloc
   fun:_ZN2os6mallocEm8MEMFLAGSRK15NativeCallStack
   fun:_Z12AllocateHeapm8MEMFLAGSN17AllocFailStrategy13AllocFailEnumE
   fun:_ZN18JniPeriodicChecker6engageEv
   fun:_ZN7Threads9create_vmEP14JavaVMInitArgsPb
   fun:JNI_CreateJavaVM
   fun:JavaMain
   fun:ThreadJavaMain
   fun:start_thread
   fun:clone
}

{
   <insert_a_suppression_name_here>
   Memcheck:Leak
   match-leak-kinds: reachable
   fun:malloc
   fun:_ZN2os6mallocEm8MEMFLAGSRK15NativeCallStack
   fun:_Z12AllocateHeapm8MEMFLAGSN17AllocFailStrategy13AllocFailEnumE
   fun:_ZN18NotificationThread10initializeEv
   fun:_ZN10Management10initializeEP10JavaThread
   fun:_ZN7Threads9create_vmEP14JavaVMInitArgsPb
   fun:JNI_CreateJavaVM
   fun:JavaMain
   fun:ThreadJavaMain
   fun:start_thread
   fun:clone
}

{
   <insert_a_suppression_name_here>
   Memcheck:Leak
   match-leak-kinds: reachable
   fun:malloc
   fun:_ZN2os6mallocEm8MEMFLAGSRK15NativeCallStack
   fun:_Z12AllocateHeapm8MEMFLAGSN17AllocFailStrategy13AllocFailEnumE
   fun:_ZN18ObjectSynchronizer7inflateEP6ThreadP7oopDescNS_12InflateCauseE.constprop.0
   fun:_ZN18ObjectSynchronizer4waitE6HandlelP10JavaThread
   fun:JVM_MonitorWait
   obj:*
   obj:*
   obj:*
   obj:*
   obj:*
   obj:*
}

{
   <insert_a_suppression_name_here>
   Memcheck:Leak
   match-leak-kinds: reachable
   fun:malloc
   fun:_ZN2os6mallocEm8MEMFLAGSRK15NativeCallStack
   fun:_Z12AllocateHeapm8MEMFLAGSN17AllocFailStrategy13AllocFailEnumE
   fun:_ZN18ReferenceProcessor12init_staticsEv
   fun:_Z13init_globals2v
   fun:_ZN7Threads9create_vmEP14JavaVMInitArgsPb
   fun:JNI_CreateJavaVM
   fun:JavaMain
   fun:ThreadJavaMain
   fun:start_thread
   fun:clone
}

{
   <insert_a_suppression_name_here>
   Memcheck:Leak
   match-leak-kinds: reachable
   fun:malloc
   fun:_ZN2os6mallocEm8MEMFLAGSRK15NativeCallStack
   fun:_Z12AllocateHeapm8MEMFLAGSN17AllocFailStrategy13AllocFailEnumE
   fun:_ZN18ReferenceProcessorC1EP17BoolObjectClosurejjbS1_
   fun:_ZN15G1CollectedHeap15post_initializeEv
   fun:_Z18universe_post_initv
   fun:_Z13init_globals2v
   fun:_ZN7Threads9create_vmEP14JavaVMInitArgsPb
   fun:JNI_CreateJavaVM
   fun:JavaMain
   fun:ThreadJavaMain
   fun:start_thread
}

{
   <insert_a_suppression_name_here>
   Memcheck:Leak
   match-leak-kinds: reachable
   fun:malloc
   fun:_ZN2os6mallocEm8MEMFLAGSRK15NativeCallStack
   fun:_Z12AllocateHeapm8MEMFLAGSN17AllocFailStrategy13AllocFailEnumE
   fun:_ZN18WeakProcessorTimesC1Ej
   fun:_ZN14G1GCPhaseTimesC1EP10STWGCTimerj
   fun:_ZN8G1Policy27record_young_gc_pause_startEv
   fun:_ZN16G1YoungCollector7collectEv
   fun:_ZN15G1CollectedHeap39do_collection_pause_at_safepoint_helperEv
   fun:_ZN15G1CollectedHeap32do_collection_pause_at_safepointEv
   fun:_ZN25VM_G1CollectForAllocation4doitEv
   fun:_ZN12VM_Operation8evaluateEv
   fun:_ZN8VMThread18evaluate_operationEP12VM_Operation
}

{
   <insert_a_suppression_name_here>
   Memcheck:Leak
   match-leak-kinds: reachable
   fun:malloc
   fun:_ZN2os6mallocEm8MEMFLAGSRK15NativeCallStack
   fun:_Z12AllocateHeapm8MEMFLAGSN17AllocFailStrategy13AllocFailEnumE
   fun:_ZN19DerivedPointerTable5clearEv
   fun:_ZN16G1YoungCollector27pre_evacuate_collection_setEP10G1EvacInfo
   fun:_ZN16G1YoungCollector7collectEv
   fun:_ZN15G1CollectedHeap39do_collection_pause_at_safepoint_helperEv
   fun:_ZN15G1CollectedHeap32do_collection_pause_at_safepointEv
   fun:_ZN25VM_G1CollectForAllocation4doitEv
   fun:_ZN12VM_Operation8evaluateEv
   fun:_ZN8VMThread18evaluate_operationEP12VM_Operation
   fun:_ZN8VMThread13inner_executeEP12VM_Operation
}

{
   <insert_a_suppression_name_here>
   Memcheck:Leak
   match-leak-kinds: reachable
   fun:malloc
   fun:_ZN2os6mallocEm8MEMFLAGSRK15NativeCallStack
   fun:_Z12AllocateHeapm8MEMFLAGSN17AllocFailStrategy13AllocFailEnumE
   fun:_ZN19G1MonitoringSupport25initialize_serviceabilityEv
   fun:_ZN15G1CollectedHeap15post_initializeEv
   fun:_Z18universe_post_initv
   fun:_Z13init_globals2v
   fun:_ZN7Threads9create_vmEP14JavaVMInitArgsPb
   fun:JNI_CreateJavaVM
   fun:JavaMain
   fun:ThreadJavaMain
   fun:start_thread
}

{
   <insert_a_suppression_name_here>
   Memcheck:Leak
   match-leak-kinds: reachable
   fun:malloc
   fun:_ZN2os6mallocEm8MEMFLAGSRK15NativeCallStack
   fun:_Z12AllocateHeapm8MEMFLAGSN17AllocFailStrategy13AllocFailEnumE
   fun:_ZN19G1MonitoringSupportC1EP15G1CollectedHeap
   fun:_ZN15G1CollectedHeap10initializeEv
   fun:_Z13universe_initv
   fun:_Z12init_globalsv
   fun:_ZN7Threads9create_vmEP14JavaVMInitArgsPb
   fun:JNI_CreateJavaVM
   fun:JavaMain
   fun:ThreadJavaMain
   fun:start_thread
}

{
   <insert_a_suppression_name_here>
   Memcheck:Leak
   match-leak-kinds: reachable
   fun:malloc
   fun:_ZN2os6mallocEm8MEMFLAGSRK15NativeCallStack
   fun:_Z12AllocateHeapm8MEMFLAGSN17AllocFailStrategy13AllocFailEnumE
   fun:_ZN19ResolvedMethodTable10add_methodEPK6Method6Handle
   fun:_ZN8CallInfo24set_resolved_method_nameEP10JavaThread
   fun:_ZN13MethodHandles18resolve_MemberNameE6HandleP5KlassibP10JavaThread
   fun:MHN_resolve_Mem
   obj:*
   obj:*
   obj:*
   obj:*
   obj:*
}

{
   <insert_a_suppression_name_here>
   Memcheck:Leak
   match-leak-kinds: reachable
   fun:malloc
   fun:_ZN2os6mallocEm8MEMFLAGSRK15NativeCallStack
   fun:_Z12AllocateHeapm8MEMFLAGSN17AllocFailStrategy13AllocFailEnumE
   fun:_ZN19ResolvedMethodTable10add_methodEPK6Method6Handle
   fun:_ZN8CallInfo24set_resolved_method_nameEP10JavaThread
   fun:_ZN13MethodHandles18resolve_MemberNameE6HandleP5KlassibP10JavaThread
   fun:_ZN16SystemDictionary27link_method_handle_constantEP5KlassiS1_P6SymbolS3_P10JavaThread
   fun:_ZN12ConstantPool24resolve_constant_at_implERK18constantPoolHandleiiPbP10JavaThread
   fun:_ZN12ConstantPool32copy_bootstrap_arguments_at_implERK18constantPoolHandleiii14objArrayHandleib6HandleP10JavaThread
   fun:_ZN13BootstrapInfo12resolve_argsEP10JavaThread
   fun:_ZN13BootstrapInfo11resolve_bsmEP10JavaThread
   fun:_ZN16SystemDictionary23invoke_bootstrap_methodER13BootstrapInfoP10JavaThread
}

{
   <insert_a_suppression_name_here>
   Memcheck:Leak
   match-leak-kinds: reachable
   fun:malloc
   fun:_ZN2os6mallocEm8MEMFLAGSRK15NativeCallStack
   fun:_Z12AllocateHeapm8MEMFLAGSN17AllocFailStrategy13AllocFailEnumE
   fun:_ZN19ResolvedMethodTable10add_methodEPK6Method6Handle
   fun:_ZN8CallInfo24set_resolved_method_nameEP10JavaThread
   fun:_ZN13MethodHandles18resolve_MemberNameE6HandleP5KlassibP10JavaThread
   fun:_ZN16SystemDictionary27link_method_handle_constantEP5KlassiS1_P6SymbolS3_P10JavaThread
   fun:_ZN12ConstantPool24resolve_constant_at_implERK18constantPoolHandleiiPbP10JavaThread
   fun:_ZN13BootstrapInfo11resolve_bsmEP10JavaThread
   fun:_ZN16SystemDictionary23invoke_bootstrap_methodER13BootstrapInfoP10JavaThread
   fun:_ZN12LinkResolver20resolve_dynamic_callER8CallInfoR13BootstrapInfoP10JavaThread
   fun:_ZN12LinkResolver21resolve_invokedynamicER8CallInfoRK18constantPoolHandleiP10JavaThread
}

{
   <insert_a_suppression_name_here>
   Memcheck:Leak
   match-leak-kinds: reachable
   fun:malloc
   fun:_ZN2os6mallocEm8MEMFLAGSRK15NativeCallStack
   fun:_Z12AllocateHeapm8MEMFLAGSN17AllocFailStrategy13AllocFailEnumE
   fun:_ZN19ResolvedMethodTable10add_methodEPK6Method6Handle
   fun:_ZN8CallInfoC1EP6MethodP5KlassP10JavaThread
   fun:_ZN13MethodHandles15init_MemberNameE6HandleS0_P10JavaThread
   fun:MHN_init_Mem
   obj:*
   obj:*
   obj:*
   obj:*
   obj:*
}

{
   <insert_a_suppression_name_here>
   Memcheck:Leak
   match-leak-kinds: reachable
   fun:malloc
   fun:_ZN2os6mallocEm8MEMFLAGSRK15NativeCallStack
   fun:_Z12AllocateHeapm8MEMFLAGSN17AllocFailStrategy13AllocFailEnumE
   fun:_ZN19ResolvedMethodTable12create_tableEv
   fun:_Z13universe_initv
   fun:_Z12init_globalsv
   fun:_ZN7Threads9create_vmEP14JavaVMInitArgsPb
   fun:JNI_CreateJavaVM
   fun:JavaMain
   fun:ThreadJavaMain
   fun:start_thread
   fun:clone
}

{
   <insert_a_suppression_name_here>
   Memcheck:Leak
   match-leak-kinds: reachable
   fun:malloc
   fun:_ZN2os6mallocEm8MEMFLAGSRK15NativeCallStack
   fun:_Z12AllocateHeapm8MEMFLAGSN17AllocFailStrategy13AllocFailEnumE
   fun:_ZN19TemplateInterpreter15initialize_stubEv
   fun:_Z12init_globalsv
   fun:_ZN7Threads9create_vmEP14JavaVMInitArgsPb
   fun:JNI_CreateJavaVM
   fun:JavaMain
   fun:ThreadJavaMain
   fun:start_thread
   fun:clone
}

{
   <insert_a_suppression_name_here>
   Memcheck:Leak
   match-leak-kinds: reachable
   fun:malloc
   fun:_ZN2os6mallocEm8MEMFLAGSRK15NativeCallStack
   fun:_Z12AllocateHeapm8MEMFLAGSN17AllocFailStrategy13AllocFailEnumE
   fun:_ZN20ClassLoaderDataGraph12add_to_graphE6Handleb
   fun:_ZN20ClassLoaderDataGraph3addE6Handleb
   fun:_ZN16SystemDictionary19resolve_from_streamEP15ClassFileStreamP6Symbol6HandleRK13ClassLoadInfoP10JavaThread
   fun:_ZL23jvm_lookup_define_classP7_jclassPKcPKaiP8_jobjecthiS6_P10JavaThread
   fun:JVM_LookupDefineClass
   fun:Java_java_lang_ClassLoader_defineClass0
   obj:*
   obj:*
   obj:*
}

{
   <insert_a_suppression_name_here>
   Memcheck:Leak
   match-leak-kinds: reachable
   fun:malloc
   fun:_ZN2os6mallocEm8MEMFLAGSRK15NativeCallStack
   fun:_Z12AllocateHeapm8MEMFLAGSN17AllocFailStrategy13AllocFailEnumE
   fun:_ZN20ClassLoaderDataGraph12add_to_graphE6Handleb
   fun:_ZN20ClassLoaderDataGraph3addE6Handleb
   fun:_ZN7Modules23define_archived_modulesE6HandleS0_P10JavaThread
   fun:JVM_DefineArchivedModules
   obj:*
   obj:*
   obj:*
   obj:*
   fun:_ZN9JavaCalls11call_helperEP9JavaValueRK12methodHandleP17JavaCallArgumentsP10JavaThread
}

{
   <insert_a_suppression_name_here>
   Memcheck:Leak
   match-leak-kinds: reachable
   fun:malloc
   fun:_ZN2os6mallocEm8MEMFLAGSRK15NativeCallStack
   fun:_Z12AllocateHeapm8MEMFLAGSN17AllocFailStrategy13AllocFailEnumE
   fun:_ZN20ClassLoaderMetaspaceC1EP5MutexN9Metaspace13MetaspaceTypeE
   fun:_ZN15ClassLoaderData18metaspace_non_nullEv
   fun:_ZN9Metaspace8allocateEP15ClassLoaderDatamN12MetaspaceObj4TypeEP10JavaThread
   fun:_ZN12ConstantPool8allocateEP15ClassLoaderDataiP10JavaThread
   fun:_ZN15ClassFileParser12parse_streamEPK15ClassFileStreamP10JavaThread.part.0
   fun:_ZN15ClassFileParserC1EP15ClassFileStreamP6SymbolP15ClassLoaderDataPK13ClassLoadInfoNS_9PublicityEP10JavaThread
   fun:_ZN12KlassFactory18create_from_streamEP15ClassFileStreamP6SymbolP15ClassLoaderDataRK13ClassLoadInfoP10JavaThread
   fun:_ZN16SystemDictionary19resolve_from_streamEP15ClassFileStreamP6Symbol6HandleRK13ClassLoadInfoP10JavaThread
   fun:_ZL23jvm_lookup_define_classP7_jclassPKcPKaiP8_jobjecthiS6_P10JavaThread
}

{
   <insert_a_suppression_name_here>
   Memcheck:Leak
   match-leak-kinds: reachable
   fun:malloc
   fun:_ZN2os6mallocEm8MEMFLAGSRK15NativeCallStack
   fun:_Z12AllocateHeapm8MEMFLAGSN17AllocFailStrategy13AllocFailEnumE
   fun:_ZN20ClassLoaderMetaspaceC1EP5MutexN9Metaspace13MetaspaceTypeE
   fun:_ZN15ClassLoaderData18metaspace_non_nullEv
   fun:_ZN9Metaspace8allocateEP15ClassLoaderDatamN12MetaspaceObj4TypeEP10JavaThread
   fun:_ZN12ConstantPool8allocateEP15ClassLoaderDataiP10JavaThread
   fun:_ZN15ClassFileParser12parse_streamEPK15ClassFileStreamP10JavaThread.part.0
   fun:_ZN15ClassFileParserC1EP15ClassFileStreamP6SymbolP15ClassLoaderDataPK13ClassLoadInfoNS_9PublicityEP10JavaThread
   fun:_ZN12KlassFactory18create_from_streamEP15ClassFileStreamP6SymbolP15ClassLoaderDataRK13ClassLoadInfoP10JavaThread
   fun:_ZN16SystemDictionary25resolve_class_from_streamEP15ClassFileStreamP6Symbol6HandleRK13ClassLoadInfoP10JavaThread
   fun:_ZL23jvm_define_class_commonPKcP8_jobjectPKaiS2_S0_P10JavaThread
}

{
   <insert_a_suppression_name_here>
   Memcheck:Leak
   match-leak-kinds: reachable
   fun:malloc
   fun:_ZN2os6mallocEm8MEMFLAGSRK15NativeCallStack
   fun:_Z12AllocateHeapm8MEMFLAGSN17AllocFailStrategy13AllocFailEnumE
   fun:_ZN20ClassLoaderMetaspaceC1EP5MutexN9Metaspace13MetaspaceTypeE
   fun:_ZN15ClassLoaderData18metaspace_non_nullEv
   fun:_ZN9Metaspace8allocateEP15ClassLoaderDatamN12MetaspaceObj4TypeEP10JavaThread
   fun:_ZN13ObjArrayKlass23allocate_objArray_klassEP15ClassLoaderDataiP5KlassP10JavaThread
   fun:_ZN13InstanceKlass11array_klassEiP10JavaThread
   fun:_ZN13InstanceKlass17allocate_objArrayEiiP10JavaThread
   fun:_ZN19CDSProtectionDomain39allocate_shared_protection_domain_arrayEiP10JavaThread
   fun:_ZN15MetaspaceShared15post_initializeEP10JavaThread
   fun:_Z18universe_post_initv
}

{
   <insert_a_suppression_name_here>
   Memcheck:Leak
   match-leak-kinds: reachable
   fun:malloc
   fun:_ZN2os6mallocEm8MEMFLAGSRK15NativeCallStack
   fun:_Z12AllocateHeapm8MEMFLAGSN17AllocFailStrategy13AllocFailEnumE
   fun:_ZN20LogDiagnosticCommand15registerCommandEv
   fun:_ZN16LogConfiguration15post_initializeEv
   fun:_ZN7Threads9create_vmEP14JavaVMInitArgsPb
   fun:JNI_CreateJavaVM
   fun:JavaMain
   fun:ThreadJavaMain
   fun:start_thread
   fun:clone
}

{
   <insert_a_suppression_name_here>
   Memcheck:Leak
   match-leak-kinds: reachable
   fun:malloc
   fun:_ZN2os6mallocEm8MEMFLAGSRK15NativeCallStack
   fun:_Z12AllocateHeapm8MEMFLAGSN17AllocFailStrategy13AllocFailEnumE
   fun:_ZN20SafepointSynchronize4initEP6Thread
   fun:_ZN8VMThread3runEv
   fun:_ZN6Thread8call_runEv
   fun:_ZL19thread_native_entryP6Thread
   fun:start_thread
   fun:clone
}

{
   <insert_a_suppression_name_here>
   Memcheck:Leak
   match-leak-kinds: reachable
   fun:malloc
   fun:_ZN2os6mallocEm8MEMFLAGSRK15NativeCallStack
   fun:_Z12AllocateHeapm8MEMFLAGSN17AllocFailStrategy13AllocFailEnumE
   fun:_ZN20ThreadSafepointState6createEP10JavaThread
   fun:_ZN10JavaThreadC1EPFvPS_S0_Em
   fun:JVM_StartThread
   obj:*
   obj:*
   obj:*
   obj:*
   obj:*
   obj:*
}

{
   <insert_a_suppression_name_here>
   Memcheck:Leak
   match-leak-kinds: reachable
   fun:malloc
   fun:_ZN2os6mallocEm8MEMFLAGSRK15NativeCallStack
   fun:_Z12AllocateHeapm8MEMFLAGSN17AllocFailStrategy13AllocFailEnumE
   fun:_ZN20ThreadSafepointState6createEP10JavaThread
   fun:_ZN10JavaThreadC1EPFvPS_S0_Em
   fun:_ZN13ServiceThread10initializeEv
   fun:_ZN7Threads9create_vmEP14JavaVMInitArgsPb
   fun:JNI_CreateJavaVM
   fun:JavaMain
   fun:ThreadJavaMain
   fun:start_thread
   fun:clone
}

{
   <insert_a_suppression_name_here>
   Memcheck:Leak
   match-leak-kinds: reachable
   fun:malloc
   fun:_ZN2os6mallocEm8MEMFLAGSRK15NativeCallStack
   fun:_Z12AllocateHeapm8MEMFLAGSN17AllocFailStrategy13AllocFailEnumE
   fun:_ZN20ThreadSafepointState6createEP10JavaThread
   fun:_ZN10JavaThreadC1EPFvPS_S0_Em
   fun:_ZN18NotificationThread10initializeEv
   fun:_ZN10Management10initializeEP10JavaThread
   fun:_ZN7Threads9create_vmEP14JavaVMInitArgsPb
   fun:JNI_CreateJavaVM
   fun:JavaMain
   fun:ThreadJavaMain
   fun:start_thread
}

{
   <insert_a_suppression_name_here>
   Memcheck:Leak
   match-leak-kinds: reachable
   fun:malloc
   fun:_ZN2os6mallocEm8MEMFLAGSRK15NativeCallStack
   fun:_Z12AllocateHeapm8MEMFLAGSN17AllocFailStrategy13AllocFailEnumE
   fun:_ZN20ThreadSafepointState6createEP10JavaThread
   fun:_ZN10JavaThreadC1EPFvPS_S0_Em
   fun:_ZN22MonitorDeflationThread10initializeEv
   fun:_ZN7Threads9create_vmEP14JavaVMInitArgsPb
   fun:JNI_CreateJavaVM
   fun:JavaMain
   fun:ThreadJavaMain
   fun:start_thread
   fun:clone
}

{
   <insert_a_suppression_name_here>
   Memcheck:Leak
   match-leak-kinds: reachable
   fun:malloc
   fun:_ZN2os6mallocEm8MEMFLAGSRK15NativeCallStack
   fun:_Z12AllocateHeapm8MEMFLAGSN17AllocFailStrategy13AllocFailEnumE
   fun:_ZN21AdapterHandlerLibrary10initializeEv
   fun:_ZN13SharedRuntime14generate_stubsEv
   fun:_Z12init_globalsv
   fun:_ZN7Threads9create_vmEP14JavaVMInitArgsPb
   fun:JNI_CreateJavaVM
   fun:JavaMain
   fun:ThreadJavaMain
   fun:start_thread
   fun:clone
}

{
   <insert_a_suppression_name_here>
   Memcheck:Leak
   match-leak-kinds: reachable
   fun:malloc
   fun:_ZN2os6mallocEm8MEMFLAGSRK15NativeCallStack
   fun:_Z12AllocateHeapm8MEMFLAGSN17AllocFailStrategy13AllocFailEnumE
   fun:_ZN21AdapterHandlerLibrary14create_adapterERP11AdapterBlobiP9BasicTypeb
   fun:_ZN21AdapterHandlerLibrary11get_adapterERK12methodHandle
   fun:_ZN6Method11link_methodERK12methodHandleP10JavaThread
   fun:_ZN13InstanceKlass12link_methodsEP10JavaThread
   fun:_ZN13InstanceKlass15link_class_implEP10JavaThread
   fun:_ZN13InstanceKlass15initialize_implEP10JavaThread
   fun:Unsafe_EnsureClassInitialized0
   obj:*
   obj:*
}

{
   <insert_a_suppression_name_here>
   Memcheck:Leak
   match-leak-kinds: reachable
   fun:malloc
   fun:_ZN2os6mallocEm8MEMFLAGSRK15NativeCallStack
   fun:_Z12AllocateHeapm8MEMFLAGSN17AllocFailStrategy13AllocFailEnumE
   fun:_ZN21AdapterHandlerLibrary14create_adapterERP11AdapterBlobiP9BasicTypeb
   fun:_ZN21AdapterHandlerLibrary11get_adapterERK12methodHandle
   fun:_ZN6Method11link_methodERK12methodHandleP10JavaThread
   fun:_ZN13InstanceKlass12link_methodsEP10JavaThread
   fun:_ZN13InstanceKlass15link_class_implEP10JavaThread
   fun:_ZN13InstanceKlass15initialize_implEP10JavaThread
   fun:_Z28find_class_from_class_loaderP7JNIEnv_P6Symbolh6HandleS3_hP10JavaThread
   fun:JVM_FindClassFromCaller
   fun:Java_java_lang_Class_forName0
}

{
   <insert_a_suppression_name_here>
   Memcheck:Leak
   match-leak-kinds: reachable
   fun:malloc
   fun:_ZN2os6mallocEm8MEMFLAGSRK15NativeCallStack
   fun:_Z12AllocateHeapm8MEMFLAGSN17AllocFailStrategy13AllocFailEnumE
   fun:_ZN21AdapterHandlerLibrary14create_adapterERP11AdapterBlobiP9BasicTypeb
   fun:_ZN21AdapterHandlerLibrary11get_adapterERK12methodHandle
   fun:_ZN6Method11link_methodERK12methodHandleP10JavaThread
   fun:_ZN13InstanceKlass12link_methodsEP10JavaThread
   fun:_ZN13InstanceKlass15link_class_implEP10JavaThread
   fun:_ZN13InstanceKlass15initialize_implEP10JavaThread
   fun:_Z28find_class_from_class_loaderP7JNIEnv_P6Symbolh6HandleS3_hP10JavaThread
   fun:_ZL9lookupOneP7JNIEnv_PKcP10JavaThread
   fun:lookupDirectBufferClasses
}

{
   <insert_a_suppression_name_here>
   Memcheck:Leak
   match-leak-kinds: reachable
   fun:malloc
   fun:_ZN2os6mallocEm8MEMFLAGSRK15NativeCallStack
   fun:_Z12AllocateHeapm8MEMFLAGSN17AllocFailStrategy13AllocFailEnumE
   fun:_ZN21AdapterHandlerLibrary14create_adapterERP11AdapterBlobiP9BasicTypeb
   fun:_ZN21AdapterHandlerLibrary11get_adapterERK12methodHandle
   fun:_ZN6Method11link_methodERK12methodHandleP10JavaThread
   fun:_ZN13InstanceKlass12link_methodsEP10JavaThread
   fun:_ZN13InstanceKlass15link_class_implEP10JavaThread
   fun:_ZN13InstanceKlass15initialize_implEP10JavaThread
   fun:_ZL13get_method_idP7JNIEnv_P7_jclassPKcS4_bP10JavaThread.constprop.0
   fun:jni_GetStaticMethodID
   fun:checked_jni_GetStaticMethodID
}

{
   <insert_a_suppression_name_here>
   Memcheck:Leak
   match-leak-kinds: reachable
   fun:malloc
   fun:_ZN2os6mallocEm8MEMFLAGSRK15NativeCallStack
   fun:_Z12AllocateHeapm8MEMFLAGSN17AllocFailStrategy13AllocFailEnumE
   fun:_ZN21AdapterHandlerLibrary14create_adapterERP11AdapterBlobiP9BasicTypeb
   fun:_ZN21AdapterHandlerLibrary11get_adapterERK12methodHandle
   fun:_ZN6Method11link_methodERK12methodHandleP10JavaThread
   fun:_ZN13InstanceKlass12link_methodsEP10JavaThread
   fun:_ZN13InstanceKlass15link_class_implEP10JavaThread
   fun:_ZN13InstanceKlass15initialize_implEP10JavaThread
   fun:_ZN10HeapShared39resolve_or_init_classes_for_subgraph_ofEP5KlassbP10JavaThread
   fun:_ZN10HeapShared33initialize_from_archived_subgraphEP10JavaThreadP5Klass
   fun:JVM_InitializeFromArchive
}

{
   <insert_a_suppression_name_here>
   Memcheck:Leak
   match-leak-kinds: reachable
   fun:malloc
   fun:_ZN2os6mallocEm8MEMFLAGSRK15NativeCallStack
   fun:_Z12AllocateHeapm8MEMFLAGSN17AllocFailStrategy13AllocFailEnumE
   fun:_ZN21AdapterHandlerLibrary14create_adapterERP11AdapterBlobiP9BasicTypeb
   fun:_ZN21AdapterHandlerLibrary11get_adapterERK12methodHandle
   fun:_ZN6Method11link_methodERK12methodHandleP10JavaThread
   fun:_ZN13InstanceKlass12link_methodsEP10JavaThread
   fun:_ZN13InstanceKlass15link_class_implEP10JavaThread
   fun:_ZN13InstanceKlass15initialize_implEP10JavaThread
   fun:_ZN12LinkResolver13resolve_fieldER15fieldDescriptorRK8LinkInfoN9Bytecodes4CodeEbP10JavaThread
   fun:_ZN12LinkResolver20resolve_field_accessER15fieldDescriptorRK18constantPoolHandleiRK12methodHandleN9Bytecodes4CodeEP10JavaThread
   fun:_ZN18InterpreterRuntime15resolve_get_putEP10JavaThreadN9Bytecodes4CodeE
}

{
   <insert_a_suppression_name_here>
   Memcheck:Leak
   match-leak-kinds: reachable
   fun:malloc
   fun:_ZN2os6mallocEm8MEMFLAGSRK15NativeCallStack
   fun:_Z12AllocateHeapm8MEMFLAGSN17AllocFailStrategy13AllocFailEnumE
   fun:_ZN21AdapterHandlerLibrary14create_adapterERP11AdapterBlobiP9BasicTypeb
   fun:_ZN21AdapterHandlerLibrary11get_adapterERK12methodHandle
   fun:_ZN6Method11link_methodERK12methodHandleP10JavaThread
   fun:_ZN13InstanceKlass12link_methodsEP10JavaThread
   fun:_ZN13InstanceKlass15link_class_implEP10JavaThread
   fun:_ZN13InstanceKlass15initialize_implEP10JavaThread
   fun:_ZN12LinkResolver19resolve_static_callER8CallInfoRK8LinkInfobP10JavaThread
   fun:_ZN12LinkResolver14resolve_invokeER8CallInfo6HandleRK18constantPoolHandleiN9Bytecodes4CodeEP10JavaThread
   fun:_ZN18InterpreterRuntime14resolve_invokeEP10JavaThreadN9Bytecodes4CodeE
}

{
   <insert_a_suppression_name_here>
   Memcheck:Leak
   match-leak-kinds: reachable
   fun:malloc
   fun:_ZN2os6mallocEm8MEMFLAGSRK15NativeCallStack
   fun:_Z12AllocateHeapm8MEMFLAGSN17AllocFailStrategy13AllocFailEnumE
   fun:_ZN21AdapterHandlerLibrary14create_adapterERP11AdapterBlobiP9BasicTypeb
   fun:_ZN21AdapterHandlerLibrary11get_adapterERK12methodHandle
   fun:_ZN6Method11link_methodERK12methodHandleP10JavaThread
   fun:_ZN13InstanceKlass12link_methodsEP10JavaThread
   fun:_ZN13InstanceKlass15link_class_implEP10JavaThread
   fun:_ZN13InstanceKlass15initialize_implEP10JavaThread
   fun:_ZN18InterpreterRuntime4_newEP10JavaThreadP12ConstantPooli
   obj:*
   obj:*
}

{
   <insert_a_suppression_name_here>
   Memcheck:Leak
   match-leak-kinds: reachable
   fun:malloc
   fun:_ZN2os6mallocEm8MEMFLAGSRK15NativeCallStack
   fun:_Z12AllocateHeapm8MEMFLAGSN17AllocFailStrategy13AllocFailEnumE
   fun:_ZN21AdapterHandlerLibrary14create_adapterERP11AdapterBlobiP9BasicTypeb
   fun:_ZN21AdapterHandlerLibrary11get_adapterERK12methodHandle
   fun:_ZN6Method11link_methodERK12methodHandleP10JavaThread
   fun:_ZN13InstanceKlass12link_methodsEP10JavaThread
   fun:_ZN13InstanceKlass15link_class_implEP10JavaThread
   fun:_ZN13InstanceKlass15initialize_implEP10JavaThread
   fun:_ZN23java_lang_reflect_Field6createEP10JavaThread
   fun:_ZN10Reflection9new_fieldEP15fieldDescriptorP10JavaThread
   fun:JVM_GetClassDeclaredFields
}

{
   <insert_a_suppression_name_here>
   Memcheck:Leak
   match-leak-kinds: reachable
   fun:malloc
   fun:_ZN2os6mallocEm8MEMFLAGSRK15NativeCallStack
   fun:_Z12AllocateHeapm8MEMFLAGSN17AllocFailStrategy13AllocFailEnumE
   fun:_ZN21AdapterHandlerLibrary14create_adapterERP11AdapterBlobiP9BasicTypeb
   fun:_ZN21AdapterHandlerLibrary11get_adapterERK12methodHandle
   fun:_ZN6Method11link_methodERK12methodHandleP10JavaThread
   fun:_ZN13InstanceKlass12link_methodsEP10JavaThread
   fun:_ZN13InstanceKlass15link_class_implEP10JavaThread
   fun:_ZN13InstanceKlass15initialize_implEP10JavaThread
   fun:_ZN7Threads28initialize_java_lang_classesEP10JavaThreadS1_
   fun:_ZN7Threads9create_vmEP14JavaVMInitArgsPb
   fun:JNI_CreateJavaVM
}

{
   <insert_a_suppression_name_here>
   Memcheck:Leak
   match-leak-kinds: reachable
   fun:malloc
   fun:_ZN2os6mallocEm8MEMFLAGSRK15NativeCallStack
   fun:_Z12AllocateHeapm8MEMFLAGSN17AllocFailStrategy13AllocFailEnumE
   fun:_ZN21AdapterHandlerLibrary14create_adapterERP11AdapterBlobiP9BasicTypeb
   fun:_ZN21AdapterHandlerLibrary11get_adapterERK12methodHandle
   fun:_ZN6Method11link_methodERK12methodHandleP10JavaThread
   fun:_ZN13InstanceKlass12link_methodsEP10JavaThread
   fun:_ZN13InstanceKlass15link_class_implEP10JavaThread
   fun:_ZN13InstanceKlass15initialize_implEP10JavaThread
   fun:_ZN7Threads30initialize_jsr292_core_classesEP10JavaThread
   fun:_ZN7Threads9create_vmEP14JavaVMInitArgsPb
   fun:JNI_CreateJavaVM
}

{
   <insert_a_suppression_name_here>
   Memcheck:Leak
   match-leak-kinds: reachable
   fun:malloc
   fun:_ZN2os6mallocEm8MEMFLAGSRK15NativeCallStack
   fun:_Z12AllocateHeapm8MEMFLAGSN17AllocFailStrategy13AllocFailEnumE
   fun:_ZN21AdapterHandlerLibrary14create_adapterERP11AdapterBlobiP9BasicTypeb
   fun:_ZN21AdapterHandlerLibrary11get_adapterERK12methodHandle
   fun:_ZN6Method11link_methodERK12methodHandleP10JavaThread
   fun:_ZN13InstanceKlass12link_methodsEP10JavaThread
   fun:_ZN13InstanceKlass15link_class_implEP10JavaThread
   fun:_ZN13InstanceKlass15link_class_implEP10JavaThread
   fun:_ZN13InstanceKlass15initialize_implEP10JavaThread
   fun:_Z28find_class_from_class_loaderP7JNIEnv_P6Symbolh6HandleS3_hP10JavaThread
   fun:_ZL9lookupOneP7JNIEnv_PKcP10JavaThread
}

{
   <insert_a_suppression_name_here>
   Memcheck:Leak
   match-leak-kinds: reachable
   fun:malloc
   fun:_ZN2os6mallocEm8MEMFLAGSRK15NativeCallStack
   fun:_Z12AllocateHeapm8MEMFLAGSN17AllocFailStrategy13AllocFailEnumE
   fun:_ZN21AdapterHandlerLibrary14create_adapterERP11AdapterBlobiP9BasicTypeb
   fun:_ZN21AdapterHandlerLibrary11get_adapterERK12methodHandle
   fun:_ZN6Method11link_methodERK12methodHandleP10JavaThread
   fun:_ZN13InstanceKlass12link_methodsEP10JavaThread
   fun:_ZN13InstanceKlass15link_class_implEP10JavaThread
   fun:_ZN13InstanceKlass15link_class_implEP10JavaThread
   fun:_ZN13InstanceKlass15initialize_implEP10JavaThread
   fun:_ZN12LinkResolver19resolve_static_callER8CallInfoRK8LinkInfobP10JavaThread
   fun:_ZN12LinkResolver14resolve_invokeER8CallInfo6HandleRK18constantPoolHandleiN9Bytecodes4CodeEP10JavaThread
}

{
   <insert_a_suppression_name_here>
   Memcheck:Leak
   match-leak-kinds: reachable
   fun:malloc
   fun:_ZN2os6mallocEm8MEMFLAGSRK15NativeCallStack
   fun:_Z12AllocateHeapm8MEMFLAGSN17AllocFailStrategy13AllocFailEnumE
   fun:_ZN21AdapterHandlerLibrary14create_adapterERP11AdapterBlobiP9BasicTypeb
   fun:_ZN21AdapterHandlerLibrary11get_adapterERK12methodHandle
   fun:_ZN6Method11link_methodERK12methodHandleP10JavaThread
   fun:_ZN13InstanceKlass12link_methodsEP10JavaThread
   fun:_ZN13InstanceKlass15link_class_implEP10JavaThread
   fun:_ZN13InstanceKlass15link_class_implEP10JavaThread
   fun:_ZN13InstanceKlass15initialize_implEP10JavaThread
   fun:_ZN18InterpreterRuntime4_newEP10JavaThreadP12ConstantPooli
   obj:*
}

{
   <insert_a_suppression_name_here>
   Memcheck:Leak
   match-leak-kinds: reachable
   fun:malloc
   fun:_ZN2os6mallocEm8MEMFLAGSRK15NativeCallStack
   fun:_Z12AllocateHeapm8MEMFLAGSN17AllocFailStrategy13AllocFailEnumE
   fun:_ZN21AdapterHandlerLibrary14create_adapterERP11AdapterBlobiP9BasicTypeb
   fun:_ZN21AdapterHandlerLibrary11get_adapterERK12methodHandle
   fun:_ZN6Method11link_methodERK12methodHandleP10JavaThread
   fun:_ZN13InstanceKlass12link_methodsEP10JavaThread
   fun:_ZN13InstanceKlass15link_class_implEP10JavaThread
   fun:_ZN13InstanceKlass15link_class_implEP10JavaThread
   fun:_ZN13InstanceKlass15initialize_implEP10JavaThread
   fun:_ZN7Threads28initialize_java_lang_classesEP10JavaThreadS1_
   fun:_ZN7Threads9create_vmEP14JavaVMInitArgsPb
}

{
   <insert_a_suppression_name_here>
   Memcheck:Leak
   match-leak-kinds: reachable
   fun:malloc
   fun:_ZN2os6mallocEm8MEMFLAGSRK15NativeCallStack
   fun:_Z12AllocateHeapm8MEMFLAGSN17AllocFailStrategy13AllocFailEnumE
   fun:_ZN21AdapterHandlerLibrary14create_adapterERP11AdapterBlobiP9BasicTypeb
   fun:_ZN21AdapterHandlerLibrary11get_adapterERK12methodHandle
   fun:_ZN6Method11link_methodERK12methodHandleP10JavaThread
   fun:_ZN13InstanceKlass12link_methodsEP10JavaThread
   fun:_ZN13InstanceKlass15link_class_implEP10JavaThread
   fun:_ZN13InstanceKlass15link_class_implEP10JavaThread
   fun:_ZN13InstanceKlass15link_class_implEP10JavaThread
   fun:_ZN13InstanceKlass15initialize_implEP10JavaThread
   fun:_ZN10HeapShared39resolve_or_init_classes_for_subgraph_ofEP5KlassbP10JavaThread
}

{
   <insert_a_suppression_name_here>
   Memcheck:Leak
   match-leak-kinds: reachable
   fun:malloc
   fun:_ZN2os6mallocEm8MEMFLAGSRK15NativeCallStack
   fun:_Z12AllocateHeapm8MEMFLAGSN17AllocFailStrategy13AllocFailEnumE
   fun:_ZN21AdapterHandlerLibrary14create_adapterERP11AdapterBlobiP9BasicTypeb
   fun:_ZN21AdapterHandlerLibrary11get_adapterERK12methodHandle
   fun:_ZN6Method11link_methodERK12methodHandleP10JavaThread
   fun:_ZN13InstanceKlass12link_methodsEP10JavaThread
   fun:_ZN13InstanceKlass15link_class_implEP10JavaThread
   fun:_ZN13InstanceKlass15link_class_implEP10JavaThread
   fun:_ZN13InstanceKlass15link_class_implEP10JavaThread
   fun:_ZN13InstanceKlass15initialize_implEP10JavaThread
   fun:_ZN18InterpreterRuntime4_newEP10JavaThreadP12ConstantPooli
}

{
   <insert_a_suppression_name_here>
   Memcheck:Leak
   match-leak-kinds: reachable
   fun:malloc
   fun:_ZN2os6mallocEm8MEMFLAGSRK15NativeCallStack
   fun:_Z12AllocateHeapm8MEMFLAGSN17AllocFailStrategy13AllocFailEnumE
   fun:_ZN21AdapterHandlerLibrary14create_adapterERP11AdapterBlobiP9BasicTypeb
   fun:_ZN21AdapterHandlerLibrary11get_adapterERK12methodHandle
   fun:_ZN6Method11link_methodERK12methodHandleP10JavaThread
   fun:_ZN13InstanceKlass12link_methodsEP10JavaThread
   fun:_ZN13InstanceKlass15link_class_implEP10JavaThread
   fun:_ZN13InstanceKlass15link_class_implEP10JavaThread
   fun:_ZN13InstanceKlass15link_class_implEP10JavaThread
   fun:_ZN13InstanceKlass15link_class_implEP10JavaThread
   fun:_ZN13InstanceKlass15initialize_implEP10JavaThread
}

{
   <insert_a_suppression_name_here>
   Memcheck:Leak
   match-leak-kinds: reachable
   fun:malloc
   fun:_ZN2os6mallocEm8MEMFLAGSRK15NativeCallStack
   fun:_Z12AllocateHeapm8MEMFLAGSN17AllocFailStrategy13AllocFailEnumE
   fun:_ZN21AdapterHandlerLibrary14create_adapterERP11AdapterBlobiP9BasicTypeb
   fun:_ZN21AdapterHandlerLibrary11get_adapterERK12methodHandle
   fun:_ZN6Method11link_methodERK12methodHandleP10JavaThread
   fun:_ZN13InstanceKlass12link_methodsEP10JavaThread
   fun:_ZN13InstanceKlass15link_class_implEP10JavaThread
   fun:_ZN13InstanceKlass15link_class_implEP10JavaThread
   fun:_ZN13InstanceKlass15link_class_implEP10JavaThread
   fun:_ZN13InstanceKlass15link_class_implEP10JavaThread
   fun:_ZN13InstanceKlass18link_class_or_failEP10JavaThread
}

{
   <insert_a_suppression_name_here>
   Memcheck:Leak
   match-leak-kinds: reachable
   fun:malloc
   fun:_ZN2os6mallocEm8MEMFLAGSRK15NativeCallStack
   fun:_Z12AllocateHeapm8MEMFLAGSN17AllocFailStrategy13AllocFailEnumE
   fun:_ZN21AdapterHandlerLibrary14create_adapterERP11AdapterBlobiP9BasicTypeb
   fun:_ZN21AdapterHandlerLibrary11get_adapterERK12methodHandle
   fun:_ZN6Method11link_methodERK12methodHandleP10JavaThread
   fun:_ZN13InstanceKlass12link_methodsEP10JavaThread
   fun:_ZN13InstanceKlass15link_class_implEP10JavaThread
   fun:_ZN13InstanceKlass15link_class_implEP10JavaThread
   fun:_ZN13InstanceKlass15link_class_implEP10JavaThread
   fun:_ZN13InstanceKlass18link_class_or_failEP10JavaThread
   fun:_Z18universe_post_initv
}

{
   <insert_a_suppression_name_here>
   Memcheck:Leak
   match-leak-kinds: reachable
   fun:malloc
   fun:_ZN2os6mallocEm8MEMFLAGSRK15NativeCallStack
   fun:_Z12AllocateHeapm8MEMFLAGSN17AllocFailStrategy13AllocFailEnumE
   fun:_ZN21AdapterHandlerLibrary14create_adapterERP11AdapterBlobiP9BasicTypeb
   fun:_ZN21AdapterHandlerLibrary11get_adapterERK12methodHandle
   fun:_ZN6Method11link_methodERK12methodHandleP10JavaThread
   fun:_ZN13InstanceKlass12link_methodsEP10JavaThread
   fun:_ZN13InstanceKlass15link_class_implEP10JavaThread
   fun:_ZN13InstanceKlass18link_class_or_failEP10JavaThread
   fun:_Z23initialize_known_methodP17LatestMethodCacheP13InstanceKlassPKcP6SymbolbP10JavaThread
   fun:_Z18universe_post_initv
   fun:_Z13init_globals2v
}

{
   <insert_a_suppression_name_here>
   Memcheck:Leak
   match-leak-kinds: reachable
   fun:malloc
   fun:_ZN2os6mallocEm8MEMFLAGSRK15NativeCallStack
   fun:_Z12AllocateHeapm8MEMFLAGSN17AllocFailStrategy13AllocFailEnumE
   fun:_ZN21AdapterHandlerLibrary14create_adapterERP11AdapterBlobiP9BasicTypeb
   fun:_ZN21AdapterHandlerLibrary11get_adapterERK12methodHandle
   fun:_ZN6Method11link_methodERK12methodHandleP10JavaThread
   fun:_ZN13InstanceKlass12link_methodsEP10JavaThread
   fun:_ZN13InstanceKlass15link_class_implEP10JavaThread
   fun:_ZN13InstanceKlass18link_class_or_failEP10JavaThread
   fun:_Z23initialize_known_methodP17LatestMethodCacheP13InstanceKlassPKcP6SymbolbP10JavaThread
   fun:_ZN8Universe24initialize_known_methodsEP10JavaThread
   fun:_Z18universe_post_initv
}

{
   <insert_a_suppression_name_here>
   Memcheck:Leak
   match-leak-kinds: reachable
   fun:malloc
   fun:_ZN2os6mallocEm8MEMFLAGSRK15NativeCallStack
   fun:_Z12AllocateHeapm8MEMFLAGSN17AllocFailStrategy13AllocFailEnumE
   fun:_ZN21AdapterHandlerLibrary14create_adapterERP11AdapterBlobiP9BasicTypeb
   fun:_ZN21AdapterHandlerLibrary11get_adapterERK12methodHandle
   fun:_ZN6Method11link_methodERK12methodHandleP10JavaThread
   fun:_ZN13InstanceKlass12link_methodsEP10JavaThread
   fun:_ZN13InstanceKlass15link_class_implEP10JavaThread
   fun:_ZN16SystemDictionary19resolve_from_streamEP15ClassFileStreamP6Symbol6HandleRK13ClassLoadInfoP10JavaThread
   fun:_ZL23jvm_lookup_define_classP7_jclassPKcPKaiP8_jobjecthiS6_P10JavaThread
   fun:JVM_LookupDefineClass
   fun:Java_java_lang_ClassLoader_defineClass0
}

{
   <insert_a_suppression_name_here>
   Memcheck:Leak
   match-leak-kinds: reachable
   fun:malloc
   fun:_ZN2os6mallocEm8MEMFLAGSRK15NativeCallStack
   fun:_Z12AllocateHeapm8MEMFLAGSN17AllocFailStrategy13AllocFailEnumE
   fun:_ZN21AdapterHandlerLibrary14create_adapterERP11AdapterBlobiP9BasicTypeb
   fun:_ZN21AdapterHandlerLibrary11get_adapterERK12methodHandle
   fun:_ZN6Method11link_methodERK12methodHandleP10JavaThread
   fun:_ZN6Method28make_method_handle_intrinsicE13vmIntrinsicIDP6SymbolP10JavaThread
   fun:_ZN16SystemDictionary28find_method_handle_intrinsicE13vmIntrinsicIDP6SymbolP10JavaThread
   fun:_ZN12LinkResolver25lookup_polymorphic_methodERK8LinkInfoP6HandleP10JavaThread
   fun:_ZN12LinkResolver14resolve_methodERK8LinkInfoN9Bytecodes4CodeEP10JavaThread
   fun:_ZN12LinkResolver19resolve_static_callER8CallInfoRK8LinkInfobP10JavaThread
   fun:_ZN13MethodHandles18resolve_MemberNameE6HandleP5KlassibP10JavaThread
}

{
   <insert_a_suppression_name_here>
   Memcheck:Leak
   match-leak-kinds: reachable
   fun:malloc
   fun:_ZN2os6mallocEm8MEMFLAGSRK15NativeCallStack
   fun:_Z12AllocateHeapm8MEMFLAGSN17AllocFailStrategy13AllocFailEnumE
   fun:_ZN21AdapterHandlerLibrary14create_adapterERP11AdapterBlobiP9BasicTypeb.constprop.0
   fun:_ZN21AdapterHandlerLibrary10initializeEv
   fun:_ZN13SharedRuntime14generate_stubsEv
   fun:_Z12init_globalsv
   fun:_ZN7Threads9create_vmEP14JavaVMInitArgsPb
   fun:JNI_CreateJavaVM
   fun:JavaMain
   fun:ThreadJavaMain
   fun:start_thread
}

{
   <insert_a_suppression_name_here>
   Memcheck:Leak
   match-leak-kinds: reachable
   fun:malloc
   fun:_ZN2os6mallocEm8MEMFLAGSRK15NativeCallStack
   fun:_Z12AllocateHeapm8MEMFLAGSN17AllocFailStrategy13AllocFailEnumE
   fun:_ZN21AdapterHandlerLibrary14create_adapterERP11AdapterBlobiP9BasicTypeb.constprop.1
   fun:_ZN21AdapterHandlerLibrary10initializeEv
   fun:_ZN13SharedRuntime14generate_stubsEv
   fun:_Z12init_globalsv
   fun:_ZN7Threads9create_vmEP14JavaVMInitArgsPb
   fun:JNI_CreateJavaVM
   fun:JavaMain
   fun:ThreadJavaMain
   fun:start_thread
}

{
   <insert_a_suppression_name_here>
   Memcheck:Leak
   match-leak-kinds: reachable
   fun:malloc
   fun:_ZN2os6mallocEm8MEMFLAGSRK15NativeCallStack
   fun:_Z12AllocateHeapm8MEMFLAGSN17AllocFailStrategy13AllocFailEnumE
   fun:_ZN21AdapterHandlerLibrary9new_entryEP18AdapterFingerPrintPhS2_S2_S2_
   fun:_ZN13SharedRuntime23generate_i2c2i_adaptersEP14MacroAssembleriiPK9BasicTypePK9VMRegPairP18AdapterFingerPrint
   fun:_ZN21AdapterHandlerLibrary10initializeEv
   fun:_ZN13SharedRuntime14generate_stubsEv
   fun:_Z12init_globalsv
   fun:_ZN7Threads9create_vmEP14JavaVMInitArgsPb
   fun:JNI_CreateJavaVM
   fun:JavaMain
   fun:ThreadJavaMain
}

{
   <insert_a_suppression_name_here>
   Memcheck:Leak
   match-leak-kinds: reachable
   fun:malloc
   fun:_ZN2os6mallocEm8MEMFLAGSRK15NativeCallStack
   fun:_Z12AllocateHeapm8MEMFLAGSN17AllocFailStrategy13AllocFailEnumE
   fun:_ZN21AdapterHandlerLibrary9new_entryEP18AdapterFingerPrintPhS2_S2_S2_
   fun:_ZN13SharedRuntime23generate_i2c2i_adaptersEP14MacroAssembleriiPK9BasicTypePK9VMRegPairP18AdapterFingerPrint
   fun:_ZN21AdapterHandlerLibrary14create_adapterERP11AdapterBlobiP9BasicTypeb
   fun:_ZN21AdapterHandlerLibrary11get_adapterERK12methodHandle
   fun:_ZN6Method11link_methodERK12methodHandleP10JavaThread
   fun:_ZN13InstanceKlass12link_methodsEP10JavaThread
   fun:_ZN13InstanceKlass15link_class_implEP10JavaThread
   fun:_ZN13InstanceKlass15initialize_implEP10JavaThread
   fun:Unsafe_EnsureClassInitialized0
}

{
   <insert_a_suppression_name_here>
   Memcheck:Leak
   match-leak-kinds: reachable
   fun:malloc
   fun:_ZN2os6mallocEm8MEMFLAGSRK15NativeCallStack
   fun:_Z12AllocateHeapm8MEMFLAGSN17AllocFailStrategy13AllocFailEnumE
   fun:_ZN21AdapterHandlerLibrary9new_entryEP18AdapterFingerPrintPhS2_S2_S2_
   fun:_ZN13SharedRuntime23generate_i2c2i_adaptersEP14MacroAssembleriiPK9BasicTypePK9VMRegPairP18AdapterFingerPrint
   fun:_ZN21AdapterHandlerLibrary14create_adapterERP11AdapterBlobiP9BasicTypeb
   fun:_ZN21AdapterHandlerLibrary11get_adapterERK12methodHandle
   fun:_ZN6Method11link_methodERK12methodHandleP10JavaThread
   fun:_ZN13InstanceKlass12link_methodsEP10JavaThread
   fun:_ZN13InstanceKlass15link_class_implEP10JavaThread
   fun:_ZN13InstanceKlass15initialize_implEP10JavaThread
   fun:_Z28find_class_from_class_loaderP7JNIEnv_P6Symbolh6HandleS3_hP10JavaThread
}

{
   <insert_a_suppression_name_here>
   Memcheck:Leak
   match-leak-kinds: reachable
   fun:malloc
   fun:_ZN2os6mallocEm8MEMFLAGSRK15NativeCallStack
   fun:_Z12AllocateHeapm8MEMFLAGSN17AllocFailStrategy13AllocFailEnumE
   fun:_ZN21AdapterHandlerLibrary9new_entryEP18AdapterFingerPrintPhS2_S2_S2_
   fun:_ZN13SharedRuntime23generate_i2c2i_adaptersEP14MacroAssembleriiPK9BasicTypePK9VMRegPairP18AdapterFingerPrint
   fun:_ZN21AdapterHandlerLibrary14create_adapterERP11AdapterBlobiP9BasicTypeb
   fun:_ZN21AdapterHandlerLibrary11get_adapterERK12methodHandle
   fun:_ZN6Method11link_methodERK12methodHandleP10JavaThread
   fun:_ZN13InstanceKlass12link_methodsEP10JavaThread
   fun:_ZN13InstanceKlass15link_class_implEP10JavaThread
   fun:_ZN13InstanceKlass15initialize_implEP10JavaThread
   fun:_ZL13get_method_idP7JNIEnv_P7_jclassPKcS4_bP10JavaThread.constprop.0
}

{
   <insert_a_suppression_name_here>
   Memcheck:Leak
   match-leak-kinds: reachable
   fun:malloc
   fun:_ZN2os6mallocEm8MEMFLAGSRK15NativeCallStack
   fun:_Z12AllocateHeapm8MEMFLAGSN17AllocFailStrategy13AllocFailEnumE
   fun:_ZN21AdapterHandlerLibrary9new_entryEP18AdapterFingerPrintPhS2_S2_S2_
   fun:_ZN13SharedRuntime23generate_i2c2i_adaptersEP14MacroAssembleriiPK9BasicTypePK9VMRegPairP18AdapterFingerPrint
   fun:_ZN21AdapterHandlerLibrary14create_adapterERP11AdapterBlobiP9BasicTypeb
   fun:_ZN21AdapterHandlerLibrary11get_adapterERK12methodHandle
   fun:_ZN6Method11link_methodERK12methodHandleP10JavaThread
   fun:_ZN13InstanceKlass12link_methodsEP10JavaThread
   fun:_ZN13InstanceKlass15link_class_implEP10JavaThread
   fun:_ZN13InstanceKlass15initialize_implEP10JavaThread
   fun:_ZN10HeapShared39resolve_or_init_classes_for_subgraph_ofEP5KlassbP10JavaThread
}

{
   <insert_a_suppression_name_here>
   Memcheck:Leak
   match-leak-kinds: reachable
   fun:malloc
   fun:_ZN2os6mallocEm8MEMFLAGSRK15NativeCallStack
   fun:_Z12AllocateHeapm8MEMFLAGSN17AllocFailStrategy13AllocFailEnumE
   fun:_ZN21AdapterHandlerLibrary9new_entryEP18AdapterFingerPrintPhS2_S2_S2_
   fun:_ZN13SharedRuntime23generate_i2c2i_adaptersEP14MacroAssembleriiPK9BasicTypePK9VMRegPairP18AdapterFingerPrint
   fun:_ZN21AdapterHandlerLibrary14create_adapterERP11AdapterBlobiP9BasicTypeb
   fun:_ZN21AdapterHandlerLibrary11get_adapterERK12methodHandle
   fun:_ZN6Method11link_methodERK12methodHandleP10JavaThread
   fun:_ZN13InstanceKlass12link_methodsEP10JavaThread
   fun:_ZN13InstanceKlass15link_class_implEP10JavaThread
   fun:_ZN13InstanceKlass15initialize_implEP10JavaThread
   fun:_ZN12LinkResolver13resolve_fieldER15fieldDescriptorRK8LinkInfoN9Bytecodes4CodeEbP10JavaThread
}

{
   <insert_a_suppression_name_here>
   Memcheck:Leak
   match-leak-kinds: reachable
   fun:malloc
   fun:_ZN2os6mallocEm8MEMFLAGSRK15NativeCallStack
   fun:_Z12AllocateHeapm8MEMFLAGSN17AllocFailStrategy13AllocFailEnumE
   fun:_ZN21AdapterHandlerLibrary9new_entryEP18AdapterFingerPrintPhS2_S2_S2_
   fun:_ZN13SharedRuntime23generate_i2c2i_adaptersEP14MacroAssembleriiPK9BasicTypePK9VMRegPairP18AdapterFingerPrint
   fun:_ZN21AdapterHandlerLibrary14create_adapterERP11AdapterBlobiP9BasicTypeb
   fun:_ZN21AdapterHandlerLibrary11get_adapterERK12methodHandle
   fun:_ZN6Method11link_methodERK12methodHandleP10JavaThread
   fun:_ZN13InstanceKlass12link_methodsEP10JavaThread
   fun:_ZN13InstanceKlass15link_class_implEP10JavaThread
   fun:_ZN13InstanceKlass15initialize_implEP10JavaThread
   fun:_ZN12LinkResolver19resolve_static_callER8CallInfoRK8LinkInfobP10JavaThread
}

{
   <insert_a_suppression_name_here>
   Memcheck:Leak
   match-leak-kinds: reachable
   fun:malloc
   fun:_ZN2os6mallocEm8MEMFLAGSRK15NativeCallStack
   fun:_Z12AllocateHeapm8MEMFLAGSN17AllocFailStrategy13AllocFailEnumE
   fun:_ZN21AdapterHandlerLibrary9new_entryEP18AdapterFingerPrintPhS2_S2_S2_
   fun:_ZN13SharedRuntime23generate_i2c2i_adaptersEP14MacroAssembleriiPK9BasicTypePK9VMRegPairP18AdapterFingerPrint
   fun:_ZN21AdapterHandlerLibrary14create_adapterERP11AdapterBlobiP9BasicTypeb
   fun:_ZN21AdapterHandlerLibrary11get_adapterERK12methodHandle
   fun:_ZN6Method11link_methodERK12methodHandleP10JavaThread
   fun:_ZN13InstanceKlass12link_methodsEP10JavaThread
   fun:_ZN13InstanceKlass15link_class_implEP10JavaThread
   fun:_ZN13InstanceKlass15initialize_implEP10JavaThread
   fun:_ZN18InterpreterRuntime4_newEP10JavaThreadP12ConstantPooli
}

{
   <insert_a_suppression_name_here>
   Memcheck:Leak
   match-leak-kinds: reachable
   fun:malloc
   fun:_ZN2os6mallocEm8MEMFLAGSRK15NativeCallStack
   fun:_Z12AllocateHeapm8MEMFLAGSN17AllocFailStrategy13AllocFailEnumE
   fun:_ZN21AdapterHandlerLibrary9new_entryEP18AdapterFingerPrintPhS2_S2_S2_
   fun:_ZN13SharedRuntime23generate_i2c2i_adaptersEP14MacroAssembleriiPK9BasicTypePK9VMRegPairP18AdapterFingerPrint
   fun:_ZN21AdapterHandlerLibrary14create_adapterERP11AdapterBlobiP9BasicTypeb
   fun:_ZN21AdapterHandlerLibrary11get_adapterERK12methodHandle
   fun:_ZN6Method11link_methodERK12methodHandleP10JavaThread
   fun:_ZN13InstanceKlass12link_methodsEP10JavaThread
   fun:_ZN13InstanceKlass15link_class_implEP10JavaThread
   fun:_ZN13InstanceKlass15initialize_implEP10JavaThread
   fun:_ZN23java_lang_reflect_Field6createEP10JavaThread
}

{
   <insert_a_suppression_name_here>
   Memcheck:Leak
   match-leak-kinds: reachable
   fun:malloc
   fun:_ZN2os6mallocEm8MEMFLAGSRK15NativeCallStack
   fun:_Z12AllocateHeapm8MEMFLAGSN17AllocFailStrategy13AllocFailEnumE
   fun:_ZN21AdapterHandlerLibrary9new_entryEP18AdapterFingerPrintPhS2_S2_S2_
   fun:_ZN13SharedRuntime23generate_i2c2i_adaptersEP14MacroAssembleriiPK9BasicTypePK9VMRegPairP18AdapterFingerPrint
   fun:_ZN21AdapterHandlerLibrary14create_adapterERP11AdapterBlobiP9BasicTypeb
   fun:_ZN21AdapterHandlerLibrary11get_adapterERK12methodHandle
   fun:_ZN6Method11link_methodERK12methodHandleP10JavaThread
   fun:_ZN13InstanceKlass12link_methodsEP10JavaThread
   fun:_ZN13InstanceKlass15link_class_implEP10JavaThread
   fun:_ZN13InstanceKlass15initialize_implEP10JavaThread
   fun:_ZN7Threads28initialize_java_lang_classesEP10JavaThreadS1_
}

{
   <insert_a_suppression_name_here>
   Memcheck:Leak
   match-leak-kinds: reachable
   fun:malloc
   fun:_ZN2os6mallocEm8MEMFLAGSRK15NativeCallStack
   fun:_Z12AllocateHeapm8MEMFLAGSN17AllocFailStrategy13AllocFailEnumE
   fun:_ZN21AdapterHandlerLibrary9new_entryEP18AdapterFingerPrintPhS2_S2_S2_
   fun:_ZN13SharedRuntime23generate_i2c2i_adaptersEP14MacroAssembleriiPK9BasicTypePK9VMRegPairP18AdapterFingerPrint
   fun:_ZN21AdapterHandlerLibrary14create_adapterERP11AdapterBlobiP9BasicTypeb
   fun:_ZN21AdapterHandlerLibrary11get_adapterERK12methodHandle
   fun:_ZN6Method11link_methodERK12methodHandleP10JavaThread
   fun:_ZN13InstanceKlass12link_methodsEP10JavaThread
   fun:_ZN13InstanceKlass15link_class_implEP10JavaThread
   fun:_ZN13InstanceKlass15initialize_implEP10JavaThread
   fun:_ZN7Threads30initialize_jsr292_core_classesEP10JavaThread
}

{
   <insert_a_suppression_name_here>
   Memcheck:Leak
   match-leak-kinds: reachable
   fun:malloc
   fun:_ZN2os6mallocEm8MEMFLAGSRK15NativeCallStack
   fun:_Z12AllocateHeapm8MEMFLAGSN17AllocFailStrategy13AllocFailEnumE
   fun:_ZN21AdapterHandlerLibrary9new_entryEP18AdapterFingerPrintPhS2_S2_S2_
   fun:_ZN13SharedRuntime23generate_i2c2i_adaptersEP14MacroAssembleriiPK9BasicTypePK9VMRegPairP18AdapterFingerPrint
   fun:_ZN21AdapterHandlerLibrary14create_adapterERP11AdapterBlobiP9BasicTypeb
   fun:_ZN21AdapterHandlerLibrary11get_adapterERK12methodHandle
   fun:_ZN6Method11link_methodERK12methodHandleP10JavaThread
   fun:_ZN13InstanceKlass12link_methodsEP10JavaThread
   fun:_ZN13InstanceKlass15link_class_implEP10JavaThread
   fun:_ZN13InstanceKlass15link_class_implEP10JavaThread
   fun:_ZN13InstanceKlass15initialize_implEP10JavaThread
}

{
   <insert_a_suppression_name_here>
   Memcheck:Leak
   match-leak-kinds: reachable
   fun:malloc
   fun:_ZN2os6mallocEm8MEMFLAGSRK15NativeCallStack
   fun:_Z12AllocateHeapm8MEMFLAGSN17AllocFailStrategy13AllocFailEnumE
   fun:_ZN21AdapterHandlerLibrary9new_entryEP18AdapterFingerPrintPhS2_S2_S2_
   fun:_ZN13SharedRuntime23generate_i2c2i_adaptersEP14MacroAssembleriiPK9BasicTypePK9VMRegPairP18AdapterFingerPrint
   fun:_ZN21AdapterHandlerLibrary14create_adapterERP11AdapterBlobiP9BasicTypeb
   fun:_ZN21AdapterHandlerLibrary11get_adapterERK12methodHandle
   fun:_ZN6Method11link_methodERK12methodHandleP10JavaThread
   fun:_ZN13InstanceKlass12link_methodsEP10JavaThread
   fun:_ZN13InstanceKlass15link_class_implEP10JavaThread
   fun:_ZN13InstanceKlass15link_class_implEP10JavaThread
   fun:_ZN13InstanceKlass15link_class_implEP10JavaThread
}

{
   <insert_a_suppression_name_here>
   Memcheck:Leak
   match-leak-kinds: reachable
   fun:malloc
   fun:_ZN2os6mallocEm8MEMFLAGSRK15NativeCallStack
   fun:_Z12AllocateHeapm8MEMFLAGSN17AllocFailStrategy13AllocFailEnumE
   fun:_ZN21AdapterHandlerLibrary9new_entryEP18AdapterFingerPrintPhS2_S2_S2_
   fun:_ZN13SharedRuntime23generate_i2c2i_adaptersEP14MacroAssembleriiPK9BasicTypePK9VMRegPairP18AdapterFingerPrint
   fun:_ZN21AdapterHandlerLibrary14create_adapterERP11AdapterBlobiP9BasicTypeb
   fun:_ZN21AdapterHandlerLibrary11get_adapterERK12methodHandle
   fun:_ZN6Method11link_methodERK12methodHandleP10JavaThread
   fun:_ZN13InstanceKlass12link_methodsEP10JavaThread
   fun:_ZN13InstanceKlass15link_class_implEP10JavaThread
   fun:_ZN13InstanceKlass18link_class_or_failEP10JavaThread
   fun:_Z23initialize_known_methodP17LatestMethodCacheP13InstanceKlassPKcP6SymbolbP10JavaThread
}

{
   <insert_a_suppression_name_here>
   Memcheck:Leak
   match-leak-kinds: reachable
   fun:malloc
   fun:_ZN2os6mallocEm8MEMFLAGSRK15NativeCallStack
   fun:_Z12AllocateHeapm8MEMFLAGSN17AllocFailStrategy13AllocFailEnumE
   fun:_ZN21AdapterHandlerLibrary9new_entryEP18AdapterFingerPrintPhS2_S2_S2_
   fun:_ZN13SharedRuntime23generate_i2c2i_adaptersEP14MacroAssembleriiPK9BasicTypePK9VMRegPairP18AdapterFingerPrint
   fun:_ZN21AdapterHandlerLibrary14create_adapterERP11AdapterBlobiP9BasicTypeb
   fun:_ZN21AdapterHandlerLibrary11get_adapterERK12methodHandle
   fun:_ZN6Method11link_methodERK12methodHandleP10JavaThread
   fun:_ZN13InstanceKlass12link_methodsEP10JavaThread
   fun:_ZN13InstanceKlass15link_class_implEP10JavaThread
   fun:_ZN16SystemDictionary19resolve_from_streamEP15ClassFileStreamP6Symbol6HandleRK13ClassLoadInfoP10JavaThread
   fun:_ZL23jvm_lookup_define_classP7_jclassPKcPKaiP8_jobjecthiS6_P10JavaThread
}

{
   <insert_a_suppression_name_here>
   Memcheck:Leak
   match-leak-kinds: reachable
   fun:malloc
   fun:_ZN2os6mallocEm8MEMFLAGSRK15NativeCallStack
   fun:_Z12AllocateHeapm8MEMFLAGSN17AllocFailStrategy13AllocFailEnumE
   fun:_ZN21AdapterHandlerLibrary9new_entryEP18AdapterFingerPrintPhS2_S2_S2_
   fun:_ZN13SharedRuntime23generate_i2c2i_adaptersEP14MacroAssembleriiPK9BasicTypePK9VMRegPairP18AdapterFingerPrint
   fun:_ZN21AdapterHandlerLibrary14create_adapterERP11AdapterBlobiP9BasicTypeb
   fun:_ZN21AdapterHandlerLibrary11get_adapterERK12methodHandle
   fun:_ZN6Method11link_methodERK12methodHandleP10JavaThread
   fun:_ZN6Method28make_method_handle_intrinsicE13vmIntrinsicIDP6SymbolP10JavaThread
   fun:_ZN16SystemDictionary28find_method_handle_intrinsicE13vmIntrinsicIDP6SymbolP10JavaThread
   fun:_ZN12LinkResolver25lookup_polymorphic_methodERK8LinkInfoP6HandleP10JavaThread
   fun:_ZN12LinkResolver14resolve_methodERK8LinkInfoN9Bytecodes4CodeEP10JavaThread
}

{
   <insert_a_suppression_name_here>
   Memcheck:Leak
   match-leak-kinds: reachable
   fun:malloc
   fun:_ZN2os6mallocEm8MEMFLAGSRK15NativeCallStack
   fun:_Z12AllocateHeapm8MEMFLAGSN17AllocFailStrategy13AllocFailEnumE
   fun:_ZN21AdapterHandlerLibrary9new_entryEP18AdapterFingerPrintPhS2_S2_S2_
   fun:_ZN13SharedRuntime23generate_i2c2i_adaptersEP14MacroAssembleriiPK9BasicTypePK9VMRegPairP18AdapterFingerPrint
   fun:_ZN21AdapterHandlerLibrary14create_adapterERP11AdapterBlobiP9BasicTypeb.constprop.0
   fun:_ZN21AdapterHandlerLibrary10initializeEv
   fun:_ZN13SharedRuntime14generate_stubsEv
   fun:_Z12init_globalsv
   fun:_ZN7Threads9create_vmEP14JavaVMInitArgsPb
   fun:JNI_CreateJavaVM
   fun:JavaMain
}

{
   <insert_a_suppression_name_here>
   Memcheck:Leak
   match-leak-kinds: reachable
   fun:malloc
   fun:_ZN2os6mallocEm8MEMFLAGSRK15NativeCallStack
   fun:_Z12AllocateHeapm8MEMFLAGSN17AllocFailStrategy13AllocFailEnumE
   fun:_ZN21AdapterHandlerLibrary9new_entryEP18AdapterFingerPrintPhS2_S2_S2_
   fun:_ZN13SharedRuntime23generate_i2c2i_adaptersEP14MacroAssembleriiPK9BasicTypePK9VMRegPairP18AdapterFingerPrint
   fun:_ZN21AdapterHandlerLibrary14create_adapterERP11AdapterBlobiP9BasicTypeb.constprop.1
   fun:_ZN21AdapterHandlerLibrary10initializeEv
   fun:_ZN13SharedRuntime14generate_stubsEv
   fun:_Z12init_globalsv
   fun:_ZN7Threads9create_vmEP14JavaVMInitArgsPb
   fun:JNI_CreateJavaVM
   fun:JavaMain
}

{
   <insert_a_suppression_name_here>
   Memcheck:Leak
   match-leak-kinds: reachable
   fun:malloc
   fun:_ZN2os6mallocEm8MEMFLAGSRK15NativeCallStack
   fun:_Z12AllocateHeapm8MEMFLAGSN17AllocFailStrategy13AllocFailEnumE
   fun:_ZN21G1RegionToSpaceMapper13create_mapperE13ReservedSpacemmmm8MEMFLAGS
   fun:_ZN15G1CollectedHeap10initializeEv
   fun:_Z13universe_initv
   fun:_Z12init_globalsv
   fun:_ZN7Threads9create_vmEP14JavaVMInitArgsPb
   fun:JNI_CreateJavaVM
   fun:JavaMain
   fun:ThreadJavaMain
   fun:start_thread
}

{
   <insert_a_suppression_name_here>
   Memcheck:Leak
   match-leak-kinds: reachable
   fun:malloc
   fun:_ZN2os6mallocEm8MEMFLAGSRK15NativeCallStack
   fun:_Z12AllocateHeapm8MEMFLAGSN17AllocFailStrategy13AllocFailEnumE
   fun:_ZN21G1RegionToSpaceMapper13create_mapperE13ReservedSpacemmmm8MEMFLAGS
   fun:_ZN15G1CollectedHeap24create_aux_memory_mapperEPKcmm
   fun:_ZN15G1CollectedHeap10initializeEv
   fun:_Z13universe_initv
   fun:_Z12init_globalsv
   fun:_ZN7Threads9create_vmEP14JavaVMInitArgsPb
   fun:JNI_CreateJavaVM
   fun:JavaMain
   fun:ThreadJavaMain
}

{
   <insert_a_suppression_name_here>
   Memcheck:Leak
   match-leak-kinds: reachable
   fun:malloc
   fun:_ZN2os6mallocEm8MEMFLAGSRK15NativeCallStack
   fun:_Z12AllocateHeapm8MEMFLAGSN17AllocFailStrategy13AllocFailEnumE
   fun:_ZN21LoaderConstraintTable21add_loader_constraintEP6SymbolP13InstanceKlassP15ClassLoaderDataS5_
   fun:_ZN21LoaderConstraintTable9add_entryEP6SymbolP13InstanceKlassP15ClassLoaderDataS3_S5_
   fun:_ZN16SystemDictionary21add_loader_constraintEP6SymbolP5Klass6HandleS4_
   fun:_ZN16SystemDictionary23check_signature_loadersEP6SymbolP5Klass6HandleS4_b
   fun:_ZN12LinkResolver30check_field_loader_constraintsEP6SymbolS1_P5KlassS3_P10JavaThread
   fun:_ZN12LinkResolver20resolve_field_accessER15fieldDescriptorRK18constantPoolHandleiRK12methodHandleN9Bytecodes4CodeEP10JavaThread
   fun:_ZN18InterpreterRuntime15resolve_get_putEP10JavaThreadN9Bytecodes4CodeE
   fun:_ZN18InterpreterRuntime18resolve_from_cacheEP10JavaThreadN9Bytecodes4CodeE
   obj:*
}

{
   <insert_a_suppression_name_here>
   Memcheck:Leak
   match-leak-kinds: reachable
   fun:malloc
   fun:_ZN2os6mallocEm8MEMFLAGSRK15NativeCallStack
   fun:_Z12AllocateHeapm8MEMFLAGSN17AllocFailStrategy13AllocFailEnumE
   fun:_ZN21LoaderConstraintTable21add_loader_constraintEP6SymbolP13InstanceKlassP15ClassLoaderDataS5_
   fun:_ZN21LoaderConstraintTable9add_entryEP6SymbolP13InstanceKlassP15ClassLoaderDataS3_S5_
   fun:_ZN16SystemDictionary21add_loader_constraintEP6SymbolP5Klass6HandleS4_
   fun:_ZN16SystemDictionary23check_signature_loadersEP6SymbolP5Klass6HandleS4_b
   fun:_ZN12LinkResolver31check_method_loader_constraintsERK8LinkInfoRK12methodHandlePKcP10JavaThread
   fun:_ZN12LinkResolver14resolve_methodERK8LinkInfoN9Bytecodes4CodeEP10JavaThread
   fun:_ZN12LinkResolver19resolve_static_callER8CallInfoRK8LinkInfobP10JavaThread
   fun:_ZN12LinkResolver14resolve_invokeER8CallInfo6HandleRK18constantPoolHandleiN9Bytecodes4CodeEP10JavaThread
   fun:_ZN18InterpreterRuntime14resolve_invokeEP10JavaThreadN9Bytecodes4CodeE
}

{
   <insert_a_suppression_name_here>
   Memcheck:Leak
   match-leak-kinds: reachable
   fun:malloc
   fun:_ZN2os6mallocEm8MEMFLAGSRK15NativeCallStack
   fun:_Z12AllocateHeapm8MEMFLAGSN17AllocFailStrategy13AllocFailEnumE
   fun:_ZN21LoaderConstraintTable21add_loader_constraintEP6SymbolP13InstanceKlassP15ClassLoaderDataS5_
   fun:_ZN21LoaderConstraintTable9add_entryEP6SymbolP13InstanceKlassP15ClassLoaderDataS3_S5_
   fun:_ZN16SystemDictionary21add_loader_constraintEP6SymbolP5Klass6HandleS4_
   fun:_ZN16SystemDictionary23check_signature_loadersEP6SymbolP5Klass6HandleS4_b
   fun:_ZN12LinkResolver31check_method_loader_constraintsERK8LinkInfoRK12methodHandlePKcP10JavaThread
   fun:_ZN12LinkResolver14resolve_methodERK8LinkInfoN9Bytecodes4CodeEP10JavaThread
   fun:_ZN12LinkResolver19resolve_static_callER8CallInfoRK8LinkInfobP10JavaThread
   fun:_ZN13MethodHandles18resolve_MemberNameE6HandleP5KlassibP10JavaThread
   fun:_ZN16SystemDictionary27link_method_handle_constantEP5KlassiS1_P6SymbolS3_P10JavaThread
}

{
   <insert_a_suppression_name_here>
   Memcheck:Leak
   match-leak-kinds: reachable
   fun:malloc
   fun:_ZN2os6mallocEm8MEMFLAGSRK15NativeCallStack
   fun:_Z12AllocateHeapm8MEMFLAGSN17AllocFailStrategy13AllocFailEnumE
   fun:_ZN21LoaderConstraintTable21add_loader_constraintEP6SymbolP13InstanceKlassP15ClassLoaderDataS5_
   fun:_ZN21LoaderConstraintTable9add_entryEP6SymbolP13InstanceKlassP15ClassLoaderDataS3_S5_
   fun:_ZN16SystemDictionary21add_loader_constraintEP6SymbolP5Klass6HandleS4_
   fun:_ZN16SystemDictionary23check_signature_loadersEP6SymbolP5Klass6HandleS4_b
   fun:_ZN12LinkResolver31check_method_loader_constraintsERK8LinkInfoRK12methodHandlePKcP10JavaThread
   fun:_ZN12LinkResolver14resolve_methodERK8LinkInfoN9Bytecodes4CodeEP10JavaThread
   fun:_ZN12LinkResolver31linktime_resolve_virtual_methodERK8LinkInfoP10JavaThread
   fun:_ZN12LinkResolver20resolve_virtual_callER8CallInfo6HandleP5KlassRK8LinkInfobP10JavaThread
   fun:_ZN12LinkResolver14resolve_invokeER8CallInfo6HandleRK18constantPoolHandleiN9Bytecodes4CodeEP10JavaThread
}

{
   <insert_a_suppression_name_here>
   Memcheck:Leak
   match-leak-kinds: reachable
   fun:malloc
   fun:_ZN2os6mallocEm8MEMFLAGSRK15NativeCallStack
   fun:_Z12AllocateHeapm8MEMFLAGSN17AllocFailStrategy13AllocFailEnumE
   fun:_ZN21LoaderConstraintTable21add_loader_constraintEP6SymbolP13InstanceKlassP15ClassLoaderDataS5_
   fun:_ZN21LoaderConstraintTable9add_entryEP6SymbolP13InstanceKlassP15ClassLoaderDataS3_S5_
   fun:_ZN16SystemDictionary21add_loader_constraintEP6SymbolP5Klass6HandleS4_
   fun:_ZN16SystemDictionary23check_signature_loadersEP6SymbolP5Klass6HandleS4_b
   fun:_ZN12LinkResolver31check_method_loader_constraintsERK8LinkInfoRK12methodHandlePKcP10JavaThread
   fun:_ZN12LinkResolver24resolve_interface_methodERK8LinkInfoN9Bytecodes4CodeEP10JavaThread
   fun:_ZN12LinkResolver22resolve_interface_callER8CallInfo6HandleP5KlassRK8LinkInfobP10JavaThread
   fun:_ZN12LinkResolver14resolve_invokeER8CallInfo6HandleRK18constantPoolHandleiN9Bytecodes4CodeEP10JavaThread
   fun:_ZN18InterpreterRuntime14resolve_invokeEP10JavaThreadN9Bytecodes4CodeE
}

{
   <insert_a_suppression_name_here>
   Memcheck:Leak
   match-leak-kinds: reachable
   fun:malloc
   fun:_ZN2os6mallocEm8MEMFLAGSRK15NativeCallStack
   fun:_Z12AllocateHeapm8MEMFLAGSN17AllocFailStrategy13AllocFailEnumE
   fun:_ZN22G1CardSetConfiguration27init_card_set_alloc_optionsEv
   fun:_ZN22G1CardSetConfigurationC1Ev
   fun:_ZN15G1CollectedHeapC1Ev
   fun:_ZN11G1Arguments11create_heapEv
   fun:_Z13universe_initv
   fun:_Z12init_globalsv
   fun:_ZN7Threads9create_vmEP14JavaVMInitArgsPb
   fun:JNI_CreateJavaVM
   fun:JavaMain
}

{
   <insert_a_suppression_name_here>
   Memcheck:Leak
   match-leak-kinds: reachable
   fun:malloc
   fun:_ZN2os6mallocEm8MEMFLAGSRK15NativeCallStack
   fun:_Z12AllocateHeapm8MEMFLAGSN17AllocFailStrategy13AllocFailEnumE
   fun:_ZN22G1CardSetMemoryManagerC1EP22G1CardSetConfigurationP24G1MonotonicArenaFreePool
   fun:_ZN16HeapRegionRemSetC1EP10HeapRegionP22G1CardSetConfiguration
   fun:_ZN10HeapRegionC1EjP18G1BlockOffsetTable9MemRegionP22G1CardSetConfiguration
   fun:_ZN15G1CollectedHeap15new_heap_regionEj9MemRegion
   fun:_ZN15G1CollectedHeap10initializeEv
   fun:_Z13universe_initv
   fun:_Z12init_globalsv
   fun:_ZN7Threads9create_vmEP14JavaVMInitArgsPb
   fun:JNI_CreateJavaVM
}

{
   <insert_a_suppression_name_here>
   Memcheck:Leak
   match-leak-kinds: reachable
   fun:malloc
   fun:_ZN2os6mallocEm8MEMFLAGSRK15NativeCallStack
   fun:_Z12AllocateHeapm8MEMFLAGSN17AllocFailStrategy13AllocFailEnumE
   fun:_ZN22G1CardSetMemoryManagerC1EP22G1CardSetConfigurationP24G1MonotonicArenaFreePool
   fun:_ZN16HeapRegionRemSetC1EP10HeapRegionP22G1CardSetConfiguration
   fun:_ZN10HeapRegionC1EjP18G1BlockOffsetTable9MemRegionP22G1CardSetConfiguration
   fun:_ZN15G1CollectedHeap15new_heap_regionEj9MemRegion
   fun:_ZN17HeapRegionManager12expand_exactEjjP13WorkerThreads
   fun:_ZN17HeapRegionManager27allocate_containing_regionsE9MemRegionPmP13WorkerThreads
   fun:_ZN15G1CollectedHeap21alloc_archive_regionsE9MemRegion
   fun:_ZN11FileMapInfo20map_heap_region_implEv
   fun:_ZN11FileMapInfo23map_or_load_heap_regionEv
}

{
   <insert_a_suppression_name_here>
   Memcheck:Leak
   match-leak-kinds: reachable
   fun:malloc
   fun:_ZN2os6mallocEm8MEMFLAGSRK15NativeCallStack
   fun:_Z12AllocateHeapm8MEMFLAGSN17AllocFailStrategy13AllocFailEnumE
   fun:_ZN22G1CardSetMemoryManagerC1EP22G1CardSetConfigurationP24G1MonotonicArenaFreePool
   fun:_ZN16HeapRegionRemSetC1EP10HeapRegionP22G1CardSetConfiguration
   fun:_ZN10HeapRegionC1EjP18G1BlockOffsetTable9MemRegionP22G1CardSetConfiguration
   fun:_ZN15G1CollectedHeap15new_heap_regionEj9MemRegion
   fun:_ZN17HeapRegionManager6expandEjjP13WorkerThreads
   fun:_ZN17HeapRegionManager9expand_byEjP13WorkerThreads
   fun:_ZN15G1CollectedHeap6expandEmP13WorkerThreadsPd
   fun:_ZN15G1CollectedHeap10initializeEv
   fun:_Z13universe_initv
}

{
   <insert_a_suppression_name_here>
   Memcheck:Leak
   match-leak-kinds: reachable
   fun:malloc
   fun:_ZN2os6mallocEm8MEMFLAGSRK15NativeCallStack
   fun:_Z12AllocateHeapm8MEMFLAGSN17AllocFailStrategy13AllocFailEnumE
   fun:_ZN22G1RegionMarkStatsCacheC1EP17G1RegionMarkStatsj
   fun:_ZN8G1CMTaskC1EjP16G1ConcurrentMarkP16GenericTaskQueueI16G1TaskQueueEntryL8MEMFLAGS5ELj131072EEP17G1RegionMarkStats
   fun:_ZN16G1ConcurrentMarkC1EP15G1CollectedHeapP21G1RegionToSpaceMapper
   fun:_ZN15G1CollectedHeap10initializeEv
   fun:_Z13universe_initv
   fun:_Z12init_globalsv
   fun:_ZN7Threads9create_vmEP14JavaVMInitArgsPb
   fun:JNI_CreateJavaVM
   fun:JavaMain
}

{
   <insert_a_suppression_name_here>
   Memcheck:Leak
   match-leak-kinds: reachable
   fun:malloc
   fun:_ZN2os6mallocEm8MEMFLAGSRK15NativeCallStack
   fun:_Z12AllocateHeapm8MEMFLAGSN17AllocFailStrategy13AllocFailEnumE
   fun:_ZN22MonitorDeflationThread10initializeEv
   fun:_ZN7Threads9create_vmEP14JavaVMInitArgsPb
   fun:JNI_CreateJavaVM
   fun:JavaMain
   fun:ThreadJavaMain
   fun:start_thread
   fun:clone
}

{
   <insert_a_suppression_name_here>
   Memcheck:Leak
   match-leak-kinds: reachable
   fun:malloc
   fun:_ZN2os6mallocEm8MEMFLAGSRK15NativeCallStack
   fun:_Z12AllocateHeapm8MEMFLAGSN17AllocFailStrategy13AllocFailEnumE
   fun:_ZN23G1BiasedMappedArrayBase21create_new_base_arrayEmm
   fun:_ZN15G1CollectedHeap10initializeEv
   fun:_Z13universe_initv
   fun:_Z12init_globalsv
   fun:_ZN7Threads9create_vmEP14JavaVMInitArgsPb
   fun:JNI_CreateJavaVM
   fun:JavaMain
   fun:ThreadJavaMain
   fun:start_thread
}

{
   <insert_a_suppression_name_here>
   Memcheck:Leak
   match-leak-kinds: reachable
   fun:malloc
   fun:_ZN2os6mallocEm8MEMFLAGSRK15NativeCallStack
   fun:_Z12AllocateHeapm8MEMFLAGSN17AllocFailStrategy13AllocFailEnumE
   fun:_ZN23G1BiasedMappedArrayBase21create_new_base_arrayEmm
   fun:_ZN17HeapRegionManager10initializeEP21G1RegionToSpaceMapperS1_S1_S1_
   fun:_ZN15G1CollectedHeap10initializeEv
   fun:_Z13universe_initv
   fun:_Z12init_globalsv
   fun:_ZN7Threads9create_vmEP14JavaVMInitArgsPb
   fun:JNI_CreateJavaVM
   fun:JavaMain
   fun:ThreadJavaMain
}

{
   <insert_a_suppression_name_here>
   Memcheck:Leak
   match-leak-kinds: reachable
   fun:malloc
   fun:_ZN2os6mallocEm8MEMFLAGSRK15NativeCallStack
   fun:_Z12AllocateHeapm8MEMFLAGSN17AllocFailStrategy13AllocFailEnumE
   fun:_ZN24CompressedKlassSpacePoolC1Ev
   fun:_ZN13MemoryService26add_metaspace_memory_poolsEv
   fun:_Z18universe_post_initv
   fun:_Z13init_globals2v
   fun:_ZN7Threads9create_vmEP14JavaVMInitArgsPb
   fun:JNI_CreateJavaVM
   fun:JavaMain
   fun:ThreadJavaMain
   fun:start_thread
}

{
   <insert_a_suppression_name_here>
   Memcheck:Leak
   match-leak-kinds: reachable
   fun:malloc
   fun:_ZN2os6mallocEm8MEMFLAGSRK15NativeCallStack
   fun:_Z12AllocateHeapm8MEMFLAGSN17AllocFailStrategy13AllocFailEnumE
   fun:_ZN24G1ConcurrentRefineThread6createEP18G1ConcurrentRefinej
   fun:_ZN31G1ConcurrentRefineThreadControl10initializeEP18G1ConcurrentRefinej
   fun:_ZN18G1ConcurrentRefine6createEP8G1PolicyPi
   fun:_ZN15G1CollectedHeap10initializeEv
   fun:_Z13universe_initv
   fun:_Z12init_globalsv
   fun:_ZN7Threads9create_vmEP14JavaVMInitArgsPb
   fun:JNI_CreateJavaVM
   fun:JavaMain
}

{
   <insert_a_suppression_name_here>
   Memcheck:Leak
   match-leak-kinds: reachable
   fun:malloc
   fun:_ZN2os6mallocEm8MEMFLAGSRK15NativeCallStack
   fun:_Z12AllocateHeapm8MEMFLAGSN17AllocFailStrategy13AllocFailEnumE
   fun:_ZN24G1MonotonicArenaFreePoolC1Ej
   fun:_ZN15G1CollectedHeapC1Ev
   fun:_ZN11G1Arguments11create_heapEv
   fun:_Z13universe_initv
   fun:_Z12init_globalsv
   fun:_ZN7Threads9create_vmEP14JavaVMInitArgsPb
   fun:JNI_CreateJavaVM
   fun:JavaMain
   fun:ThreadJavaMain
}

{
   <insert_a_suppression_name_here>
   Memcheck:Leak
   match-leak-kinds: reachable
   fun:malloc
   fun:_ZN2os6mallocEm8MEMFLAGSRK15NativeCallStack
   fun:_Z12AllocateHeapm8MEMFLAGSN17AllocFailStrategy13AllocFailEnumE
   fun:_ZN24JfrEventClassTransformer17on_klass_creationERP13InstanceKlassR15ClassFileParserP10JavaThread
   fun:_ZN12KlassFactory18create_from_streamEP15ClassFileStreamP6SymbolP15ClassLoaderDataRK13ClassLoadInfoP10JavaThread
   fun:_ZN11ClassLoader10load_classEP6SymbolbP10JavaThread
   fun:_ZN16SystemDictionary24load_instance_class_implEP6Symbol6HandleP10JavaThread
   fun:_ZN16SystemDictionary19load_instance_classEP6Symbol6HandleP10JavaThread
   fun:_ZN16SystemDictionary30resolve_instance_class_or_nullEP6Symbol6HandleS2_P10JavaThread
   fun:_ZN16SystemDictionary15resolve_or_failEP6Symbol6HandleS2_bP10JavaThread
   fun:_ZN12ConstantPool13klass_at_implERK18constantPoolHandleiP10JavaThread
   fun:_ZN12ConstantPool12klass_ref_atEiN9Bytecodes4CodeEP10JavaThread
}

{
   <insert_a_suppression_name_here>
   Memcheck:Leak
   match-leak-kinds: reachable
   fun:malloc
   fun:_ZN2os6mallocEm8MEMFLAGSRK15NativeCallStack
   fun:_Z12AllocateHeapm8MEMFLAGSN17AllocFailStrategy13AllocFailEnumE
   fun:_ZN24JfrEventClassTransformer17on_klass_creationERP13InstanceKlassR15ClassFileParserP10JavaThread
   fun:_ZN12KlassFactory18create_from_streamEP15ClassFileStreamP6SymbolP15ClassLoaderDataRK13ClassLoadInfoP10JavaThread
   fun:_ZN11ClassLoader10load_classEP6SymbolbP10JavaThread
   fun:_ZN16SystemDictionary24load_instance_class_implEP6Symbol6HandleP10JavaThread
   fun:_ZN16SystemDictionary19load_instance_classEP6Symbol6HandleP10JavaThread
   fun:_ZN16SystemDictionary30resolve_instance_class_or_nullEP6Symbol6HandleS2_P10JavaThread
   fun:_ZN16SystemDictionary21resolve_super_or_failEP6SymbolS1_6HandleS2_bP10JavaThread
   fun:_ZN15ClassFileParser26post_process_parsed_streamEPK15ClassFileStreamP12ConstantPoolP10JavaThread
   fun:_ZN12KlassFactory18create_from_streamEP15ClassFileStreamP6SymbolP15ClassLoaderDataRK13ClassLoadInfoP10JavaThread
}

{
   <insert_a_suppression_name_here>
   Memcheck:Leak
   match-leak-kinds: reachable
   fun:malloc
   fun:_ZN2os6mallocEm8MEMFLAGSRK15NativeCallStack
   fun:_Z12AllocateHeapm8MEMFLAGSN17AllocFailStrategy13AllocFailEnumE
   fun:_ZN25G1CollectionSetCandidates10initializeEj
   fun:_ZN15G1CollectedHeap10initializeEv
   fun:_Z13universe_initv
   fun:_Z12init_globalsv
   fun:_ZN7Threads9create_vmEP14JavaVMInitArgsPb
   fun:JNI_CreateJavaVM
   fun:JavaMain
   fun:ThreadJavaMain
   fun:start_thread
}

{
   <insert_a_suppression_name_here>
   Memcheck:Leak
   match-leak-kinds: reachable
   fun:malloc
   fun:_ZN2os6mallocEm8MEMFLAGSRK15NativeCallStack
   fun:_Z12AllocateHeapm8MEMFLAGSN17AllocFailStrategy13AllocFailEnumE
   fun:_ZN25G1CollectionSetCandidatesC1Ev
   fun:_ZN15G1CollectionSetC1EP15G1CollectedHeapP8G1Policy
   fun:_ZN15G1CollectedHeapC1Ev
   fun:_ZN11G1Arguments11create_heapEv
   fun:_Z13universe_initv
   fun:_Z12init_globalsv
   fun:_ZN7Threads9create_vmEP14JavaVMInitArgsPb
   fun:JNI_CreateJavaVM
   fun:JavaMain
}

{
   <insert_a_suppression_name_here>
   Memcheck:Leak
   match-leak-kinds: reachable
   fun:malloc
   fun:_ZN2os6mallocEm8MEMFLAGSRK15NativeCallStack
   fun:_Z12AllocateHeapm8MEMFLAGSN17AllocFailStrategy13AllocFailEnumE
   fun:_ZN26GrowableArrayWithAllocatorIPh13GrowableArrayIS0_EE9expand_toEi
   fun:_ZN23SignatureHandlerLibrary3addERK12methodHandle.part.0
   fun:_ZN18InterpreterRuntime19prepare_native_callEP10JavaThreadP6Method
   obj:*
   obj:*
   obj:*
   obj:*
   obj:*
   obj:*
}

{
   <insert_a_suppression_name_here>
   Memcheck:Leak
   match-leak-kinds: reachable
   fun:malloc
   fun:_ZN2os6mallocEm8MEMFLAGSRK15NativeCallStack
   fun:_Z12AllocateHeapm8MEMFLAGSN17AllocFailStrategy13AllocFailEnumE
   fun:_ZN26GrowableArrayWithAllocatorIm13GrowableArrayImEE9expand_toEi
   fun:_ZN23SignatureHandlerLibrary3addERK12methodHandle.part.0
   fun:_ZN18InterpreterRuntime19prepare_native_callEP10JavaThreadP6Method
   obj:*
   obj:*
   obj:*
   obj:*
   obj:*
   obj:*
}

{
   <insert_a_suppression_name_here>
   Memcheck:Leak
   match-leak-kinds: reachable
   fun:malloc
   fun:_ZN2os6mallocEm8MEMFLAGSRK15NativeCallStack
   fun:_Z12AllocateHeapm8MEMFLAGSN17AllocFailStrategy13AllocFailEnumE
   fun:_ZN28ReferenceProcessorPhaseTimesC1EP7GCTimerj
   fun:_ZN14G1GCPhaseTimesC1EP10STWGCTimerj
   fun:_ZN8G1Policy27record_young_gc_pause_startEv
   fun:_ZN16G1YoungCollector7collectEv
   fun:_ZN15G1CollectedHeap39do_collection_pause_at_safepoint_helperEv
   fun:_ZN15G1CollectedHeap32do_collection_pause_at_safepointEv
   fun:_ZN25VM_G1CollectForAllocation4doitEv
   fun:_ZN12VM_Operation8evaluateEv
   fun:_ZN8VMThread18evaluate_operationEP12VM_Operation
}

{
   <insert_a_suppression_name_here>
   Memcheck:Leak
   match-leak-kinds: reachable
   fun:malloc
   fun:_ZN2os6mallocEm8MEMFLAGSRK15NativeCallStack
   fun:_Z12AllocateHeapm8MEMFLAGSN17AllocFailStrategy13AllocFailEnumE
   fun:_ZN2os13create_threadEP6ThreadNS_10ThreadTypeEm
   fun:JVM_StartThread
   obj:*
   obj:*
   obj:*
   obj:*
   obj:*
   obj:*
   fun:_ZN9JavaCalls11call_helperEP9JavaValueRK12methodHandleP17JavaCallArgumentsP10JavaThread
}

{
   <insert_a_suppression_name_here>
   Memcheck:Leak
   match-leak-kinds: reachable
   fun:malloc
   fun:_ZN2os6mallocEm8MEMFLAGSRK15NativeCallStack
   fun:_Z12AllocateHeapm8MEMFLAGSN17AllocFailStrategy13AllocFailEnumE
   fun:_ZN2os13create_threadEP6ThreadNS_10ThreadTypeEm
   fun:_ZN13ServiceThread10initializeEv
   fun:_ZN7Threads9create_vmEP14JavaVMInitArgsPb
   fun:JNI_CreateJavaVM
   fun:JavaMain
   fun:ThreadJavaMain
   fun:start_thread
   fun:clone
}

{
   <insert_a_suppression_name_here>
   Memcheck:Leak
   match-leak-kinds: reachable
   fun:malloc
   fun:_ZN2os6mallocEm8MEMFLAGSRK15NativeCallStack
   fun:_Z12AllocateHeapm8MEMFLAGSN17AllocFailStrategy13AllocFailEnumE
   fun:_ZN2os13create_threadEP6ThreadNS_10ThreadTypeEm
   fun:_ZN13WorkerThreads13create_workerEj
   fun:_ZN13WorkerThreads18initialize_workersEv
   fun:_ZN15G1CollectedHeap10initializeEv
   fun:_Z13universe_initv
   fun:_Z12init_globalsv
   fun:_ZN7Threads9create_vmEP14JavaVMInitArgsPb
   fun:JNI_CreateJavaVM
   fun:JavaMain
}

{
   <insert_a_suppression_name_here>
   Memcheck:Leak
   match-leak-kinds: reachable
   fun:malloc
   fun:_ZN2os6mallocEm8MEMFLAGSRK15NativeCallStack
   fun:_Z12AllocateHeapm8MEMFLAGSN17AllocFailStrategy13AllocFailEnumE
   fun:_ZN2os13create_threadEP6ThreadNS_10ThreadTypeEm
   fun:_ZN13WorkerThreads13create_workerEj
   fun:_ZN13WorkerThreads18initialize_workersEv
   fun:_ZN16G1ConcurrentMarkC1EP15G1CollectedHeapP21G1RegionToSpaceMapper
   fun:_ZN15G1CollectedHeap10initializeEv
   fun:_Z13universe_initv
   fun:_Z12init_globalsv
   fun:_ZN7Threads9create_vmEP14JavaVMInitArgsPb
   fun:JNI_CreateJavaVM
}

{
   <insert_a_suppression_name_here>
   Memcheck:Leak
   match-leak-kinds: reachable
   fun:malloc
   fun:_ZN2os6mallocEm8MEMFLAGSRK15NativeCallStack
   fun:_Z12AllocateHeapm8MEMFLAGSN17AllocFailStrategy13AllocFailEnumE
   fun:_ZN2os13create_threadEP6ThreadNS_10ThreadTypeEm
   fun:_ZN13WorkerThreads13create_workerEj
   fun:_ZN13WorkerThreads18set_active_workersEj
   fun:_ZN16G1YoungCollector7collectEv
   fun:_ZN15G1CollectedHeap39do_collection_pause_at_safepoint_helperEv
   fun:_ZN15G1CollectedHeap32do_collection_pause_at_safepointEv
   fun:_ZN25VM_G1CollectForAllocation4doitEv
   fun:_ZN12VM_Operation8evaluateEv
   fun:_ZN8VMThread18evaluate_operationEP12VM_Operation
}

{
   <insert_a_suppression_name_here>
   Memcheck:Leak
   match-leak-kinds: reachable
   fun:malloc
   fun:_ZN2os6mallocEm8MEMFLAGSRK15NativeCallStack
   fun:_Z12AllocateHeapm8MEMFLAGSN17AllocFailStrategy13AllocFailEnumE
   fun:_ZN2os13create_threadEP6ThreadNS_10ThreadTypeEm
   fun:_ZN18ConcurrentGCThread16create_and_startE14ThreadPriority
   fun:_ZN15G1CollectedHeap10initializeEv
   fun:_Z13universe_initv
   fun:_Z12init_globalsv
   fun:_ZN7Threads9create_vmEP14JavaVMInitArgsPb
   fun:JNI_CreateJavaVM
   fun:JavaMain
   fun:ThreadJavaMain
}

{
   <insert_a_suppression_name_here>
   Memcheck:Leak
   match-leak-kinds: reachable
   fun:malloc
   fun:_ZN2os6mallocEm8MEMFLAGSRK15NativeCallStack
   fun:_Z12AllocateHeapm8MEMFLAGSN17AllocFailStrategy13AllocFailEnumE
   fun:_ZN2os13create_threadEP6ThreadNS_10ThreadTypeEm
   fun:_ZN18ConcurrentGCThread16create_and_startE14ThreadPriority
   fun:_ZN16G1ConcurrentMarkC1EP15G1CollectedHeapP21G1RegionToSpaceMapper
   fun:_ZN15G1CollectedHeap10initializeEv
   fun:_Z13universe_initv
   fun:_Z12init_globalsv
   fun:_ZN7Threads9create_vmEP14JavaVMInitArgsPb
   fun:JNI_CreateJavaVM
   fun:JavaMain
}

{
   <insert_a_suppression_name_here>
   Memcheck:Leak
   match-leak-kinds: reachable
   fun:malloc
   fun:_ZN2os6mallocEm8MEMFLAGSRK15NativeCallStack
   fun:_Z12AllocateHeapm8MEMFLAGSN17AllocFailStrategy13AllocFailEnumE
   fun:_ZN2os13create_threadEP6ThreadNS_10ThreadTypeEm
   fun:_ZN18ConcurrentGCThread16create_and_startE14ThreadPriority
   fun:_ZN24G1ConcurrentRefineThread6createEP18G1ConcurrentRefinej
   fun:_ZN31G1ConcurrentRefineThreadControl10initializeEP18G1ConcurrentRefinej
   fun:_ZN18G1ConcurrentRefine6createEP8G1PolicyPi
   fun:_ZN15G1CollectedHeap10initializeEv
   fun:_Z13universe_initv
   fun:_Z12init_globalsv
   fun:_ZN7Threads9create_vmEP14JavaVMInitArgsPb
}

{
   <insert_a_suppression_name_here>
   Memcheck:Leak
   match-leak-kinds: reachable
   fun:malloc
   fun:_ZN2os6mallocEm8MEMFLAGSRK15NativeCallStack
   fun:_Z12AllocateHeapm8MEMFLAGSN17AllocFailStrategy13AllocFailEnumE
   fun:_ZN2os13create_threadEP6ThreadNS_10ThreadTypeEm
   fun:_ZN18NotificationThread10initializeEv
   fun:_ZN10Management10initializeEP10JavaThread
   fun:_ZN7Threads9create_vmEP14JavaVMInitArgsPb
   fun:JNI_CreateJavaVM
   fun:JavaMain
   fun:ThreadJavaMain
   fun:start_thread
   fun:clone
}

{
   <insert_a_suppression_name_here>
   Memcheck:Leak
   match-leak-kinds: reachable
   fun:malloc
   fun:_ZN2os6mallocEm8MEMFLAGSRK15NativeCallStack
   fun:_Z12AllocateHeapm8MEMFLAGSN17AllocFailStrategy13AllocFailEnumE
   fun:_ZN2os13create_threadEP6ThreadNS_10ThreadTypeEm
   fun:_ZN22MonitorDeflationThread10initializeEv
   fun:_ZN7Threads9create_vmEP14JavaVMInitArgsPb
   fun:JNI_CreateJavaVM
   fun:JavaMain
   fun:ThreadJavaMain
   fun:start_thread
   fun:clone
}

{
   <insert_a_suppression_name_here>
   Memcheck:Leak
   match-leak-kinds: reachable
   fun:malloc
   fun:_ZN2os6mallocEm8MEMFLAGSRK15NativeCallStack
   fun:_Z12AllocateHeapm8MEMFLAGSN17AllocFailStrategy13AllocFailEnumE
   fun:_ZN2os13create_threadEP6ThreadNS_10ThreadTypeEm
   fun:_ZN7Threads9create_vmEP14JavaVMInitArgsPb
   fun:JNI_CreateJavaVM
   fun:JavaMain
   fun:ThreadJavaMain
   fun:start_thread
   fun:clone
}

{
   <insert_a_suppression_name_here>
   Memcheck:Leak
   match-leak-kinds: reachable
   fun:malloc
   fun:_ZN2os6mallocEm8MEMFLAGSRK15NativeCallStack
   fun:_Z12AllocateHeapm8MEMFLAGSN17AllocFailStrategy13AllocFailEnumE
   fun:_ZN31G1CollectionCandidateRegionListC1Ev
   fun:_ZN15G1CollectionSetC1EP15G1CollectedHeapP8G1Policy
   fun:_ZN15G1CollectedHeapC1Ev
   fun:_ZN11G1Arguments11create_heapEv
   fun:_Z13universe_initv
   fun:_Z12init_globalsv
   fun:_ZN7Threads9create_vmEP14JavaVMInitArgsPb
   fun:JNI_CreateJavaVM
   fun:JavaMain
}

{
   <insert_a_suppression_name_here>
   Memcheck:Leak
   match-leak-kinds: reachable
   fun:malloc
   fun:_ZN2os6mallocEm8MEMFLAGSRK15NativeCallStack
   fun:_Z12AllocateHeapm8MEMFLAGSN17AllocFailStrategy13AllocFailEnumE
   fun:_ZN31G1ConcurrentRefineThreadControl10initializeEP18G1ConcurrentRefinej
   fun:_ZN18G1ConcurrentRefine6createEP8G1PolicyPi
   fun:_ZN15G1CollectedHeap10initializeEv
   fun:_Z13universe_initv
   fun:_Z12init_globalsv
   fun:_ZN7Threads9create_vmEP14JavaVMInitArgsPb
   fun:JNI_CreateJavaVM
   fun:JavaMain
   fun:ThreadJavaMain
}

{
   <insert_a_suppression_name_here>
   Memcheck:Leak
   match-leak-kinds: reachable
   fun:malloc
   fun:_ZN2os6mallocEm8MEMFLAGSRK15NativeCallStack
   fun:_Z12AllocateHeapm8MEMFLAGSN17AllocFailStrategy13AllocFailEnumE
   fun:_ZN4DCmd14register_dcmdsEv
   fun:_ZN10Management4initEv
   fun:_Z15management_initv
   fun:_Z12init_globalsv
   fun:_ZN7Threads9create_vmEP14JavaVMInitArgsPb
   fun:JNI_CreateJavaVM
   fun:JavaMain
   fun:ThreadJavaMain
   fun:start_thread
}

{
   <insert_a_suppression_name_here>
   Memcheck:Leak
   match-leak-kinds: reachable
   fun:malloc
   fun:_ZN2os6mallocEm8MEMFLAGSRK15NativeCallStack
   fun:_Z12AllocateHeapm8MEMFLAGSN17AllocFailStrategy13AllocFailEnumE
   fun:_ZN5Chunk29start_chunk_pool_cleaner_taskEv
   fun:_ZN7Threads9create_vmEP14JavaVMInitArgsPb
   fun:JNI_CreateJavaVM
   fun:JavaMain
   fun:ThreadJavaMain
   fun:start_thread
   fun:clone
}

{
   <insert_a_suppression_name_here>
   Memcheck:Leak
   match-leak-kinds: reachable
   fun:malloc
   fun:_ZN2os6mallocEm8MEMFLAGSRK15NativeCallStack
   fun:_Z12AllocateHeapm8MEMFLAGSN17AllocFailStrategy13AllocFailEnumE
   fun:_ZN6Events4initEv.part.0
   fun:_Z15vm_init_globalsv
   fun:_ZN7Threads9create_vmEP14JavaVMInitArgsPb
   fun:JNI_CreateJavaVM
   fun:JavaMain
   fun:ThreadJavaMain
   fun:start_thread
   fun:clone
}

{
   <insert_a_suppression_name_here>
   Memcheck:Leak
   match-leak-kinds: reachable
   fun:malloc
   fun:_ZN2os6mallocEm8MEMFLAGSRK15NativeCallStack
   fun:_Z12AllocateHeapm8MEMFLAGSN17AllocFailStrategy13AllocFailEnumE
   fun:_ZN6G1NUMA6createEv
   fun:_ZN15G1CollectedHeapC1Ev
   fun:_ZN11G1Arguments11create_heapEv
   fun:_Z13universe_initv
   fun:_Z12init_globalsv
   fun:_ZN7Threads9create_vmEP14JavaVMInitArgsPb
   fun:JNI_CreateJavaVM
   fun:JavaMain
   fun:ThreadJavaMain
}

{
   <insert_a_suppression_name_here>
   Memcheck:Leak
   match-leak-kinds: reachable
   fun:malloc
   fun:_ZN2os6mallocEm8MEMFLAGSRK15NativeCallStack
   fun:_Z12AllocateHeapm8MEMFLAGSN17AllocFailStrategy13AllocFailEnumE
   fun:_ZN6Method15make_jmethod_idEP15ClassLoaderDataPS_
   fun:_ZN13InstanceKlass14get_jmethod_idERK12methodHandle
   fun:_ZN6Method10jmethod_idEv
   fun:_ZL13get_method_idP7JNIEnv_P7_jclassPKcS4_bP10JavaThread.constprop.0
   fun:jni_GetStaticMethodID
   fun:checked_jni_GetStaticMethodID
   fun:JNU_CallStaticMethodByName
   fun:InitializeEncoding
   fun:Java_jdk_internal_util_SystemProps_00024Raw_platformProperties
}

{
   <insert_a_suppression_name_here>
   Memcheck:Leak
   match-leak-kinds: reachable
   fun:malloc
   fun:_ZN2os6mallocEm8MEMFLAGSRK15NativeCallStack
   fun:_Z12AllocateHeapm8MEMFLAGSN17AllocFailStrategy13AllocFailEnumE
   fun:_ZN6Method15make_jmethod_idEP15ClassLoaderDataPS_
   fun:_ZN13InstanceKlass14get_jmethod_idERK12methodHandle
   fun:_ZN6Method10jmethod_idEv
   fun:_ZL13get_method_idP7JNIEnv_P7_jclassPKcS4_bP10JavaThread.constprop.0
   fun:jni_GetStaticMethodID
   fun:checked_jni_GetStaticMethodID
   fun:JavaMain
   fun:ThreadJavaMain
   fun:start_thread
}

{
   <insert_a_suppression_name_here>
   Memcheck:Leak
   match-leak-kinds: reachable
   fun:malloc
   fun:_ZN2os6mallocEm8MEMFLAGSRK15NativeCallStack
   fun:_Z12AllocateHeapm8MEMFLAGSN17AllocFailStrategy13AllocFailEnumE
   fun:_ZN6ThreadC1Ev
   fun:_ZN10JavaThreadC1EPFvPS_S0_Em
   fun:JVM_StartThread
   obj:*
   obj:*
   obj:*
   obj:*
   obj:*
   obj:*
}

{
   <insert_a_suppression_name_here>
   Memcheck:Leak
   match-leak-kinds: reachable
   fun:malloc
   fun:_ZN2os6mallocEm8MEMFLAGSRK15NativeCallStack
   fun:_Z12AllocateHeapm8MEMFLAGSN17AllocFailStrategy13AllocFailEnumE
   fun:_ZN6ThreadC1Ev
   fun:_ZN10JavaThreadC1EPFvPS_S0_Em
   fun:_ZN13ServiceThread10initializeEv
   fun:_ZN7Threads9create_vmEP14JavaVMInitArgsPb
   fun:JNI_CreateJavaVM
   fun:JavaMain
   fun:ThreadJavaMain
   fun:start_thread
   fun:clone
}

{
   <insert_a_suppression_name_here>
   Memcheck:Leak
   match-leak-kinds: reachable
   fun:malloc
   fun:_ZN2os6mallocEm8MEMFLAGSRK15NativeCallStack
   fun:_Z12AllocateHeapm8MEMFLAGSN17AllocFailStrategy13AllocFailEnumE
   fun:_ZN6ThreadC1Ev
   fun:_ZN10JavaThreadC1EPFvPS_S0_Em
   fun:_ZN18NotificationThread10initializeEv
   fun:_ZN10Management10initializeEP10JavaThread
   fun:_ZN7Threads9create_vmEP14JavaVMInitArgsPb
   fun:JNI_CreateJavaVM
   fun:JavaMain
   fun:ThreadJavaMain
   fun:start_thread
}

{
   <insert_a_suppression_name_here>
   Memcheck:Leak
   match-leak-kinds: reachable
   fun:malloc
   fun:_ZN2os6mallocEm8MEMFLAGSRK15NativeCallStack
   fun:_Z12AllocateHeapm8MEMFLAGSN17AllocFailStrategy13AllocFailEnumE
   fun:_ZN6ThreadC1Ev
   fun:_ZN10JavaThreadC1EPFvPS_S0_Em
   fun:_ZN22MonitorDeflationThread10initializeEv
   fun:_ZN7Threads9create_vmEP14JavaVMInitArgsPb
   fun:JNI_CreateJavaVM
   fun:JavaMain
   fun:ThreadJavaMain
   fun:start_thread
   fun:clone
}

{
   <insert_a_suppression_name_here>
   Memcheck:Leak
   match-leak-kinds: reachable
   fun:malloc
   fun:_ZN2os6mallocEm8MEMFLAGSRK15NativeCallStack
   fun:_Z12AllocateHeapm8MEMFLAGSN17AllocFailStrategy13AllocFailEnumE
   fun:_ZN6ThreadC1Ev
   fun:_ZN11NamedThreadC1Ev
   fun:_ZN13WorkerThreads13create_workerEj
   fun:_ZN13WorkerThreads18initialize_workersEv
   fun:_ZN15G1CollectedHeap10initializeEv
   fun:_Z13universe_initv
   fun:_Z12init_globalsv
   fun:_ZN7Threads9create_vmEP14JavaVMInitArgsPb
   fun:JNI_CreateJavaVM
}

{
   <insert_a_suppression_name_here>
   Memcheck:Leak
   match-leak-kinds: reachable
   fun:malloc
   fun:_ZN2os6mallocEm8MEMFLAGSRK15NativeCallStack
   fun:_Z12AllocateHeapm8MEMFLAGSN17AllocFailStrategy13AllocFailEnumE
   fun:_ZN6ThreadC1Ev
   fun:_ZN11NamedThreadC1Ev
   fun:_ZN13WorkerThreads13create_workerEj
   fun:_ZN13WorkerThreads18initialize_workersEv
   fun:_ZN16G1ConcurrentMarkC1EP15G1CollectedHeapP21G1RegionToSpaceMapper
   fun:_ZN15G1CollectedHeap10initializeEv
   fun:_Z13universe_initv
   fun:_Z12init_globalsv
   fun:_ZN7Threads9create_vmEP14JavaVMInitArgsPb
}

{
   <insert_a_suppression_name_here>
   Memcheck:Leak
   match-leak-kinds: reachable
   fun:malloc
   fun:_ZN2os6mallocEm8MEMFLAGSRK15NativeCallStack
   fun:_Z12AllocateHeapm8MEMFLAGSN17AllocFailStrategy13AllocFailEnumE
   fun:_ZN6ThreadC1Ev
   fun:_ZN11NamedThreadC1Ev
   fun:_ZN13WorkerThreads13create_workerEj
   fun:_ZN13WorkerThreads18set_active_workersEj
   fun:_ZN16G1YoungCollector7collectEv
   fun:_ZN15G1CollectedHeap39do_collection_pause_at_safepoint_helperEv
   fun:_ZN15G1CollectedHeap32do_collection_pause_at_safepointEv
   fun:_ZN25VM_G1CollectForAllocation4doitEv
   fun:_ZN12VM_Operation8evaluateEv
}

{
   <insert_a_suppression_name_here>
   Memcheck:Leak
   match-leak-kinds: reachable
   fun:malloc
   fun:_ZN2os6mallocEm8MEMFLAGSRK15NativeCallStack
   fun:_Z12AllocateHeapm8MEMFLAGSN17AllocFailStrategy13AllocFailEnumE
   fun:_ZN6ThreadC1Ev
   fun:_ZN11NamedThreadC1Ev
   fun:_ZN18ConcurrentGCThreadC1Ev
   fun:_ZN15G1ServiceThreadC1Ev
   fun:_ZN15G1CollectedHeap10initializeEv
   fun:_Z13universe_initv
   fun:_Z12init_globalsv
   fun:_ZN7Threads9create_vmEP14JavaVMInitArgsPb
   fun:JNI_CreateJavaVM
}

{
   <insert_a_suppression_name_here>
   Memcheck:Leak
   match-leak-kinds: reachable
   fun:malloc
   fun:_ZN2os6mallocEm8MEMFLAGSRK15NativeCallStack
   fun:_Z12AllocateHeapm8MEMFLAGSN17AllocFailStrategy13AllocFailEnumE
   fun:_ZN6ThreadC1Ev
   fun:_ZN11NamedThreadC1Ev
   fun:_ZN18ConcurrentGCThreadC1Ev
   fun:_ZN22G1ConcurrentMarkThreadC1EP16G1ConcurrentMark
   fun:_ZN16G1ConcurrentMarkC1EP15G1CollectedHeapP21G1RegionToSpaceMapper
   fun:_ZN15G1CollectedHeap10initializeEv
   fun:_Z13universe_initv
   fun:_Z12init_globalsv
   fun:_ZN7Threads9create_vmEP14JavaVMInitArgsPb
}

{
   <insert_a_suppression_name_here>
   Memcheck:Leak
   match-leak-kinds: reachable
   fun:malloc
   fun:_ZN2os6mallocEm8MEMFLAGSRK15NativeCallStack
   fun:_Z12AllocateHeapm8MEMFLAGSN17AllocFailStrategy13AllocFailEnumE
   fun:_ZN6ThreadC1Ev
   fun:_ZN11NamedThreadC1Ev
   fun:_ZN18ConcurrentGCThreadC1Ev
   fun:_ZN24G1ConcurrentRefineThreadC1EP18G1ConcurrentRefinej
   fun:_ZN24G1ConcurrentRefineThread6createEP18G1ConcurrentRefinej
   fun:_ZN31G1ConcurrentRefineThreadControl10initializeEP18G1ConcurrentRefinej
   fun:_ZN18G1ConcurrentRefine6createEP8G1PolicyPi
   fun:_ZN15G1CollectedHeap10initializeEv
   fun:_Z13universe_initv
}

{
   <insert_a_suppression_name_here>
   Memcheck:Leak
   match-leak-kinds: reachable
   fun:malloc
   fun:_ZN2os6mallocEm8MEMFLAGSRK15NativeCallStack
   fun:_Z12AllocateHeapm8MEMFLAGSN17AllocFailStrategy13AllocFailEnumE
   fun:_ZN6ThreadC1Ev
   fun:_ZN11NamedThreadC1Ev
   fun:_ZN8VMThread6createEv
   fun:_ZN7Threads9create_vmEP14JavaVMInitArgsPb
   fun:JNI_CreateJavaVM
   fun:JavaMain
   fun:ThreadJavaMain
   fun:start_thread
   fun:clone
}

{
   <insert_a_suppression_name_here>
   Memcheck:Leak
   match-leak-kinds: reachable
   fun:malloc
   fun:_ZN2os6mallocEm8MEMFLAGSRK15NativeCallStack
   fun:_Z12AllocateHeapm8MEMFLAGSN17AllocFailStrategy13AllocFailEnumE
   fun:_ZN8G1Policy27record_young_gc_pause_startEv
   fun:_ZN16G1YoungCollector7collectEv
   fun:_ZN15G1CollectedHeap39do_collection_pause_at_safepoint_helperEv
   fun:_ZN15G1CollectedHeap32do_collection_pause_at_safepointEv
   fun:_ZN25VM_G1CollectForAllocation4doitEv
   fun:_ZN12VM_Operation8evaluateEv
   fun:_ZN8VMThread18evaluate_operationEP12VM_Operation
   fun:_ZN8VMThread13inner_executeEP12VM_Operation
   fun:_ZN8VMThread3runEv
}

{
   <insert_a_suppression_name_here>
   Memcheck:Leak
   match-leak-kinds: reachable
   fun:malloc
   fun:_ZN2os6mallocEm8MEMFLAGSRK15NativeCallStack
   fun:_Z12AllocateHeapm8MEMFLAGSN17AllocFailStrategy13AllocFailEnumE
   fun:_ZN8G1PolicyC1EP10STWGCTimer
   fun:_ZN15G1CollectedHeapC1Ev
   fun:_ZN11G1Arguments11create_heapEv
   fun:_Z13universe_initv
   fun:_Z12init_globalsv
   fun:_ZN7Threads9create_vmEP14JavaVMInitArgsPb
   fun:JNI_CreateJavaVM
   fun:JavaMain
   fun:ThreadJavaMain
}

{
   <insert_a_suppression_name_here>
   Memcheck:Leak
   match-leak-kinds: reachable
   fun:malloc
   fun:_ZN2os6mallocEm8MEMFLAGSRK15NativeCallStack
   fun:_Z12AllocateHeapm8MEMFLAGSN17AllocFailStrategy13AllocFailEnumE
   fun:_ZN8G1RemSet10initializeEj
   fun:_ZN15G1CollectedHeap10initializeEv
   fun:_Z13universe_initv
   fun:_Z12init_globalsv
   fun:_ZN7Threads9create_vmEP14JavaVMInitArgsPb
   fun:JNI_CreateJavaVM
   fun:JavaMain
   fun:ThreadJavaMain
   fun:start_thread
}

{
   <insert_a_suppression_name_here>
   Memcheck:Leak
   match-leak-kinds: reachable
   fun:malloc
   fun:_ZN2os6mallocEm8MEMFLAGSRK15NativeCallStack
   fun:_Z12AllocateHeapm8MEMFLAGSN17AllocFailStrategy13AllocFailEnumE
   fun:_ZN8G1RemSetC1EP15G1CollectedHeapP11G1CardTable
   fun:_ZN15G1CollectedHeap10initializeEv
   fun:_Z13universe_initv
   fun:_Z12init_globalsv
   fun:_ZN7Threads9create_vmEP14JavaVMInitArgsPb
   fun:JNI_CreateJavaVM
   fun:JavaMain
   fun:ThreadJavaMain
   fun:start_thread
}

{
   <insert_a_suppression_name_here>
   Memcheck:Leak
   match-leak-kinds: reachable
   fun:malloc
   fun:_ZN2os6mallocEm8MEMFLAGSRK15NativeCallStack
   fun:_Z12AllocateHeapm8MEMFLAGSN17AllocFailStrategy13AllocFailEnumE
   fun:_ZN8OSThread13pd_initializeEv
   fun:_ZN2os13create_threadEP6ThreadNS_10ThreadTypeEm
   fun:JVM_StartThread
   obj:*
   obj:*
   obj:*
   obj:*
   obj:*
   obj:*
}

{
   <insert_a_suppression_name_here>
   Memcheck:Leak
   match-leak-kinds: reachable
   fun:malloc
   fun:_ZN2os6mallocEm8MEMFLAGSRK15NativeCallStack
   fun:_Z12AllocateHeapm8MEMFLAGSN17AllocFailStrategy13AllocFailEnumE
   fun:_ZN8OSThread13pd_initializeEv
   fun:_ZN2os13create_threadEP6ThreadNS_10ThreadTypeEm
   fun:_ZN13ServiceThread10initializeEv
   fun:_ZN7Threads9create_vmEP14JavaVMInitArgsPb
   fun:JNI_CreateJavaVM
   fun:JavaMain
   fun:ThreadJavaMain
   fun:start_thread
   fun:clone
}

{
   <insert_a_suppression_name_here>
   Memcheck:Leak
   match-leak-kinds: reachable
   fun:malloc
   fun:_ZN2os6mallocEm8MEMFLAGSRK15NativeCallStack
   fun:_Z12AllocateHeapm8MEMFLAGSN17AllocFailStrategy13AllocFailEnumE
   fun:_ZN8OSThread13pd_initializeEv
   fun:_ZN2os13create_threadEP6ThreadNS_10ThreadTypeEm
   fun:_ZN13WorkerThreads13create_workerEj
   fun:_ZN13WorkerThreads18initialize_workersEv
   fun:_ZN15G1CollectedHeap10initializeEv
   fun:_Z13universe_initv
   fun:_Z12init_globalsv
   fun:_ZN7Threads9create_vmEP14JavaVMInitArgsPb
   fun:JNI_CreateJavaVM
}

{
   <insert_a_suppression_name_here>
   Memcheck:Leak
   match-leak-kinds: reachable
   fun:malloc
   fun:_ZN2os6mallocEm8MEMFLAGSRK15NativeCallStack
   fun:_Z12AllocateHeapm8MEMFLAGSN17AllocFailStrategy13AllocFailEnumE
   fun:_ZN8OSThread13pd_initializeEv
   fun:_ZN2os13create_threadEP6ThreadNS_10ThreadTypeEm
   fun:_ZN13WorkerThreads13create_workerEj
   fun:_ZN13WorkerThreads18initialize_workersEv
   fun:_ZN16G1ConcurrentMarkC1EP15G1CollectedHeapP21G1RegionToSpaceMapper
   fun:_ZN15G1CollectedHeap10initializeEv
   fun:_Z13universe_initv
   fun:_Z12init_globalsv
   fun:_ZN7Threads9create_vmEP14JavaVMInitArgsPb
}

{
   <insert_a_suppression_name_here>
   Memcheck:Leak
   match-leak-kinds: reachable
   fun:malloc
   fun:_ZN2os6mallocEm8MEMFLAGSRK15NativeCallStack
   fun:_Z12AllocateHeapm8MEMFLAGSN17AllocFailStrategy13AllocFailEnumE
   fun:_ZN8OSThread13pd_initializeEv
   fun:_ZN2os13create_threadEP6ThreadNS_10ThreadTypeEm
   fun:_ZN13WorkerThreads13create_workerEj
   fun:_ZN13WorkerThreads18set_active_workersEj
   fun:_ZN16G1YoungCollector7collectEv
   fun:_ZN15G1CollectedHeap39do_collection_pause_at_safepoint_helperEv
   fun:_ZN15G1CollectedHeap32do_collection_pause_at_safepointEv
   fun:_ZN25VM_G1CollectForAllocation4doitEv
   fun:_ZN12VM_Operation8evaluateEv
}

{
   <insert_a_suppression_name_here>
   Memcheck:Leak
   match-leak-kinds: reachable
   fun:malloc
   fun:_ZN2os6mallocEm8MEMFLAGSRK15NativeCallStack
   fun:_Z12AllocateHeapm8MEMFLAGSN17AllocFailStrategy13AllocFailEnumE
   fun:_ZN8OSThread13pd_initializeEv
   fun:_ZN2os13create_threadEP6ThreadNS_10ThreadTypeEm
   fun:_ZN18ConcurrentGCThread16create_and_startE14ThreadPriority
   fun:_ZN15G1CollectedHeap10initializeEv
   fun:_Z13universe_initv
   fun:_Z12init_globalsv
   fun:_ZN7Threads9create_vmEP14JavaVMInitArgsPb
   fun:JNI_CreateJavaVM
   fun:JavaMain
}

{
   <insert_a_suppression_name_here>
   Memcheck:Leak
   match-leak-kinds: reachable
   fun:malloc
   fun:_ZN2os6mallocEm8MEMFLAGSRK15NativeCallStack
   fun:_Z12AllocateHeapm8MEMFLAGSN17AllocFailStrategy13AllocFailEnumE
   fun:_ZN8OSThread13pd_initializeEv
   fun:_ZN2os13create_threadEP6ThreadNS_10ThreadTypeEm
   fun:_ZN18ConcurrentGCThread16create_and_startE14ThreadPriority
   fun:_ZN16G1ConcurrentMarkC1EP15G1CollectedHeapP21G1RegionToSpaceMapper
   fun:_ZN15G1CollectedHeap10initializeEv
   fun:_Z13universe_initv
   fun:_Z12init_globalsv
   fun:_ZN7Threads9create_vmEP14JavaVMInitArgsPb
   fun:JNI_CreateJavaVM
}

{
   <insert_a_suppression_name_here>
   Memcheck:Leak
   match-leak-kinds: reachable
   fun:malloc
   fun:_ZN2os6mallocEm8MEMFLAGSRK15NativeCallStack
   fun:_Z12AllocateHeapm8MEMFLAGSN17AllocFailStrategy13AllocFailEnumE
   fun:_ZN8OSThread13pd_initializeEv
   fun:_ZN2os13create_threadEP6ThreadNS_10ThreadTypeEm
   fun:_ZN18ConcurrentGCThread16create_and_startE14ThreadPriority
   fun:_ZN24G1ConcurrentRefineThread6createEP18G1ConcurrentRefinej
   fun:_ZN31G1ConcurrentRefineThreadControl10initializeEP18G1ConcurrentRefinej
   fun:_ZN18G1ConcurrentRefine6createEP8G1PolicyPi
   fun:_ZN15G1CollectedHeap10initializeEv
   fun:_Z13universe_initv
   fun:_Z12init_globalsv
}

{
   <insert_a_suppression_name_here>
   Memcheck:Leak
   match-leak-kinds: reachable
   fun:malloc
   fun:_ZN2os6mallocEm8MEMFLAGSRK15NativeCallStack
   fun:_Z12AllocateHeapm8MEMFLAGSN17AllocFailStrategy13AllocFailEnumE
   fun:_ZN8OSThread13pd_initializeEv
   fun:_ZN2os13create_threadEP6ThreadNS_10ThreadTypeEm
   fun:_ZN18NotificationThread10initializeEv
   fun:_ZN10Management10initializeEP10JavaThread
   fun:_ZN7Threads9create_vmEP14JavaVMInitArgsPb
   fun:JNI_CreateJavaVM
   fun:JavaMain
   fun:ThreadJavaMain
   fun:start_thread
}

{
   <insert_a_suppression_name_here>
   Memcheck:Leak
   match-leak-kinds: reachable
   fun:malloc
   fun:_ZN2os6mallocEm8MEMFLAGSRK15NativeCallStack
   fun:_Z12AllocateHeapm8MEMFLAGSN17AllocFailStrategy13AllocFailEnumE
   fun:_ZN8OSThread13pd_initializeEv
   fun:_ZN2os13create_threadEP6ThreadNS_10ThreadTypeEm
   fun:_ZN22MonitorDeflationThread10initializeEv
   fun:_ZN7Threads9create_vmEP14JavaVMInitArgsPb
   fun:JNI_CreateJavaVM
   fun:JavaMain
   fun:ThreadJavaMain
   fun:start_thread
   fun:clone
}

{
   <insert_a_suppression_name_here>
   Memcheck:Leak
   match-leak-kinds: reachable
   fun:malloc
   fun:_ZN2os6mallocEm8MEMFLAGSRK15NativeCallStack
   fun:_Z12AllocateHeapm8MEMFLAGSN17AllocFailStrategy13AllocFailEnumE
   fun:_ZN8OSThread13pd_initializeEv
   fun:_ZN2os13create_threadEP6ThreadNS_10ThreadTypeEm
   fun:_ZN7Threads9create_vmEP14JavaVMInitArgsPb
   fun:JNI_CreateJavaVM
   fun:JavaMain
   fun:ThreadJavaMain
   fun:start_thread
   fun:clone
}

{
   <insert_a_suppression_name_here>
   Memcheck:Leak
   match-leak-kinds: reachable
   fun:malloc
   fun:_ZN2os6mallocEm8MEMFLAGSRK15NativeCallStack
   fun:_Z12AllocateHeapm8MEMFLAGSN17AllocFailStrategy13AllocFailEnumE
   fun:_ZN8VMThread6createEv
   fun:_ZN7Threads9create_vmEP14JavaVMInitArgsPb
   fun:JNI_CreateJavaVM
   fun:JavaMain
   fun:ThreadJavaMain
   fun:start_thread
   fun:clone
}

{
   <insert_a_suppression_name_here>
   Memcheck:Leak
   match-leak-kinds: reachable
   fun:malloc
   fun:_ZN2os6mallocEm8MEMFLAGSRK15NativeCallStack
   fun:_Z12AllocateHeapm8MEMFLAGSN17AllocFailStrategy13AllocFailEnumE
   fun:_ZN9Arguments31get_default_shared_archive_pathEv
   fun:_ZN9Arguments25init_shared_archive_pathsEv
   fun:_ZN9Arguments10apply_ergoEv
   fun:_ZN7Threads9create_vmEP14JavaVMInitArgsPb
   fun:JNI_CreateJavaVM
   fun:JavaMain
   fun:ThreadJavaMain
   fun:start_thread
   fun:clone
}

{
   <insert_a_suppression_name_here>
   Memcheck:Leak
   match-leak-kinds: reachable
   fun:malloc
   fun:_ZN2os6mallocEm8MEMFLAGSRK15NativeCallStack
   fun:_Z12AllocateHeapm8MEMFLAGSN17AllocFailStrategy13AllocFailEnumE
   fun:_ZN9Assembler23precompute_instructionsEv
   fun:_ZN10VM_Version10initializeEv
   fun:_Z15VM_Version_initv
   fun:_Z12init_globalsv
   fun:_ZN7Threads9create_vmEP14JavaVMInitArgsPb
   fun:JNI_CreateJavaVM
   fun:JavaMain
   fun:ThreadJavaMain
   fun:start_thread
}

{
   <insert_a_suppression_name_here>
   Memcheck:Leak
   match-leak-kinds: reachable
   fun:malloc
   fun:_ZN2os6mallocEm8MEMFLAGSRK15NativeCallStack
   fun:_Z12AllocateHeapm8MEMFLAGSN17AllocFailStrategy13AllocFailEnumE
   fun:_ZN9CodeCache8add_heapE13ReservedSpacePKc12CodeBlobType
   fun:_ZN9CodeCache10initializeEv
   fun:_Z12init_globalsv
   fun:_ZN7Threads9create_vmEP14JavaVMInitArgsPb
   fun:JNI_CreateJavaVM
   fun:JavaMain
   fun:ThreadJavaMain
   fun:start_thread
   fun:clone
}

{
   <insert_a_suppression_name_here>
   Memcheck:Leak
   match-leak-kinds: reachable
   fun:malloc
   fun:_ZN2os6mallocEm8MEMFLAGSRK15NativeCallStack
   fun:_Z12AllocateHeapm8MEMFLAGSN17AllocFailStrategy13AllocFailEnumE
   fun:_ZN9G1CardSetC1EP22G1CardSetConfigurationP22G1CardSetMemoryManager
   fun:_ZN16HeapRegionRemSetC1EP10HeapRegionP22G1CardSetConfiguration
   fun:_ZN10HeapRegionC1EjP18G1BlockOffsetTable9MemRegionP22G1CardSetConfiguration
   fun:_ZN15G1CollectedHeap15new_heap_regionEj9MemRegion
   fun:_ZN15G1CollectedHeap10initializeEv
   fun:_Z13universe_initv
   fun:_Z12init_globalsv
   fun:_ZN7Threads9create_vmEP14JavaVMInitArgsPb
   fun:JNI_CreateJavaVM
}

{
   <insert_a_suppression_name_here>
   Memcheck:Leak
   match-leak-kinds: reachable
   fun:malloc
   fun:_ZN2os6mallocEm8MEMFLAGSRK15NativeCallStack
   fun:_Z12AllocateHeapm8MEMFLAGSN17AllocFailStrategy13AllocFailEnumE
   fun:_ZN9G1CardSetC1EP22G1CardSetConfigurationP22G1CardSetMemoryManager
   fun:_ZN16HeapRegionRemSetC1EP10HeapRegionP22G1CardSetConfiguration
   fun:_ZN10HeapRegionC1EjP18G1BlockOffsetTable9MemRegionP22G1CardSetConfiguration
   fun:_ZN15G1CollectedHeap15new_heap_regionEj9MemRegion
   fun:_ZN17HeapRegionManager12expand_exactEjjP13WorkerThreads
   fun:_ZN17HeapRegionManager27allocate_containing_regionsE9MemRegionPmP13WorkerThreads
   fun:_ZN15G1CollectedHeap21alloc_archive_regionsE9MemRegion
   fun:_ZN11FileMapInfo20map_heap_region_implEv
   fun:_ZN11FileMapInfo23map_or_load_heap_regionEv
}

{
   <insert_a_suppression_name_here>
   Memcheck:Leak
   match-leak-kinds: reachable
   fun:malloc
   fun:_ZN2os6mallocEm8MEMFLAGSRK15NativeCallStack
   fun:_Z12AllocateHeapm8MEMFLAGSN17AllocFailStrategy13AllocFailEnumE
   fun:_ZN9G1CardSetC1EP22G1CardSetConfigurationP22G1CardSetMemoryManager
   fun:_ZN16HeapRegionRemSetC1EP10HeapRegionP22G1CardSetConfiguration
   fun:_ZN10HeapRegionC1EjP18G1BlockOffsetTable9MemRegionP22G1CardSetConfiguration
   fun:_ZN15G1CollectedHeap15new_heap_regionEj9MemRegion
   fun:_ZN17HeapRegionManager6expandEjjP13WorkerThreads
   fun:_ZN17HeapRegionManager9expand_byEjP13WorkerThreads
   fun:_ZN15G1CollectedHeap6expandEmP13WorkerThreadsPd
   fun:_ZN15G1CollectedHeap10initializeEv
   fun:_Z13universe_initv
}

{
   <insert_a_suppression_name_here>
   Memcheck:Leak
   match-leak-kinds: reachable
   fun:malloc
   fun:_ZN2os6mallocEm8MEMFLAGSRK15NativeCallStack
   fun:_Z12AllocateHeapm8MEMFLAGSN17AllocFailStrategy13AllocFailEnumE
   fun:_ZN9MemRegion12create_arrayEm8MEMFLAGS
   fun:_ZN16G1ConcurrentMarkC1EP15G1CollectedHeapP21G1RegionToSpaceMapper
   fun:_ZN15G1CollectedHeap10initializeEv
   fun:_Z13universe_initv
   fun:_Z12init_globalsv
   fun:_ZN7Threads9create_vmEP14JavaVMInitArgsPb
   fun:JNI_CreateJavaVM
   fun:JavaMain
   fun:ThreadJavaMain
}

{
   <insert_a_suppression_name_here>
   Memcheck:Leak
   match-leak-kinds: reachable
   fun:malloc
   fun:_ZN2os6mallocEm8MEMFLAGSRK15NativeCallStack
   fun:_Z12AllocateHeapm8MEMFLAGSN17AllocFailStrategy13AllocFailEnumE
   fun:_ZN9Metaspace17global_initializeEv
   fun:_Z13universe_initv
   fun:_Z12init_globalsv
   fun:_ZN7Threads9create_vmEP14JavaVMInitArgsPb
   fun:JNI_CreateJavaVM
   fun:JavaMain
   fun:ThreadJavaMain
   fun:start_thread
   fun:clone
}

{
   <insert_a_suppression_name_here>
   Memcheck:Leak
   match-leak-kinds: reachable
   fun:malloc
   fun:_ZN2os6mallocEm8MEMFLAGSRK15NativeCallStack
   fun:_Z12AllocateHeapm8MEMFLAGSN17AllocFailStrategy13AllocFailEnumE
   fun:_ZN9metaspace14MetaspaceArena13salvage_chunkEPNS_9MetachunkE
   fun:_ZN9metaspace14MetaspaceArena14allocate_innerEm
   fun:_ZN9metaspace14MetaspaceArena8allocateEm
   fun:_ZN9Metaspace8allocateEP15ClassLoaderDatamN12MetaspaceObj4TypeEP10JavaThread
   fun:_ZN12ConstantPool8allocateEP15ClassLoaderDataiP10JavaThread
   fun:_ZN15ClassFileParser12parse_streamEPK15ClassFileStreamP10JavaThread.part.0
   fun:_ZN15ClassFileParserC1EP15ClassFileStreamP6SymbolP15ClassLoaderDataPK13ClassLoadInfoNS_9PublicityEP10JavaThread
   fun:_ZN12KlassFactory18create_from_streamEP15ClassFileStreamP6SymbolP15ClassLoaderDataRK13ClassLoadInfoP10JavaThread
   fun:_ZN16SystemDictionary25resolve_class_from_streamEP15ClassFileStreamP6Symbol6HandleRK13ClassLoadInfoP10JavaThread
}

{
   <insert_a_suppression_name_here>
   Memcheck:Leak
   match-leak-kinds: reachable
   fun:malloc
   fun:_ZN2os6mallocEm8MEMFLAGSRK15NativeCallStack
   fun:_Z12AllocateHeapm8MEMFLAGSN17AllocFailStrategy13AllocFailEnumE
   fun:_ZN9metaspace14MetaspaceArena13salvage_chunkEPNS_9MetachunkE
   fun:_ZN9metaspace14MetaspaceArena14allocate_innerEm
   fun:_ZN9metaspace14MetaspaceArena8allocateEm
   fun:_ZN9Metaspace8allocateEP15ClassLoaderDatamN12MetaspaceObj4TypeEP10JavaThread
   fun:_ZN13InstanceKlass23allocate_instance_klassERK15ClassFileParserP10JavaThread
   fun:_ZN15ClassFileParser21create_instance_klassEbRK17ClassInstanceInfoP10JavaThread
   fun:_ZN12KlassFactory18create_from_streamEP15ClassFileStreamP6SymbolP15ClassLoaderDataRK13ClassLoadInfoP10JavaThread
   fun:_ZN16SystemDictionary25resolve_class_from_streamEP15ClassFileStreamP6Symbol6HandleRK13ClassLoadInfoP10JavaThread
   fun:_ZL23jvm_define_class_commonPKcP8_jobjectPKaiS2_S0_P10JavaThread
}

{
   <insert_a_suppression_name_here>
   Memcheck:Leak
   match-leak-kinds: reachable
   fun:malloc
   fun:_ZN2os6mallocEm8MEMFLAGSRK15NativeCallStack
   fun:_Z12AllocateHeapm8MEMFLAGSN17AllocFailStrategy13AllocFailEnumE
   fun:_ZN9metaspace14MetaspaceArena13salvage_chunkEPNS_9MetachunkE
   fun:_ZN9metaspace14MetaspaceArena14allocate_innerEm
   fun:_ZN9metaspace14MetaspaceArena8allocateEm
   fun:_ZN9Metaspace8allocateEP15ClassLoaderDatamN12MetaspaceObj4TypeEP10JavaThread
   fun:_ZN17ConstantPoolCache8allocateEP15ClassLoaderDataRK13GrowableArrayIiES5_S2_I17ResolvedIndyEntryEP10JavaThread
   fun:_ZN8Rewriter24make_constant_pool_cacheEP10JavaThread
   fun:_ZN8RewriterC1EP13InstanceKlassRK18constantPoolHandleP5ArrayIP6MethodEP10JavaThread
   fun:_ZN8Rewriter7rewriteEP13InstanceKlassP10JavaThread
   fun:_ZN13InstanceKlass15link_class_implEP10JavaThread
}

{
   <insert_a_suppression_name_here>
   Memcheck:Leak
   match-leak-kinds: reachable
   fun:malloc
   fun:_ZN2os6mallocEm8MEMFLAGSRK15NativeCallStack
   fun:_Z12AllocateHeapm8MEMFLAGSN17AllocFailStrategy13AllocFailEnumE
   fun:_ZN9metaspace15ChunkHeaderPool10initializeEv
   fun:_ZN9Metaspace17global_initializeEv
   fun:_Z13universe_initv
   fun:_Z12init_globalsv
   fun:_ZN7Threads9create_vmEP14JavaVMInitArgsPb
   fun:JNI_CreateJavaVM
   fun:JavaMain
   fun:ThreadJavaMain
   fun:start_thread
}

{
   <insert_a_suppression_name_here>
   Memcheck:Leak
   match-leak-kinds: reachable
   fun:malloc
   fun:_ZN2os6mallocEm8MEMFLAGSRK15NativeCallStack
   fun:_Z12AllocateHeapm8MEMFLAGSN17AllocFailStrategy13AllocFailEnumE
   fun:_ZN9metaspace15ChunkHeaderPool17allocate_new_slabEv
   fun:_ZN9metaspace13RootChunkArea23alloc_root_chunk_headerEPNS_16VirtualSpaceNodeE
   fun:_ZN9metaspace16VirtualSpaceNode19allocate_root_chunkEv
   fun:_ZN9metaspace12ChunkManager16get_chunk_lockedEaam
   fun:_ZN9metaspace12ChunkManager9get_chunkEaam
   fun:_ZN9Metaspace17global_initializeEv
   fun:_Z13universe_initv
   fun:_Z12init_globalsv
   fun:_ZN7Threads9create_vmEP14JavaVMInitArgsPb
}

{
   <insert_a_suppression_name_here>
   Memcheck:Leak
   match-leak-kinds: reachable
   fun:malloc
   fun:_ZN2os6mallocEm8MEMFLAGSRK15NativeCallStack
   fun:_Z12AllocateHeapm8MEMFLAGSN17AllocFailStrategy13AllocFailEnumE
   fun:_ZN9metaspace16MetaspaceContext30initialize_class_space_contextE13ReservedSpace
   fun:_ZN15MetaspaceShared12map_archivesEP11FileMapInfoS1_b
   fun:_ZN15MetaspaceShared41initialize_runtime_shared_and_meta_spacesEv
   fun:_ZN9Metaspace17global_initializeEv
   fun:_Z13universe_initv
   fun:_Z12init_globalsv
   fun:_ZN7Threads9create_vmEP14JavaVMInitArgsPb
   fun:JNI_CreateJavaVM
   fun:JavaMain
}

{
   <insert_a_suppression_name_here>
   Memcheck:Leak
   match-leak-kinds: reachable
   fun:malloc
   fun:_ZN2os6mallocEm8MEMFLAGSRK15NativeCallStack
   fun:_Z12AllocateHeapm8MEMFLAGSN17AllocFailStrategy13AllocFailEnumE
   fun:_ZN9metaspace16MetaspaceContext33initialize_nonclass_space_contextEv
   fun:_ZN9Metaspace17global_initializeEv
   fun:_Z13universe_initv
   fun:_Z12init_globalsv
   fun:_ZN7Threads9create_vmEP14JavaVMInitArgsPb
   fun:JNI_CreateJavaVM
   fun:JavaMain
   fun:ThreadJavaMain
   fun:start_thread
}

{
   <insert_a_suppression_name_here>
   Memcheck:Leak
   match-leak-kinds: reachable
   fun:malloc
   fun:_ZN2os6mallocEm8MEMFLAGSRK15NativeCallStack
   fun:_Z12AllocateHeapm8MEMFLAGSN17AllocFailStrategy13AllocFailEnumE
   fun:_ZN9metaspace16RootChunkAreaLUTC1EPKP12MetaWordImplm
   fun:_ZN9metaspace16VirtualSpaceNode11create_nodeE13ReservedSpacePNS_13CommitLimiterEPNS_15AbstractCounterImEES6_
   fun:_ZN9metaspace16VirtualSpaceListC1EPKc13ReservedSpacePNS_13CommitLimiterE
   fun:_ZN9metaspace16MetaspaceContext30initialize_class_space_contextE13ReservedSpace
   fun:_ZN15MetaspaceShared12map_archivesEP11FileMapInfoS1_b
   fun:_ZN15MetaspaceShared41initialize_runtime_shared_and_meta_spacesEv
   fun:_ZN9Metaspace17global_initializeEv
   fun:_Z13universe_initv
   fun:_Z12init_globalsv
}

{
   <insert_a_suppression_name_here>
   Memcheck:Leak
   match-leak-kinds: reachable
   fun:malloc
   fun:_ZN2os6mallocEm8MEMFLAGSRK15NativeCallStack
   fun:_Z12AllocateHeapm8MEMFLAGSN17AllocFailStrategy13AllocFailEnumE
   fun:_ZN9metaspace16RootChunkAreaLUTC1EPKP12MetaWordImplm
   fun:_ZN9metaspace16VirtualSpaceNode11create_nodeEmPNS_13CommitLimiterEPNS_15AbstractCounterImEES5_
   fun:_ZN9metaspace16VirtualSpaceList19allocate_root_chunkEv
   fun:_ZN9metaspace12ChunkManager16get_chunk_lockedEaam
   fun:_ZN9metaspace12ChunkManager9get_chunkEaam
   fun:_ZN9metaspace14MetaspaceArena14allocate_innerEm
   fun:_ZN9metaspace14MetaspaceArena8allocateEm
   fun:_ZN9Metaspace8allocateEP15ClassLoaderDatamN12MetaspaceObj4TypeEP10JavaThread
   fun:_ZN5Klass21pack_secondary_supersEP15ClassLoaderDataP13GrowableArrayIPS_ES5_RmP10JavaThread
}

{
   <insert_a_suppression_name_here>
   Memcheck:Leak
   match-leak-kinds: reachable
   fun:malloc
   fun:_ZN2os6mallocEm8MEMFLAGSRK15NativeCallStack
   fun:_Z12AllocateHeapm8MEMFLAGSN17AllocFailStrategy13AllocFailEnumE
   fun:_ZN9metaspace16VirtualSpaceNode11create_nodeE13ReservedSpacePNS_13CommitLimiterEPNS_15AbstractCounterImEES6_
   fun:_ZN9metaspace16VirtualSpaceListC1EPKc13ReservedSpacePNS_13CommitLimiterE
   fun:_ZN9metaspace16MetaspaceContext30initialize_class_space_contextE13ReservedSpace
   fun:_ZN15MetaspaceShared12map_archivesEP11FileMapInfoS1_b
   fun:_ZN15MetaspaceShared41initialize_runtime_shared_and_meta_spacesEv
   fun:_ZN9Metaspace17global_initializeEv
   fun:_Z13universe_initv
   fun:_Z12init_globalsv
   fun:_ZN7Threads9create_vmEP14JavaVMInitArgsPb
}

{
   <insert_a_suppression_name_here>
   Memcheck:Leak
   match-leak-kinds: reachable
   fun:malloc
   fun:_ZN2os6mallocEm8MEMFLAGSRK15NativeCallStack
   fun:_Z12AllocateHeapm8MEMFLAGSN17AllocFailStrategy13AllocFailEnumE
   fun:_ZN9metaspace16VirtualSpaceNode11create_nodeEmPNS_13CommitLimiterEPNS_15AbstractCounterImEES5_
   fun:_ZN9metaspace16VirtualSpaceList19allocate_root_chunkEv
   fun:_ZN9metaspace12ChunkManager16get_chunk_lockedEaam
   fun:_ZN9metaspace12ChunkManager9get_chunkEaam
   fun:_ZN9metaspace14MetaspaceArena14allocate_innerEm
   fun:_ZN9metaspace14MetaspaceArena8allocateEm
   fun:_ZN9Metaspace8allocateEP15ClassLoaderDatamN12MetaspaceObj4TypeEP10JavaThread
   fun:_ZN5Klass21pack_secondary_supersEP15ClassLoaderDataP13GrowableArrayIPS_ES5_RmP10JavaThread
   fun:_ZN5Klass17initialize_supersEPS_P5ArrayIP13InstanceKlassEP10JavaThread
}

{
   <insert_a_suppression_name_here>
   Memcheck:Leak
   match-leak-kinds: reachable
   fun:malloc
   fun:_ZN2os6mallocEm8MEMFLAGSRK15NativeCallStack
   fun:_Z12AllocateHeapm8MEMFLAGSRK15NativeCallStackN17AllocFailStrategy13AllocFailEnumE
   fun:_ZN10OopStorage19expand_active_arrayEv
   fun:_ZN10OopStorage13try_add_blockEv
   fun:_ZN10OopStorage8allocateEv
   fun:_ZN10WeakHandleC1EP10OopStorage6Handle
   fun:_ZN11StringTable9do_internE6HandlePKtimP10JavaThread
   fun:_ZN11StringTable6internEP7oopDescP10JavaThread
   fun:JVM_InternString
   obj:*
   obj:*
}

{
   <insert_a_suppression_name_here>
   Memcheck:Leak
   match-leak-kinds: reachable
   fun:malloc
   fun:_ZN2os6mallocEm8MEMFLAGSRK15NativeCallStack
   fun:_Z12AllocateHeapm8MEMFLAGSRK15NativeCallStackN17AllocFailStrategy13AllocFailEnumE
   fun:_ZN10OopStorageC1EPKc8MEMFLAGS
   fun:_ZN10OopStorage6createEPKc8MEMFLAGS
   fun:_ZN13OopStorageSet11create_weakEPKc8MEMFLAGS
   fun:_Z16jni_handles_initv
   fun:_Z13init_globals2v
   fun:_ZN7Threads9create_vmEP14JavaVMInitArgsPb
   fun:JNI_CreateJavaVM
   fun:JavaMain
   fun:ThreadJavaMain
}

{
   <insert_a_suppression_name_here>
   Memcheck:Leak
   match-leak-kinds: reachable
   fun:malloc
   fun:_ZN2os6mallocEm8MEMFLAGSRK15NativeCallStack
   fun:_Z12AllocateHeapm8MEMFLAGSRK15NativeCallStackN17AllocFailStrategy13AllocFailEnumE
   fun:_ZN10OopStorageC1EPKc8MEMFLAGS
   fun:_ZN10OopStorage6createEPKc8MEMFLAGS
   fun:_ZN13OopStorageSet11create_weakEPKc8MEMFLAGS
   fun:_Z24universe_oopstorage_initv
   fun:_Z15vm_init_globalsv
   fun:_ZN7Threads9create_vmEP14JavaVMInitArgsPb
   fun:JNI_CreateJavaVM
   fun:JavaMain
   fun:ThreadJavaMain
}

{
   <insert_a_suppression_name_here>
   Memcheck:Leak
   match-leak-kinds: reachable
   fun:malloc
   fun:_ZN2os6mallocEm8MEMFLAGSRK15NativeCallStack
   fun:_Z12AllocateHeapm8MEMFLAGSRK15NativeCallStackN17AllocFailStrategy13AllocFailEnumE
   fun:_ZN10OopStorageC1EPKc8MEMFLAGS
   fun:_ZN10OopStorage6createEPKc8MEMFLAGS
   fun:_ZN13OopStorageSet11create_weakEPKc8MEMFLAGS
   fun:_ZN11JvmtiExport22initialize_oop_storageEv
   fun:_Z12init_globalsv
   fun:_ZN7Threads9create_vmEP14JavaVMInitArgsPb
   fun:JNI_CreateJavaVM
   fun:JavaMain
   fun:ThreadJavaMain
}

{
   <insert_a_suppression_name_here>
   Memcheck:Leak
   match-leak-kinds: reachable
   fun:malloc
   fun:_ZN2os6mallocEm8MEMFLAGSRK15NativeCallStack
   fun:_Z12AllocateHeapm8MEMFLAGSRK15NativeCallStackN17AllocFailStrategy13AllocFailEnumE
   fun:_ZN10OopStorageC1EPKc8MEMFLAGS
   fun:_ZN10OopStorage6createEPKc8MEMFLAGS
   fun:_ZN13OopStorageSet11create_weakEPKc8MEMFLAGS
   fun:_ZN11StringDedup5Table18initialize_storageEv
   fun:_ZN11StringDedup10initializeEv
   fun:_ZN13CollectedHeap15post_initializeEv
   fun:_ZN15G1CollectedHeap15post_initializeEv
   fun:_Z18universe_post_initv
   fun:_Z13init_globals2v
}

{
   <insert_a_suppression_name_here>
   Memcheck:Leak
   match-leak-kinds: reachable
   fun:malloc
   fun:_ZN2os6mallocEm8MEMFLAGSRK15NativeCallStack
   fun:_Z12AllocateHeapm8MEMFLAGSRK15NativeCallStackN17AllocFailStrategy13AllocFailEnumE
   fun:_ZN10OopStorageC1EPKc8MEMFLAGS
   fun:_ZN10OopStorage6createEPKc8MEMFLAGS
   fun:_ZN13OopStorageSet11create_weakEPKc8MEMFLAGS
   fun:_ZN11StringDedup9Processor18initialize_storageEv
   fun:_ZN11StringDedup10initializeEv
   fun:_ZN13CollectedHeap15post_initializeEv
   fun:_ZN15G1CollectedHeap15post_initializeEv
   fun:_Z18universe_post_initv
   fun:_Z13init_globals2v
}

{
   <insert_a_suppression_name_here>
   Memcheck:Leak
   match-leak-kinds: reachable
   fun:malloc
   fun:_ZN2os6mallocEm8MEMFLAGSRK15NativeCallStack
   fun:_Z12AllocateHeapm8MEMFLAGSRK15NativeCallStackN17AllocFailStrategy13AllocFailEnumE
   fun:_ZN10OopStorageC1EPKc8MEMFLAGS
   fun:_ZN10OopStorage6createEPKc8MEMFLAGS
   fun:_ZN13OopStorageSet11create_weakEPKc8MEMFLAGS
   fun:_ZN13ObjectMonitor10InitializeEv
   fun:_ZN7Threads9create_vmEP14JavaVMInitArgsPb
   fun:JNI_CreateJavaVM
   fun:JavaMain
   fun:ThreadJavaMain
   fun:start_thread
}

{
   <insert_a_suppression_name_here>
   Memcheck:Leak
   match-leak-kinds: reachable
   fun:malloc
   fun:_ZN2os6mallocEm8MEMFLAGSRK15NativeCallStack
   fun:_Z12AllocateHeapm8MEMFLAGSRK15NativeCallStackN17AllocFailStrategy13AllocFailEnumE
   fun:_ZN10OopStorageC1EPKc8MEMFLAGS
   fun:_ZN10OopStorage6createEPKc8MEMFLAGS
   fun:_ZN13OopStorageSet11create_weakEPKc8MEMFLAGS
   fun:_ZN13ObjectSampler18create_oop_storageEv
   fun:_ZN11JfrRecorder14on_create_vm_1Ev
   fun:_ZN3Jfr14on_create_vm_1Ev
   fun:_ZN7Threads9create_vmEP14JavaVMInitArgsPb
   fun:JNI_CreateJavaVM
   fun:JavaMain
}

{
   <insert_a_suppression_name_here>
   Memcheck:Leak
   match-leak-kinds: reachable
   fun:malloc
   fun:_ZN2os6mallocEm8MEMFLAGSRK15NativeCallStack
   fun:_Z12AllocateHeapm8MEMFLAGSRK15NativeCallStackN17AllocFailStrategy13AllocFailEnumE
   fun:_ZN10OopStorageC1EPKc8MEMFLAGS
   fun:_ZN10OopStorage6createEPKc8MEMFLAGS
   fun:_ZN13OopStorageSet11create_weakEPKc8MEMFLAGS
   fun:_ZN19ResolvedMethodTable12create_tableEv
   fun:_Z13universe_initv
   fun:_Z12init_globalsv
   fun:_ZN7Threads9create_vmEP14JavaVMInitArgsPb
   fun:JNI_CreateJavaVM
   fun:JavaMain
}

{
   <insert_a_suppression_name_here>
   Memcheck:Leak
   match-leak-kinds: reachable
   fun:malloc
   fun:_ZN2os6mallocEm8MEMFLAGSRK15NativeCallStack
   fun:_Z12AllocateHeapm8MEMFLAGSRK15NativeCallStackN17AllocFailStrategy13AllocFailEnumE
   fun:_ZN10OopStorageC1EPKc8MEMFLAGS
   fun:_ZN10OopStorage6createEPKc8MEMFLAGS
   fun:_ZN13OopStorageSet13create_strongEPKc8MEMFLAGS
   fun:_Z16jni_handles_initv
   fun:_Z13init_globals2v
   fun:_ZN7Threads9create_vmEP14JavaVMInitArgsPb
   fun:JNI_CreateJavaVM
   fun:JavaMain
   fun:ThreadJavaMain
}

{
   <insert_a_suppression_name_here>
   Memcheck:Leak
   match-leak-kinds: reachable
   fun:malloc
   fun:_ZN2os6mallocEm8MEMFLAGSRK15NativeCallStack
   fun:_Z12AllocateHeapm8MEMFLAGSRK15NativeCallStackN17AllocFailStrategy13AllocFailEnumE
   fun:_ZN10OopStorageC1EPKc8MEMFLAGS
   fun:_ZN10OopStorage6createEPKc8MEMFLAGS
   fun:_ZN13OopStorageSet13create_strongEPKc8MEMFLAGS
   fun:_Z24universe_oopstorage_initv
   fun:_Z15vm_init_globalsv
   fun:_ZN7Threads9create_vmEP14JavaVMInitArgsPb
   fun:JNI_CreateJavaVM
   fun:JavaMain
   fun:ThreadJavaMain
}

{
   <insert_a_suppression_name_here>
   Memcheck:Leak
   match-leak-kinds: reachable
   fun:malloc
   fun:_ZN2os6mallocEm8MEMFLAGSRK15NativeCallStack
   fun:_Z12AllocateHeapm8MEMFLAGSRK15NativeCallStackN17AllocFailStrategy13AllocFailEnumE
   fun:_ZN10OopStorageC1EPKc8MEMFLAGS
   fun:_ZN10OopStorage6createEPKc8MEMFLAGS
   fun:_ZN13OopStorageSet13create_strongEPKc8MEMFLAGS
   fun:_ZN11JvmtiExport22initialize_oop_storageEv
   fun:_Z12init_globalsv
   fun:_ZN7Threads9create_vmEP14JavaVMInitArgsPb
   fun:JNI_CreateJavaVM
   fun:JavaMain
   fun:ThreadJavaMain
}

{
   <insert_a_suppression_name_here>
   Memcheck:Leak
   match-leak-kinds: reachable
   fun:malloc
   fun:_ZN2os6mallocEm8MEMFLAGSRK15NativeCallStack
   fun:_Z12AllocateHeapm8MEMFLAGSRK15NativeCallStackN17AllocFailStrategy13AllocFailEnumE
   fun:_ZN10OopStorageC1EPKc8MEMFLAGS
   fun:_ZN10OopStorage6createEPKc8MEMFLAGS
   fun:_ZN13OopStorageSet13create_strongEPKc8MEMFLAGS
   fun:_ZN13ThreadService4initEv
   fun:_Z15management_initv
   fun:_Z12init_globalsv
   fun:_ZN7Threads9create_vmEP14JavaVMInitArgsPb
   fun:JNI_CreateJavaVM
   fun:JavaMain
}

{
   <insert_a_suppression_name_here>
   Memcheck:Leak
   match-leak-kinds: reachable
   fun:malloc
   fun:_ZN2os6mallocEm8MEMFLAGSRK15NativeCallStack
   fun:_Z12AllocateHeapm8MEMFLAGSRK15NativeCallStackN17AllocFailStrategy13AllocFailEnumE
   fun:_ZN10OopStorageC1EPKc8MEMFLAGS
   fun:_ZN10OopStorage6createEPKc8MEMFLAGS
   fun:_ZN13OopStorageSet13create_strongEPKc8MEMFLAGS
   fun:_ZN7Threads9create_vmEP14JavaVMInitArgsPb
   fun:JNI_CreateJavaVM
   fun:JavaMain
   fun:ThreadJavaMain
   fun:start_thread
   fun:clone
}

{
   <insert_a_suppression_name_here>
   Memcheck:Leak
   match-leak-kinds: reachable
   fun:malloc
   fun:_ZN2os6mallocEm8MEMFLAGSRK15NativeCallStack
   fun:_Z12AllocateHeapm8MEMFLAGSRK15NativeCallStackN17AllocFailStrategy13AllocFailEnumE
   fun:_ZN11JfrCHeapObjnwEmRKSt9nothrow_t
   fun:_ZL20register_static_type9JfrTypeIdbP13JfrSerializer
   fun:_ZN13JfrSerializer19register_serializerE9JfrTypeIdbPS_
   fun:_ZN11G1NewTracer10initializeEv
   fun:_ZN15G1CollectedHeapC1Ev
   fun:_ZN11G1Arguments11create_heapEv
   fun:_Z13universe_initv
   fun:_Z12init_globalsv
   fun:_ZN7Threads9create_vmEP14JavaVMInitArgsPb
}

{
   <insert_a_suppression_name_here>
   Memcheck:Leak
   match-leak-kinds: reachable
   fun:malloc
   fun:_ZN2os6mallocEm8MEMFLAGSRK15NativeCallStack
   fun:_Z12AllocateHeapm8MEMFLAGSRK15NativeCallStackN17AllocFailStrategy13AllocFailEnumE
   fun:_ZN11JfrCHeapObjnwEmRKSt9nothrow_t
   fun:_ZL20register_static_type9JfrTypeIdbP13JfrSerializer
   fun:_ZN13JfrSerializer19register_serializerE9JfrTypeIdbPS_
   fun:_ZN15G1CollectedHeapC1Ev
   fun:_ZN11G1Arguments11create_heapEv
   fun:_Z13universe_initv
   fun:_Z12init_globalsv
   fun:_ZN7Threads9create_vmEP14JavaVMInitArgsPb
   fun:JNI_CreateJavaVM
}

{
   <insert_a_suppression_name_here>
   Memcheck:Leak
   match-leak-kinds: reachable
   fun:malloc
   fun:_ZN2os6mallocEm8MEMFLAGSRK15NativeCallStack
   fun:_Z14ReallocateHeapPcm8MEMFLAGSN17AllocFailStrategy13AllocFailEnumE
   fun:_ZN14GrowableBitMapI11CHeapBitMapE6resizeEmb
   fun:_ZN15G1CollectedHeap10initializeEv
   fun:_Z13universe_initv
   fun:_Z12init_globalsv
   fun:_ZN7Threads9create_vmEP14JavaVMInitArgsPb
   fun:JNI_CreateJavaVM
   fun:JavaMain
   fun:ThreadJavaMain
   fun:start_thread
}

{
   <insert_a_suppression_name_here>
   Memcheck:Leak
   match-leak-kinds: reachable
   fun:malloc
   fun:_ZN2os6mallocEm8MEMFLAGSRK15NativeCallStack
   fun:_Z14ReallocateHeapPcm8MEMFLAGSN17AllocFailStrategy13AllocFailEnumE
   fun:_ZN14GrowableBitMapI11CHeapBitMapE6resizeEmb
   fun:_ZN20G1CommittedRegionMap10initializeEj
   fun:_ZN15G1CollectedHeap10initializeEv
   fun:_Z13universe_initv
   fun:_Z12init_globalsv
   fun:_ZN7Threads9create_vmEP14JavaVMInitArgsPb
   fun:JNI_CreateJavaVM
   fun:JavaMain
   fun:ThreadJavaMain
}

{
   <insert_a_suppression_name_here>
   Memcheck:Leak
   match-leak-kinds: reachable
   fun:malloc
   fun:_ZN2os6mallocEm8MEMFLAGSRK15NativeCallStack
   fun:_Z14ReallocateHeapPcm8MEMFLAGSN17AllocFailStrategy13AllocFailEnumE
   fun:_ZN14GrowableBitMapI11CHeapBitMapE6resizeEmb
   fun:_ZN21G1RegionToSpaceMapperC1E13ReservedSpacemmmm8MEMFLAGS
   fun:_ZN21G1RegionToSpaceMapper13create_mapperE13ReservedSpacemmmm8MEMFLAGS
   fun:_ZN15G1CollectedHeap10initializeEv
   fun:_Z13universe_initv
   fun:_Z12init_globalsv
   fun:_ZN7Threads9create_vmEP14JavaVMInitArgsPb
   fun:JNI_CreateJavaVM
   fun:JavaMain
}

{
   <insert_a_suppression_name_here>
   Memcheck:Leak
   match-leak-kinds: reachable
   fun:malloc
   fun:_ZN2os6mallocEm8MEMFLAGSRK15NativeCallStack
   fun:_Z14ReallocateHeapPcm8MEMFLAGSN17AllocFailStrategy13AllocFailEnumE
   fun:_ZN14GrowableBitMapI11CHeapBitMapE6resizeEmb
   fun:_ZN21G1RegionToSpaceMapperC1E13ReservedSpacemmmm8MEMFLAGS
   fun:_ZN21G1RegionToSpaceMapper13create_mapperE13ReservedSpacemmmm8MEMFLAGS
   fun:_ZN15G1CollectedHeap24create_aux_memory_mapperEPKcmm
   fun:_ZN15G1CollectedHeap10initializeEv
   fun:_Z13universe_initv
   fun:_Z12init_globalsv
   fun:_ZN7Threads9create_vmEP14JavaVMInitArgsPb
   fun:JNI_CreateJavaVM
}

{
   <insert_a_suppression_name_here>
   Memcheck:Leak
   match-leak-kinds: reachable
   fun:malloc
   fun:_ZN2os6mallocEm8MEMFLAGSRK15NativeCallStack
   fun:_Z14ReallocateHeapPcm8MEMFLAGSN17AllocFailStrategy13AllocFailEnumE
   fun:_ZN14GrowableBitMapI11CHeapBitMapE6resizeEmb
   fun:_ZN23G1PageBasedVirtualSpaceC1E13ReservedSpacemm
   fun:_ZN21G1RegionToSpaceMapperC1E13ReservedSpacemmmm8MEMFLAGS
   fun:_ZN21G1RegionToSpaceMapper13create_mapperE13ReservedSpacemmmm8MEMFLAGS
   fun:_ZN15G1CollectedHeap10initializeEv
   fun:_Z13universe_initv
   fun:_Z12init_globalsv
   fun:_ZN7Threads9create_vmEP14JavaVMInitArgsPb
   fun:JNI_CreateJavaVM
}

{
   <insert_a_suppression_name_here>
   Memcheck:Leak
   match-leak-kinds: reachable
   fun:malloc
   fun:_ZN2os6mallocEm8MEMFLAGSRK15NativeCallStack
   fun:_Z14ReallocateHeapPcm8MEMFLAGSN17AllocFailStrategy13AllocFailEnumE
   fun:_ZN14GrowableBitMapI11CHeapBitMapE6resizeEmb
   fun:_ZN23G1PageBasedVirtualSpaceC1E13ReservedSpacemm
   fun:_ZN21G1RegionToSpaceMapperC1E13ReservedSpacemmmm8MEMFLAGS
   fun:_ZN21G1RegionToSpaceMapper13create_mapperE13ReservedSpacemmmm8MEMFLAGS
   fun:_ZN15G1CollectedHeap24create_aux_memory_mapperEPKcmm
   fun:_ZN15G1CollectedHeap10initializeEv
   fun:_Z13universe_initv
   fun:_Z12init_globalsv
   fun:_ZN7Threads9create_vmEP14JavaVMInitArgsPb
}

{
   <insert_a_suppression_name_here>
   Memcheck:Leak
   match-leak-kinds: reachable
   fun:malloc
   fun:_ZN2os6mallocEm8MEMFLAGSRK15NativeCallStack
   fun:_Z14ReallocateHeapPcm8MEMFLAGSN17AllocFailStrategy13AllocFailEnumE
   fun:_ZN14GrowableBitMapI11CHeapBitMapE6resizeEmb
   fun:_ZN9metaspace10CommitMaskC1EPKP12MetaWordImplm
   fun:_ZN9metaspace16VirtualSpaceNode11create_nodeE13ReservedSpacePNS_13CommitLimiterEPNS_15AbstractCounterImEES6_
   fun:_ZN9metaspace16VirtualSpaceListC1EPKc13ReservedSpacePNS_13CommitLimiterE
   fun:_ZN9metaspace16MetaspaceContext30initialize_class_space_contextE13ReservedSpace
   fun:_ZN15MetaspaceShared12map_archivesEP11FileMapInfoS1_b
   fun:_ZN15MetaspaceShared41initialize_runtime_shared_and_meta_spacesEv
   fun:_ZN9Metaspace17global_initializeEv
   fun:_Z13universe_initv
}

{
   <insert_a_suppression_name_here>
   Memcheck:Leak
   match-leak-kinds: reachable
   fun:malloc
   fun:_ZN2os6mallocEm8MEMFLAGSRK15NativeCallStack
   fun:_Z14ReallocateHeapPcm8MEMFLAGSN17AllocFailStrategy13AllocFailEnumE
   fun:_ZN14GrowableBitMapI11CHeapBitMapE6resizeEmb
   fun:_ZN9metaspace10CommitMaskC1EPKP12MetaWordImplm
   fun:_ZN9metaspace16VirtualSpaceNode11create_nodeEmPNS_13CommitLimiterEPNS_15AbstractCounterImEES5_
   fun:_ZN9metaspace16VirtualSpaceList19allocate_root_chunkEv
   fun:_ZN9metaspace12ChunkManager16get_chunk_lockedEaam
   fun:_ZN9metaspace12ChunkManager9get_chunkEaam
   fun:_ZN9metaspace14MetaspaceArena14allocate_innerEm
   fun:_ZN9metaspace14MetaspaceArena8allocateEm
   fun:_ZN9Metaspace8allocateEP15ClassLoaderDatamN12MetaspaceObj4TypeEP10JavaThread
}

{
   <insert_a_suppression_name_here>
   Memcheck:Leak
   match-leak-kinds: reachable
   fun:malloc
   fun:_ZN2os6mallocEm8MEMFLAGSRK15NativeCallStack
   fun:_Z14ReallocateHeapPcm8MEMFLAGSN17AllocFailStrategy13AllocFailEnumE
   fun:_ZN15G1SurvRateGroup19stop_adding_regionsEv
   fun:_ZN15G1SurvRateGroup5resetEv
   fun:_ZN15G1SurvRateGroupC1Ev
   fun:_ZN8G1PolicyC1EP10STWGCTimer
   fun:_ZN15G1CollectedHeapC1Ev
   fun:_ZN11G1Arguments11create_heapEv
   fun:_Z13universe_initv
   fun:_Z12init_globalsv
   fun:_ZN7Threads9create_vmEP14JavaVMInitArgsPb
}

{
   <insert_a_suppression_name_here>
   Memcheck:Leak
   match-leak-kinds: reachable
   fun:malloc
   fun:_ZN2os6mallocEm8MEMFLAGSRK15NativeCallStack
   fun:_ZN2os23read_image_release_fileEv
   fun:_ZN19ReadReleaseFileTask4taskEv
   fun:_ZN12PeriodicTask14real_time_tickEi
   fun:_ZN13WatcherThread3runEv
   fun:_ZN6Thread8call_runEv
   fun:_ZL19thread_native_entryP6Thread
   fun:start_thread
   fun:clone
}

{
   <insert_a_suppression_name_here>
   Memcheck:Leak
   match-leak-kinds: reachable
   fun:malloc
   fun:_ZN2os6mallocEm8MEMFLAGSRK15NativeCallStack
   fun:_ZN5ArenaC1E8MEMFLAGS
   fun:_ZN10CodeBuffer21create_patch_overflowEv
   fun:_ZN5Label12add_patch_atEP10CodeBufferiPKci
   fun:_ZN9Assembler3jmpER5Labelb
   fun:_ZN13TemplateTable12condy_helperER5Label
   fun:_ZN13TemplateTable3ldcENS_7LdcTypeE
   fun:_ZN8Template8generateEP25InterpreterMacroAssembler
   fun:_ZN28TemplateInterpreterGenerator21generate_and_dispatchEP8Template8TosState
   fun:_ZN28TemplateInterpreterGenerator21set_vtos_entry_pointsEP8TemplateRPhS3_S3_S3_S3_S3_S3_S3_S3_
   fun:_ZN28TemplateInterpreterGenerator16set_entry_pointsEN9Bytecodes4CodeE
}

{
   <insert_a_suppression_name_here>
   Memcheck:Leak
   match-leak-kinds: reachable
   fun:malloc
   fun:_ZN2os6mallocEm8MEMFLAGSRK15NativeCallStack
   fun:_ZN5ArenaC1E8MEMFLAGS
   fun:_ZN10CodeBuffer21create_patch_overflowEv
   fun:_ZN5Label12add_patch_atEP10CodeBufferiPKci
   fun:_ZN9Assembler3jmpER5Labelb
   fun:_ZN24VM_Version_StubGenerator21generate_get_cpu_infoEv
   fun:_ZN10VM_Version10initializeEv
   fun:_Z15VM_Version_initv
   fun:_Z12init_globalsv
   fun:_ZN7Threads9create_vmEP14JavaVMInitArgsPb
   fun:JNI_CreateJavaVM
}

{
   <insert_a_suppression_name_here>
   Memcheck:Leak
   match-leak-kinds: reachable
   fun:malloc
   fun:_ZN2os6mallocEm8MEMFLAGSRK15NativeCallStack
   fun:_ZN5ArenaC1E8MEMFLAGS
   fun:_ZN6ThreadC1Ev
   fun:_ZN10JavaThreadC1EPFvPS_S0_Em
   fun:JVM_StartThread
   obj:*
   obj:*
   obj:*
   obj:*
   obj:*
   obj:*
}

{
   <insert_a_suppression_name_here>
   Memcheck:Leak
   match-leak-kinds: reachable
   fun:malloc
   fun:_ZN2os6mallocEm8MEMFLAGSRK15NativeCallStack
   fun:_ZN5ArenaC1E8MEMFLAGS
   fun:_ZN6ThreadC1Ev
   fun:_ZN10JavaThreadC1EPFvPS_S0_Em
   fun:_ZN13ServiceThread10initializeEv
   fun:_ZN7Threads9create_vmEP14JavaVMInitArgsPb
   fun:JNI_CreateJavaVM
   fun:JavaMain
   fun:ThreadJavaMain
   fun:start_thread
   fun:clone
}

{
   <insert_a_suppression_name_here>
   Memcheck:Leak
   match-leak-kinds: reachable
   fun:malloc
   fun:_ZN2os6mallocEm8MEMFLAGSRK15NativeCallStack
   fun:_ZN5ArenaC1E8MEMFLAGS
   fun:_ZN6ThreadC1Ev
   fun:_ZN10JavaThreadC1EPFvPS_S0_Em
   fun:_ZN18NotificationThread10initializeEv
   fun:_ZN10Management10initializeEP10JavaThread
   fun:_ZN7Threads9create_vmEP14JavaVMInitArgsPb
   fun:JNI_CreateJavaVM
   fun:JavaMain
   fun:ThreadJavaMain
   fun:start_thread
}

{
   <insert_a_suppression_name_here>
   Memcheck:Leak
   match-leak-kinds: reachable
   fun:malloc
   fun:_ZN2os6mallocEm8MEMFLAGSRK15NativeCallStack
   fun:_ZN5ArenaC1E8MEMFLAGS
   fun:_ZN6ThreadC1Ev
   fun:_ZN10JavaThreadC1EPFvPS_S0_Em
   fun:_ZN22MonitorDeflationThread10initializeEv
   fun:_ZN7Threads9create_vmEP14JavaVMInitArgsPb
   fun:JNI_CreateJavaVM
   fun:JavaMain
   fun:ThreadJavaMain
   fun:start_thread
   fun:clone
}

{
   <insert_a_suppression_name_here>
   Memcheck:Leak
   match-leak-kinds: reachable
   fun:malloc
   fun:_ZN2os6mallocEm8MEMFLAGSRK15NativeCallStack
   fun:_ZN5ArenaC1E8MEMFLAGS
   fun:_ZN6ThreadC1Ev
   fun:_ZN10JavaThreadC1EPFvPS_S0_Em
   fun:_ZN2os29initialize_jdk_signal_supportEP10JavaThread
   fun:_ZN7Threads9create_vmEP14JavaVMInitArgsPb
   fun:JNI_CreateJavaVM
   fun:JavaMain
   fun:ThreadJavaMain
   fun:start_thread
   fun:clone
}

{
   <insert_a_suppression_name_here>
   Memcheck:Leak
   match-leak-kinds: reachable
   fun:malloc
   fun:_ZN2os6mallocEm8MEMFLAGSRK15NativeCallStack
   fun:_ZN5ArenaC1E8MEMFLAGS
   fun:_ZN6ThreadC1Ev
   fun:_ZN10JavaThreadC1Ev
   fun:_ZN7Threads9create_vmEP14JavaVMInitArgsPb
   fun:JNI_CreateJavaVM
   fun:JavaMain
   fun:ThreadJavaMain
   fun:start_thread
   fun:clone
}

{
   <insert_a_suppression_name_here>
   Memcheck:Leak
   match-leak-kinds: reachable
   fun:malloc
   fun:_ZN2os6mallocEm8MEMFLAGSRK15NativeCallStack
   fun:_ZN5ArenaC1E8MEMFLAGS
   fun:_ZN6ThreadC1Ev
   fun:_ZN11NamedThreadC1Ev
   fun:_ZN13WorkerThreads13create_workerEj
   fun:_ZN13WorkerThreads18initialize_workersEv
   fun:_ZN16G1ConcurrentMarkC1EP15G1CollectedHeapP21G1RegionToSpaceMapper
   fun:_ZN15G1CollectedHeap10initializeEv
   fun:_Z13universe_initv
   fun:_Z12init_globalsv
   fun:_ZN7Threads9create_vmEP14JavaVMInitArgsPb
}

{
   <insert_a_suppression_name_here>
   Memcheck:Leak
   match-leak-kinds: reachable
   fun:malloc
   fun:_ZN2os6mallocEm8MEMFLAGSRK15NativeCallStack
   fun:_ZN5ArenaC1E8MEMFLAGS
   fun:_ZN6ThreadC1Ev
   fun:_ZN11NamedThreadC1Ev
   fun:_ZN13WorkerThreads13create_workerEj
   fun:_ZN13WorkerThreads18set_active_workersEj
   fun:_ZN16G1YoungCollector7collectEv
   fun:_ZN15G1CollectedHeap39do_collection_pause_at_safepoint_helperEv
   fun:_ZN15G1CollectedHeap32do_collection_pause_at_safepointEv
   fun:_ZN25VM_G1CollectForAllocation4doitEv
   fun:_ZN12VM_Operation8evaluateEv
}

{
   <insert_a_suppression_name_here>
   Memcheck:Leak
   match-leak-kinds: reachable
   fun:malloc
   fun:_ZN2os6mallocEm8MEMFLAGSRK15NativeCallStack
   fun:_ZN5ArenaC1E8MEMFLAGS
   fun:_ZN6ThreadC1Ev
   fun:_ZN11NamedThreadC1Ev
   fun:_ZN18ConcurrentGCThreadC1Ev
   fun:_ZN15G1ServiceThreadC1Ev
   fun:_ZN15G1CollectedHeap10initializeEv
   fun:_Z13universe_initv
   fun:_Z12init_globalsv
   fun:_ZN7Threads9create_vmEP14JavaVMInitArgsPb
   fun:JNI_CreateJavaVM
}

{
   <insert_a_suppression_name_here>
   Memcheck:Leak
   match-leak-kinds: reachable
   fun:malloc
   fun:_ZN2os6mallocEm8MEMFLAGSRK15NativeCallStack
   fun:_ZN5ArenaC1E8MEMFLAGS
   fun:_ZN6ThreadC1Ev
   fun:_ZN11NamedThreadC1Ev
   fun:_ZN18ConcurrentGCThreadC1Ev
   fun:_ZN22G1ConcurrentMarkThreadC1EP16G1ConcurrentMark
   fun:_ZN16G1ConcurrentMarkC1EP15G1CollectedHeapP21G1RegionToSpaceMapper
   fun:_ZN15G1CollectedHeap10initializeEv
   fun:_Z13universe_initv
   fun:_Z12init_globalsv
   fun:_ZN7Threads9create_vmEP14JavaVMInitArgsPb
}

{
   <insert_a_suppression_name_here>
   Memcheck:Leak
   match-leak-kinds: reachable
   fun:malloc
   fun:_ZN2os6mallocEm8MEMFLAGSRK15NativeCallStack
   fun:_ZN5ArenaC1E8MEMFLAGS
   fun:_ZN6ThreadC1Ev
   fun:_ZN11NamedThreadC1Ev
   fun:_ZN18ConcurrentGCThreadC1Ev
   fun:_ZN24G1ConcurrentRefineThreadC1EP18G1ConcurrentRefinej
   fun:_ZN24G1ConcurrentRefineThread6createEP18G1ConcurrentRefinej
   fun:_ZN31G1ConcurrentRefineThreadControl10initializeEP18G1ConcurrentRefinej
   fun:_ZN18G1ConcurrentRefine6createEP8G1PolicyPi
   fun:_ZN15G1CollectedHeap10initializeEv
   fun:_Z13universe_initv
}

{
   <insert_a_suppression_name_here>
   Memcheck:Leak
   match-leak-kinds: reachable
   fun:malloc
   fun:_ZN2os6mallocEm8MEMFLAGSRK15NativeCallStack
   fun:_ZN5ArenaC1E8MEMFLAGSm
   fun:_ZN11SymbolTable12create_tableEv
   fun:_Z13universe_initv
   fun:_Z12init_globalsv
   fun:_ZN7Threads9create_vmEP14JavaVMInitArgsPb
   fun:JNI_CreateJavaVM
   fun:JavaMain
   fun:ThreadJavaMain
   fun:start_thread
   fun:clone
}

{
   <insert_a_suppression_name_here>
   Memcheck:Leak
   match-leak-kinds: reachable
   fun:malloc
   fun:_ZN2os6mallocEm8MEMFLAGSRK15NativeCallStack
   fun:_ZN5ArenaC1E8MEMFLAGSm
   fun:_ZN6ThreadC1Ev
   fun:_ZN10JavaThreadC1EPFvPS_S0_Em
   fun:JVM_StartThread
   obj:*
   obj:*
   obj:*
   obj:*
   obj:*
   obj:*
}

{
   <insert_a_suppression_name_here>
   Memcheck:Leak
   match-leak-kinds: reachable
   fun:malloc
   fun:_ZN2os6mallocEm8MEMFLAGSRK15NativeCallStack
   fun:_ZN5ArenaC1E8MEMFLAGSm
   fun:_ZN6ThreadC1Ev
   fun:_ZN10JavaThreadC1EPFvPS_S0_Em
   fun:_ZN13ServiceThread10initializeEv
   fun:_ZN7Threads9create_vmEP14JavaVMInitArgsPb
   fun:JNI_CreateJavaVM
   fun:JavaMain
   fun:ThreadJavaMain
   fun:start_thread
   fun:clone
}

{
   <insert_a_suppression_name_here>
   Memcheck:Leak
   match-leak-kinds: reachable
   fun:malloc
   fun:_ZN2os6mallocEm8MEMFLAGSRK15NativeCallStack
   fun:_ZN5ArenaC1E8MEMFLAGSm
   fun:_ZN6ThreadC1Ev
   fun:_ZN10JavaThreadC1EPFvPS_S0_Em
   fun:_ZN18NotificationThread10initializeEv
   fun:_ZN10Management10initializeEP10JavaThread
   fun:_ZN7Threads9create_vmEP14JavaVMInitArgsPb
   fun:JNI_CreateJavaVM
   fun:JavaMain
   fun:ThreadJavaMain
   fun:start_thread
}

{
   <insert_a_suppression_name_here>
   Memcheck:Leak
   match-leak-kinds: reachable
   fun:malloc
   fun:_ZN2os6mallocEm8MEMFLAGSRK15NativeCallStack
   fun:_ZN5ArenaC1E8MEMFLAGSm
   fun:_ZN6ThreadC1Ev
   fun:_ZN10JavaThreadC1EPFvPS_S0_Em
   fun:_ZN22MonitorDeflationThread10initializeEv
   fun:_ZN7Threads9create_vmEP14JavaVMInitArgsPb
   fun:JNI_CreateJavaVM
   fun:JavaMain
   fun:ThreadJavaMain
   fun:start_thread
   fun:clone
}

{
   <insert_a_suppression_name_here>
   Memcheck:Leak
   match-leak-kinds: reachable
   fun:malloc
   fun:_ZN2os6mallocEm8MEMFLAGSRK15NativeCallStack
   fun:_ZN5ArenaC1E8MEMFLAGSm
   fun:_ZN6ThreadC1Ev
   fun:_ZN10JavaThreadC1EPFvPS_S0_Em
   fun:_ZN2os29initialize_jdk_signal_supportEP10JavaThread
   fun:_ZN7Threads9create_vmEP14JavaVMInitArgsPb
   fun:JNI_CreateJavaVM
   fun:JavaMain
   fun:ThreadJavaMain
   fun:start_thread
   fun:clone
}

{
   <insert_a_suppression_name_here>
   Memcheck:Leak
   match-leak-kinds: reachable
   fun:malloc
   fun:_ZN2os6mallocEm8MEMFLAGSRK15NativeCallStack
   fun:_ZN5ArenaC1E8MEMFLAGSm
   fun:_ZN6ThreadC1Ev
   fun:_ZN10JavaThreadC1Ev
   fun:_ZN7Threads9create_vmEP14JavaVMInitArgsPb
   fun:JNI_CreateJavaVM
   fun:JavaMain
   fun:ThreadJavaMain
   fun:start_thread
   fun:clone
}

{
   <insert_a_suppression_name_here>
   Memcheck:Leak
   match-leak-kinds: reachable
   fun:malloc
   fun:_ZN2os6mallocEm8MEMFLAGSRK15NativeCallStack
   fun:_ZN5ArenaC1E8MEMFLAGSm
   fun:_ZN6ThreadC1Ev
   fun:_ZN11NamedThreadC1Ev
   fun:_ZN13WorkerThreads13create_workerEj
   fun:_ZN13WorkerThreads18initialize_workersEv
   fun:_ZN15G1CollectedHeap10initializeEv
   fun:_Z13universe_initv
   fun:_Z12init_globalsv
   fun:_ZN7Threads9create_vmEP14JavaVMInitArgsPb
   fun:JNI_CreateJavaVM
}

{
   <insert_a_suppression_name_here>
   Memcheck:Leak
   match-leak-kinds: reachable
   fun:malloc
   fun:_ZN2os6mallocEm8MEMFLAGSRK15NativeCallStack
   fun:_ZN5ArenaC1E8MEMFLAGSm
   fun:_ZN6ThreadC1Ev
   fun:_ZN11NamedThreadC1Ev
   fun:_ZN13WorkerThreads13create_workerEj
   fun:_ZN13WorkerThreads18initialize_workersEv
   fun:_ZN16G1ConcurrentMarkC1EP15G1CollectedHeapP21G1RegionToSpaceMapper
   fun:_ZN15G1CollectedHeap10initializeEv
   fun:_Z13universe_initv
   fun:_Z12init_globalsv
   fun:_ZN7Threads9create_vmEP14JavaVMInitArgsPb
}

{
   <insert_a_suppression_name_here>
   Memcheck:Leak
   match-leak-kinds: reachable
   fun:malloc
   fun:_ZN2os6mallocEm8MEMFLAGSRK15NativeCallStack
   fun:_ZN5ArenaC1E8MEMFLAGSm
   fun:_ZN6ThreadC1Ev
   fun:_ZN11NamedThreadC1Ev
   fun:_ZN13WorkerThreads13create_workerEj
   fun:_ZN13WorkerThreads18set_active_workersEj
   fun:_ZN16G1YoungCollector7collectEv
   fun:_ZN15G1CollectedHeap39do_collection_pause_at_safepoint_helperEv
   fun:_ZN15G1CollectedHeap32do_collection_pause_at_safepointEv
   fun:_ZN25VM_G1CollectForAllocation4doitEv
   fun:_ZN12VM_Operation8evaluateEv
}

{
   <insert_a_suppression_name_here>
   Memcheck:Leak
   match-leak-kinds: reachable
   fun:malloc
   fun:_ZN2os6mallocEm8MEMFLAGSRK15NativeCallStack
   fun:_ZN5ArenaC1E8MEMFLAGSm
   fun:_ZN6ThreadC1Ev
   fun:_ZN11NamedThreadC1Ev
   fun:_ZN18ConcurrentGCThreadC1Ev
   fun:_ZN15G1ServiceThreadC1Ev
   fun:_ZN15G1CollectedHeap10initializeEv
   fun:_Z13universe_initv
   fun:_Z12init_globalsv
   fun:_ZN7Threads9create_vmEP14JavaVMInitArgsPb
   fun:JNI_CreateJavaVM
}

{
   <insert_a_suppression_name_here>
   Memcheck:Leak
   match-leak-kinds: reachable
   fun:malloc
   fun:_ZN2os6mallocEm8MEMFLAGSRK15NativeCallStack
   fun:_ZN5ArenaC1E8MEMFLAGSm
   fun:_ZN6ThreadC1Ev
   fun:_ZN11NamedThreadC1Ev
   fun:_ZN18ConcurrentGCThreadC1Ev
   fun:_ZN22G1ConcurrentMarkThreadC1EP16G1ConcurrentMark
   fun:_ZN16G1ConcurrentMarkC1EP15G1CollectedHeapP21G1RegionToSpaceMapper
   fun:_ZN15G1CollectedHeap10initializeEv
   fun:_Z13universe_initv
   fun:_Z12init_globalsv
   fun:_ZN7Threads9create_vmEP14JavaVMInitArgsPb
}

{
   <insert_a_suppression_name_here>
   Memcheck:Leak
   match-leak-kinds: reachable
   fun:malloc
   fun:_ZN2os6mallocEm8MEMFLAGSRK15NativeCallStack
   fun:_ZN5ArenaC1E8MEMFLAGSm
   fun:_ZN6ThreadC1Ev
   fun:_ZN11NamedThreadC1Ev
   fun:_ZN18ConcurrentGCThreadC1Ev
   fun:_ZN24G1ConcurrentRefineThreadC1EP18G1ConcurrentRefinej
   fun:_ZN24G1ConcurrentRefineThread6createEP18G1ConcurrentRefinej
   fun:_ZN31G1ConcurrentRefineThreadControl10initializeEP18G1ConcurrentRefinej
   fun:_ZN18G1ConcurrentRefine6createEP8G1PolicyPi
   fun:_ZN15G1CollectedHeap10initializeEv
   fun:_Z13universe_initv
}

{
   <insert_a_suppression_name_here>
   Memcheck:Leak
   match-leak-kinds: reachable
   fun:malloc
   fun:_ZN2os6mallocEm8MEMFLAGSRK15NativeCallStack
   fun:_ZN5ArenaC1E8MEMFLAGSm
   fun:_ZN6ThreadC1Ev
   fun:_ZN11NamedThreadC1Ev
   fun:_ZN8VMThread6createEv
   fun:_ZN7Threads9create_vmEP14JavaVMInitArgsPb
   fun:JNI_CreateJavaVM
   fun:JavaMain
   fun:ThreadJavaMain
   fun:start_thread
   fun:clone
}

{
   <insert_a_suppression_name_here>
   Memcheck:Leak
   match-leak-kinds: reachable
   fun:malloc
   fun:_ZN2os6mallocEm8MEMFLAGSRK15NativeCallStack
   fun:_ZN6AnyObjnwEm8MEMFLAGS
   fun:_ZN11ModuleEntry22restore_growable_arrayEP5ArrayIPS_E
   fun:_ZN16ModuleEntryTable21load_archived_entriesEP15ClassLoaderDataP5ArrayIP11ModuleEntryE
   fun:_ZN21ClassLoaderDataShared39restore_java_system_loader_from_archiveEP15ClassLoaderData
   fun:JVM_DefineArchivedModules
   obj:*
   obj:*
   obj:*
   obj:*
   fun:_ZN9JavaCalls11call_helperEP9JavaValueRK12methodHandleP17JavaCallArgumentsP10JavaThread
}

{
   <insert_a_suppression_name_here>
   Memcheck:Leak
   match-leak-kinds: reachable
   fun:malloc
   fun:_ZN2os6mallocEm8MEMFLAGSRK15NativeCallStack
   fun:_ZN6AnyObjnwEm8MEMFLAGS
   fun:_ZN11ModuleEntry22restore_growable_arrayEP5ArrayIPS_E
   fun:_ZN16ModuleEntryTable21load_archived_entriesEP15ClassLoaderDataP5ArrayIP11ModuleEntryE
   fun:_ZN21ClassLoaderDataShared41restore_java_platform_loader_from_archiveEP15ClassLoaderData
   fun:_ZN7Modules23define_archived_modulesE6HandleS0_P10JavaThread
   fun:JVM_DefineArchivedModules
   obj:*
   obj:*
   obj:*
   obj:*
}

{
   <insert_a_suppression_name_here>
   Memcheck:Leak
   match-leak-kinds: reachable
   fun:malloc
   fun:_ZN2os6mallocEm8MEMFLAGSRK15NativeCallStack
   fun:_ZN6AnyObjnwEm8MEMFLAGS
   fun:_ZN11ModuleEntry22restore_growable_arrayEP5ArrayIPS_E
   fun:_ZN16ModuleEntryTable21load_archived_entriesEP15ClassLoaderDataP5ArrayIP11ModuleEntryE
   fun:_ZN21ClassLoaderDataShared9serializeEP16SerializeClosure
   fun:_ZN15MetaspaceShared9serializeEP16SerializeClosure
   fun:_ZN15MetaspaceShared24initialize_shared_spacesEv
   fun:_Z13universe_initv
   fun:_Z12init_globalsv
   fun:_ZN7Threads9create_vmEP14JavaVMInitArgsPb
   fun:JNI_CreateJavaVM
}

{
   <insert_a_suppression_name_here>
   Memcheck:Leak
   match-leak-kinds: reachable
   fun:malloc
   fun:_ZN2os6mallocEm8MEMFLAGSRK15NativeCallStack
   fun:_ZN6AnyObjnwEm8MEMFLAGS
   fun:_ZN11ModuleEntry22restore_growable_arrayEP5ArrayIPS_E
   fun:_ZN17PackageEntryTable21load_archived_entriesEP5ArrayIP12PackageEntryE
   fun:_ZN21ClassLoaderDataShared39restore_java_system_loader_from_archiveEP15ClassLoaderData
   fun:JVM_DefineArchivedModules
   obj:*
   obj:*
   obj:*
   obj:*
   fun:_ZN9JavaCalls11call_helperEP9JavaValueRK12methodHandleP17JavaCallArgumentsP10JavaThread
}

{
   <insert_a_suppression_name_here>
   Memcheck:Leak
   match-leak-kinds: reachable
   fun:malloc
   fun:_ZN2os6mallocEm8MEMFLAGSRK15NativeCallStack
   fun:_ZN6AnyObjnwEm8MEMFLAGS
   fun:_ZN11ModuleEntry22restore_growable_arrayEP5ArrayIPS_E
   fun:_ZN17PackageEntryTable21load_archived_entriesEP5ArrayIP12PackageEntryE
   fun:_ZN21ClassLoaderDataShared41restore_java_platform_loader_from_archiveEP15ClassLoaderData
   fun:_ZN7Modules23define_archived_modulesE6HandleS0_P10JavaThread
   fun:JVM_DefineArchivedModules
   obj:*
   obj:*
   obj:*
   obj:*
}

{
   <insert_a_suppression_name_here>
   Memcheck:Leak
   match-leak-kinds: reachable
   fun:malloc
   fun:_ZN2os6mallocEm8MEMFLAGSRK15NativeCallStack
   fun:_ZN6AnyObjnwEm8MEMFLAGS
   fun:_ZN11ModuleEntry22restore_growable_arrayEP5ArrayIPS_E
   fun:_ZN17PackageEntryTable21load_archived_entriesEP5ArrayIP12PackageEntryE
   fun:_ZN21ClassLoaderDataShared9serializeEP16SerializeClosure
   fun:_ZN15MetaspaceShared9serializeEP16SerializeClosure
   fun:_ZN15MetaspaceShared24initialize_shared_spacesEv
   fun:_Z13universe_initv
   fun:_Z12init_globalsv
   fun:_ZN7Threads9create_vmEP14JavaVMInitArgsPb
   fun:JNI_CreateJavaVM
}

{
   <insert_a_suppression_name_here>
   Memcheck:Leak
   match-leak-kinds: reachable
   fun:malloc
   fun:_ZN2os6mallocEm8MEMFLAGSRK15NativeCallStack
   fun:_ZN6AnyObjnwEm8MEMFLAGS
   fun:_ZN14TimePartitionsC1Ev
   fun:_ZN15G1CollectedHeapC1Ev
   fun:_ZN11G1Arguments11create_heapEv
   fun:_Z13universe_initv
   fun:_Z12init_globalsv
   fun:_ZN7Threads9create_vmEP14JavaVMInitArgsPb
   fun:JNI_CreateJavaVM
   fun:JavaMain
   fun:ThreadJavaMain
}

{
   <insert_a_suppression_name_here>
   Memcheck:Leak
   match-leak-kinds: reachable
   fun:malloc
   fun:_ZN2os6mallocEm8MEMFLAGSRK15NativeCallStack
   fun:_ZN6AnyObjnwEm8MEMFLAGS
   fun:_ZN14TimePartitionsC1Ev
   fun:_ZN16G1ConcurrentMarkC1EP15G1CollectedHeapP21G1RegionToSpaceMapper
   fun:_ZN15G1CollectedHeap10initializeEv
   fun:_Z13universe_initv
   fun:_Z12init_globalsv
   fun:_ZN7Threads9create_vmEP14JavaVMInitArgsPb
   fun:JNI_CreateJavaVM
   fun:JavaMain
   fun:ThreadJavaMain
}

{
   <insert_a_suppression_name_here>
   Memcheck:Leak
   match-leak-kinds: reachable
   fun:malloc
   fun:_ZN2os6mallocEm8MEMFLAGSRK15NativeCallStack
   fun:_ZN6AnyObjnwEm8MEMFLAGS
   fun:_ZN15ClassLoaderData22add_to_deallocate_listEP8Metadata
   fun:_ZN12KlassFactory18create_from_streamEP15ClassFileStreamP6SymbolP15ClassLoaderDataRK13ClassLoadInfoP10JavaThread
   fun:_ZN11ClassLoader10load_classEP6SymbolbP10JavaThread
   fun:_ZN16SystemDictionary24load_instance_class_implEP6Symbol6HandleP10JavaThread
   fun:_ZN16SystemDictionary19load_instance_classEP6Symbol6HandleP10JavaThread
   fun:_ZN16SystemDictionary30resolve_instance_class_or_nullEP6Symbol6HandleS2_P10JavaThread
   fun:_ZN16SystemDictionary21resolve_super_or_failEP6SymbolS1_6HandleS2_bP10JavaThread
   fun:_ZN15ClassFileParser26post_process_parsed_streamEPK15ClassFileStreamP12ConstantPoolP10JavaThread
   fun:_ZN12KlassFactory18create_from_streamEP15ClassFileStreamP6SymbolP15ClassLoaderDataRK13ClassLoadInfoP10JavaThread
}

{
   <insert_a_suppression_name_here>
   Memcheck:Leak
   match-leak-kinds: reachable
   fun:malloc
   fun:_ZN2os6mallocEm8MEMFLAGSRK15NativeCallStack
   fun:_ZN6AnyObjnwEm8MEMFLAGS
   fun:_ZN15ClassLoaderData22add_to_deallocate_listEP8Metadata
   fun:_ZN14DefaultMethods24generate_default_methodsEP13InstanceKlassPK13GrowableArrayIP6MethodEP10JavaThread
   fun:_ZN15ClassFileParser19fill_instance_klassEP13InstanceKlassbRK17ClassInstanceInfoP10JavaThread
   fun:_ZN15ClassFileParser21create_instance_klassEbRK17ClassInstanceInfoP10JavaThread
   fun:_ZN12KlassFactory18create_from_streamEP15ClassFileStreamP6SymbolP15ClassLoaderDataRK13ClassLoadInfoP10JavaThread
   fun:_ZN16SystemDictionary25resolve_class_from_streamEP15ClassFileStreamP6Symbol6HandleRK13ClassLoadInfoP10JavaThread
   fun:_ZL23jvm_define_class_commonPKcP8_jobjectPKaiS2_S0_P10JavaThread
   fun:JVM_DefineClassWithSource
   fun:Java_java_lang_ClassLoader_defineClass1
}

{
   <insert_a_suppression_name_here>
   Memcheck:Leak
   match-leak-kinds: reachable
   fun:malloc
   fun:_ZN2os6mallocEm8MEMFLAGSRK15NativeCallStack
   fun:_ZN6AnyObjnwEm8MEMFLAGS
   fun:_ZN16ModuleEntryTable21load_archived_entriesEP15ClassLoaderDataP5ArrayIP11ModuleEntryE
   fun:_ZN21ClassLoaderDataShared39restore_java_system_loader_from_archiveEP15ClassLoaderData
   fun:JVM_DefineArchivedModules
   obj:*
   obj:*
   obj:*
   obj:*
   fun:_ZN9JavaCalls11call_helperEP9JavaValueRK12methodHandleP17JavaCallArgumentsP10JavaThread
   fun:_ZN9JavaCalls11call_staticEP9JavaValueP5KlassP6SymbolS5_P17JavaCallArgumentsP10JavaThread
}

{
   <insert_a_suppression_name_here>
   Memcheck:Leak
   match-leak-kinds: reachable
   fun:malloc
   fun:_ZN2os6mallocEm8MEMFLAGSRK15NativeCallStack
   fun:_ZN6AnyObjnwEm8MEMFLAGS
   fun:_ZN16ModuleEntryTable21load_archived_entriesEP15ClassLoaderDataP5ArrayIP11ModuleEntryE
   fun:_ZN21ClassLoaderDataShared41restore_java_platform_loader_from_archiveEP15ClassLoaderData
   fun:_ZN7Modules23define_archived_modulesE6HandleS0_P10JavaThread
   fun:JVM_DefineArchivedModules
   obj:*
   obj:*
   obj:*
   obj:*
   fun:_ZN9JavaCalls11call_helperEP9JavaValueRK12methodHandleP17JavaCallArgumentsP10JavaThread
}

{
   <insert_a_suppression_name_here>
   Memcheck:Leak
   match-leak-kinds: reachable
   fun:malloc
   fun:_ZN2os6mallocEm8MEMFLAGSRK15NativeCallStack
   fun:_ZN6AnyObjnwEm8MEMFLAGS
   fun:_ZN16ModuleEntryTable21load_archived_entriesEP15ClassLoaderDataP5ArrayIP11ModuleEntryE
   fun:_ZN21ClassLoaderDataShared9serializeEP16SerializeClosure
   fun:_ZN15MetaspaceShared9serializeEP16SerializeClosure
   fun:_ZN15MetaspaceShared24initialize_shared_spacesEv
   fun:_Z13universe_initv
   fun:_Z12init_globalsv
   fun:_ZN7Threads9create_vmEP14JavaVMInitArgsPb
   fun:JNI_CreateJavaVM
   fun:JavaMain
}

{
   <insert_a_suppression_name_here>
   Memcheck:Leak
   match-leak-kinds: reachable
   fun:malloc
   fun:_ZN2os6mallocEm8MEMFLAGSRK15NativeCallStack
   fun:_ZN6AnyObjnwEm8MEMFLAGS
   fun:_ZN16PlaceholderTable10initializeEv
   fun:_ZN16SystemDictionary10initializeEP10JavaThread
   fun:_ZN8Universe7genesisEP10JavaThread
   fun:_Z14universe2_initv
   fun:_Z13init_globals2v
   fun:_ZN7Threads9create_vmEP14JavaVMInitArgsPb
   fun:JNI_CreateJavaVM
   fun:JavaMain
   fun:ThreadJavaMain
}

{
   <insert_a_suppression_name_here>
   Memcheck:Leak
   match-leak-kinds: reachable
   fun:malloc
   fun:_ZN2os6mallocEm8MEMFLAGSRK15NativeCallStack
   fun:_ZN6AnyObjnwEm8MEMFLAGS
   fun:_ZN16SystemDictionary10initializeEP10JavaThread
   fun:_ZN8Universe7genesisEP10JavaThread
   fun:_Z14universe2_initv
   fun:_Z13init_globals2v
   fun:_ZN7Threads9create_vmEP14JavaVMInitArgsPb
   fun:JNI_CreateJavaVM
   fun:JavaMain
   fun:ThreadJavaMain
   fun:start_thread
}

{
   <insert_a_suppression_name_here>
   Memcheck:Leak
   match-leak-kinds: reachable
   fun:malloc
   fun:_ZN2os6mallocEm8MEMFLAGSRK15NativeCallStack
   fun:_ZN6AnyObjnwEm8MEMFLAGS
   fun:_ZN16SystemDictionary23find_method_handle_typeEP6SymbolP5KlassP10JavaThread
   fun:_ZN12ConstantPool24resolve_constant_at_implERK18constantPoolHandleiiPbP10JavaThread
   fun:_ZN12ConstantPool32copy_bootstrap_arguments_at_implERK18constantPoolHandleiii14objArrayHandleib6HandleP10JavaThread
   fun:_ZN13BootstrapInfo12resolve_argsEP10JavaThread
   fun:_ZN13BootstrapInfo11resolve_bsmEP10JavaThread
   fun:_ZN16SystemDictionary23invoke_bootstrap_methodER13BootstrapInfoP10JavaThread
   fun:_ZN12LinkResolver20resolve_dynamic_callER8CallInfoR13BootstrapInfoP10JavaThread
   fun:_ZN12LinkResolver21resolve_invokedynamicER8CallInfoRK18constantPoolHandleiP10JavaThread
   fun:_ZN18InterpreterRuntime21resolve_invokedynamicEP10JavaThread
}

{
   <insert_a_suppression_name_here>
   Memcheck:Leak
   match-leak-kinds: reachable
   fun:malloc
   fun:_ZN2os6mallocEm8MEMFLAGSRK15NativeCallStack
   fun:_ZN6AnyObjnwEm8MEMFLAGS
   fun:_ZN16SystemDictionary23find_method_handle_typeEP6SymbolP5KlassP10JavaThread
   fun:_ZN13BootstrapInfo11resolve_bsmEP10JavaThread
   fun:_ZN16SystemDictionary23invoke_bootstrap_methodER13BootstrapInfoP10JavaThread
   fun:_ZN12LinkResolver20resolve_dynamic_callER8CallInfoR13BootstrapInfoP10JavaThread
   fun:_ZN12LinkResolver21resolve_invokedynamicER8CallInfoRK18constantPoolHandleiP10JavaThread
   fun:_ZN18InterpreterRuntime21resolve_invokedynamicEP10JavaThread
   fun:_ZN18InterpreterRuntime18resolve_from_cacheEP10JavaThreadN9Bytecodes4CodeE
   obj:*
   obj:*
}

{
   <insert_a_suppression_name_here>
   Memcheck:Leak
   match-leak-kinds: reachable
   fun:malloc
   fun:_ZN2os6mallocEm8MEMFLAGSRK15NativeCallStack
   fun:_ZN6AnyObjnwEm8MEMFLAGS
   fun:_ZN16SystemDictionary23find_method_handle_typeEP6SymbolP5KlassP10JavaThread
   fun:_ZN13MethodHandles23resolve_MemberName_typeE6HandleP5KlassP10JavaThread
   fun:_ZN16SystemDictionary27link_method_handle_constantEP5KlassiS1_P6SymbolS3_P10JavaThread
   fun:_ZN12ConstantPool24resolve_constant_at_implERK18constantPoolHandleiiPbP10JavaThread
   fun:_ZN12ConstantPool32copy_bootstrap_arguments_at_implERK18constantPoolHandleiii14objArrayHandleib6HandleP10JavaThread
   fun:_ZN13BootstrapInfo12resolve_argsEP10JavaThread
   fun:_ZN13BootstrapInfo11resolve_bsmEP10JavaThread
   fun:_ZN16SystemDictionary23invoke_bootstrap_methodER13BootstrapInfoP10JavaThread
   fun:_ZN12LinkResolver20resolve_dynamic_callER8CallInfoR13BootstrapInfoP10JavaThread
}

{
   <insert_a_suppression_name_here>
   Memcheck:Leak
   match-leak-kinds: reachable
   fun:malloc
   fun:_ZN2os6mallocEm8MEMFLAGSRK15NativeCallStack
   fun:_ZN6AnyObjnwEm8MEMFLAGS
   fun:_ZN16SystemDictionary23find_method_handle_typeEP6SymbolP5KlassP10JavaThread
   fun:_ZN13MethodHandles23resolve_MemberName_typeE6HandleP5KlassP10JavaThread
   fun:_ZN16SystemDictionary27link_method_handle_constantEP5KlassiS1_P6SymbolS3_P10JavaThread
   fun:_ZN12ConstantPool24resolve_constant_at_implERK18constantPoolHandleiiPbP10JavaThread
   fun:_ZN13BootstrapInfo11resolve_bsmEP10JavaThread
   fun:_ZN16SystemDictionary23invoke_bootstrap_methodER13BootstrapInfoP10JavaThread
   fun:_ZN12LinkResolver20resolve_dynamic_callER8CallInfoR13BootstrapInfoP10JavaThread
   fun:_ZN12LinkResolver21resolve_invokedynamicER8CallInfoRK18constantPoolHandleiP10JavaThread
   fun:_ZN18InterpreterRuntime21resolve_invokedynamicEP10JavaThread
}

{
   <insert_a_suppression_name_here>
   Memcheck:Leak
   match-leak-kinds: reachable
   fun:malloc
   fun:_ZN2os6mallocEm8MEMFLAGSRK15NativeCallStack
   fun:_ZN6AnyObjnwEm8MEMFLAGS
   fun:_ZN16SystemDictionary23find_method_handle_typeEP6SymbolP5KlassP10JavaThread
   fun:_ZN16SystemDictionary26find_method_handle_invokerEP5KlassP6SymbolS3_S1_P6HandleP10JavaThread
   fun:_ZN12LinkResolver25lookup_polymorphic_methodERK8LinkInfoP6HandleP10JavaThread
   fun:_ZN12LinkResolver19resolve_handle_callER8CallInfoRK8LinkInfoP10JavaThread
   fun:_ZN12LinkResolver20resolve_invokehandleER8CallInfoRK18constantPoolHandleiP10JavaThread
   fun:_ZN18InterpreterRuntime20resolve_invokehandleEP10JavaThread
   fun:_ZN18InterpreterRuntime18resolve_from_cacheEP10JavaThreadN9Bytecodes4CodeE
   obj:*
   obj:*
}

{
   <insert_a_suppression_name_here>
   Memcheck:Leak
   match-leak-kinds: reachable
   fun:malloc
   fun:_ZN2os6mallocEm8MEMFLAGSRK15NativeCallStack
   fun:_ZN6AnyObjnwEm8MEMFLAGS
   fun:_ZN16SystemDictionary28find_method_handle_intrinsicE13vmIntrinsicIDP6SymbolP10JavaThread
   fun:_ZN12LinkResolver25lookup_polymorphic_methodERK8LinkInfoP6HandleP10JavaThread
   fun:_ZN12LinkResolver14resolve_methodERK8LinkInfoN9Bytecodes4CodeEP10JavaThread
   fun:_ZN12LinkResolver19resolve_static_callER8CallInfoRK8LinkInfobP10JavaThread
   fun:_ZN12LinkResolver14resolve_invokeER8CallInfo6HandleRK18constantPoolHandleiN9Bytecodes4CodeEP10JavaThread
   fun:_ZN18InterpreterRuntime14resolve_invokeEP10JavaThreadN9Bytecodes4CodeE
   fun:_ZN18InterpreterRuntime18resolve_from_cacheEP10JavaThreadN9Bytecodes4CodeE
   obj:*
   obj:*
}

{
   <insert_a_suppression_name_here>
   Memcheck:Leak
   match-leak-kinds: reachable
   fun:malloc
   fun:_ZN2os6mallocEm8MEMFLAGSRK15NativeCallStack
   fun:_ZN6AnyObjnwEm8MEMFLAGS
   fun:_ZN16SystemDictionary28find_method_handle_intrinsicE13vmIntrinsicIDP6SymbolP10JavaThread
   fun:_ZN12LinkResolver25lookup_polymorphic_methodERK8LinkInfoP6HandleP10JavaThread
   fun:_ZN12LinkResolver14resolve_methodERK8LinkInfoN9Bytecodes4CodeEP10JavaThread
   fun:_ZN12LinkResolver19resolve_static_callER8CallInfoRK8LinkInfobP10JavaThread
   fun:_ZN13MethodHandles18resolve_MemberNameE6HandleP5KlassibP10JavaThread
   fun:MHN_resolve_Mem
   obj:*
   obj:*
   obj:*
}

{
   <insert_a_suppression_name_here>
   Memcheck:Leak
   match-leak-kinds: reachable
   fun:malloc
   fun:_ZN2os6mallocEm8MEMFLAGSRK15NativeCallStack
   fun:_ZN6AnyObjnwEm8MEMFLAGS
   fun:_ZN16SystemDictionary28find_method_handle_intrinsicE13vmIntrinsicIDP6SymbolP10JavaThread
   fun:_ZN12LinkResolver25lookup_polymorphic_methodERK8LinkInfoP6HandleP10JavaThread
   fun:_ZN12LinkResolver19resolve_handle_callER8CallInfoRK8LinkInfoP10JavaThread
   fun:_ZN12LinkResolver20resolve_invokehandleER8CallInfoRK18constantPoolHandleiP10JavaThread
   fun:_ZN18InterpreterRuntime20resolve_invokehandleEP10JavaThread
   fun:_ZN18InterpreterRuntime18resolve_from_cacheEP10JavaThreadN9Bytecodes4CodeE
   obj:*
   obj:*
   obj:*
}

{
   <insert_a_suppression_name_here>
   Memcheck:Leak
   match-leak-kinds: reachable
   fun:malloc
   fun:_ZN2os6mallocEm8MEMFLAGSRK15NativeCallStack
   fun:_ZN6AnyObjnwEm8MEMFLAGS
   fun:_ZN16SystemDictionary28find_method_handle_intrinsicE13vmIntrinsicIDP6SymbolP10JavaThread
   fun:_ZN12LinkResolver25lookup_polymorphic_methodERK8LinkInfoP6HandleP10JavaThread
   fun:_ZN12LinkResolver19resolve_handle_callER8CallInfoRK8LinkInfoP10JavaThread
   fun:_ZN13MethodHandles18resolve_MemberNameE6HandleP5KlassibP10JavaThread
   fun:MHN_resolve_Mem
   obj:*
   obj:*
   obj:*
   obj:*
}

{
   <insert_a_suppression_name_here>
   Memcheck:Leak
   match-leak-kinds: reachable
   fun:malloc
   fun:_ZN2os6mallocEm8MEMFLAGSRK15NativeCallStack
   fun:_ZN6AnyObjnwEm8MEMFLAGS
   fun:_ZN17G1SurvivorRegionsC1Ev
   fun:_ZN15G1CollectedHeapC1Ev
   fun:_ZN11G1Arguments11create_heapEv
   fun:_Z13universe_initv
   fun:_Z12init_globalsv
   fun:_ZN7Threads9create_vmEP14JavaVMInitArgsPb
   fun:JNI_CreateJavaVM
   fun:JavaMain
   fun:ThreadJavaMain
}

{
   <insert_a_suppression_name_here>
   Memcheck:Leak
   match-leak-kinds: reachable
   fun:malloc
   fun:_ZN2os6mallocEm8MEMFLAGSRK15NativeCallStack
   fun:_ZN6AnyObjnwEm8MEMFLAGS
   fun:_ZN17PackageEntryTable21load_archived_entriesEP5ArrayIP12PackageEntryE
   fun:_ZN21ClassLoaderDataShared39restore_java_system_loader_from_archiveEP15ClassLoaderData
   fun:JVM_DefineArchivedModules
   obj:*
   obj:*
   obj:*
   obj:*
   fun:_ZN9JavaCalls11call_helperEP9JavaValueRK12methodHandleP17JavaCallArgumentsP10JavaThread
   fun:_ZN9JavaCalls11call_staticEP9JavaValueP5KlassP6SymbolS5_P17JavaCallArgumentsP10JavaThread
}

{
   <insert_a_suppression_name_here>
   Memcheck:Leak
   match-leak-kinds: reachable
   fun:malloc
   fun:_ZN2os6mallocEm8MEMFLAGSRK15NativeCallStack
   fun:_ZN6AnyObjnwEm8MEMFLAGS
   fun:_ZN17PackageEntryTable21load_archived_entriesEP5ArrayIP12PackageEntryE
   fun:_ZN21ClassLoaderDataShared41restore_java_platform_loader_from_archiveEP15ClassLoaderData
   fun:_ZN7Modules23define_archived_modulesE6HandleS0_P10JavaThread
   fun:JVM_DefineArchivedModules
   obj:*
   obj:*
   obj:*
   obj:*
   fun:_ZN9JavaCalls11call_helperEP9JavaValueRK12methodHandleP17JavaCallArgumentsP10JavaThread
}

{
   <insert_a_suppression_name_here>
   Memcheck:Leak
   match-leak-kinds: reachable
   fun:malloc
   fun:_ZN2os6mallocEm8MEMFLAGSRK15NativeCallStack
   fun:_ZN6AnyObjnwEm8MEMFLAGS
   fun:_ZN17PackageEntryTable21load_archived_entriesEP5ArrayIP12PackageEntryE
   fun:_ZN21ClassLoaderDataShared9serializeEP16SerializeClosure
   fun:_ZN15MetaspaceShared9serializeEP16SerializeClosure
   fun:_ZN15MetaspaceShared24initialize_shared_spacesEv
   fun:_Z13universe_initv
   fun:_Z12init_globalsv
   fun:_ZN7Threads9create_vmEP14JavaVMInitArgsPb
   fun:JNI_CreateJavaVM
   fun:JavaMain
}

{
   <insert_a_suppression_name_here>
   Memcheck:Leak
   match-leak-kinds: reachable
   fun:malloc
   fun:_ZN2os6mallocEm8MEMFLAGSRK15NativeCallStack
   fun:_ZN6AnyObjnwEm8MEMFLAGS
   fun:_ZN17PackageEntryTable29locked_create_entry_if_absentEP6SymbolP11ModuleEntry
   fun:_ZN17PackageEntryTable22create_entry_if_absentEP6SymbolP11ModuleEntry
   fun:_ZN13InstanceKlass11set_packageEP15ClassLoaderDataP12PackageEntryP10JavaThread
   fun:_ZN15ClassFileParser19fill_instance_klassEP13InstanceKlassbRK17ClassInstanceInfoP10JavaThread
   fun:_ZN15ClassFileParser21create_instance_klassEbRK17ClassInstanceInfoP10JavaThread
   fun:_ZN12KlassFactory18create_from_streamEP15ClassFileStreamP6SymbolP15ClassLoaderDataRK13ClassLoadInfoP10JavaThread
   fun:_ZN16SystemDictionary25resolve_class_from_streamEP15ClassFileStreamP6Symbol6HandleRK13ClassLoadInfoP10JavaThread
   fun:_ZL23jvm_define_class_commonPKcP8_jobjectPKaiS2_S0_P10JavaThread
   fun:JVM_DefineClassWithSource
}

{
   <insert_a_suppression_name_here>
   Memcheck:Leak
   match-leak-kinds: reachable
   fun:malloc
   fun:_ZN2os6mallocEm8MEMFLAGSRK15NativeCallStack
   fun:_ZN6AnyObjnwEm8MEMFLAGS
   fun:_ZN20ResolutionErrorTable10initializeEv
   fun:_ZN16SystemDictionary10initializeEP10JavaThread
   fun:_ZN8Universe7genesisEP10JavaThread
   fun:_Z14universe2_initv
   fun:_Z13init_globals2v
   fun:_ZN7Threads9create_vmEP14JavaVMInitArgsPb
   fun:JNI_CreateJavaVM
   fun:JavaMain
   fun:ThreadJavaMain
}

{
   <insert_a_suppression_name_here>
   Memcheck:Leak
   match-leak-kinds: reachable
   fun:malloc
   fun:_ZN2os6mallocEm8MEMFLAGSRK15NativeCallStack
   fun:_ZN6AnyObjnwEm8MEMFLAGS
   fun:_ZN21AdapterHandlerLibrary10initializeEv
   fun:_ZN13SharedRuntime14generate_stubsEv
   fun:_Z12init_globalsv
   fun:_ZN7Threads9create_vmEP14JavaVMInitArgsPb
   fun:JNI_CreateJavaVM
   fun:JavaMain
   fun:ThreadJavaMain
   fun:start_thread
   fun:clone
}

{
   <insert_a_suppression_name_here>
   Memcheck:Leak
   match-leak-kinds: reachable
   fun:malloc
   fun:_ZN2os6mallocEm8MEMFLAGSRK15NativeCallStack
   fun:_ZN6AnyObjnwEm8MEMFLAGS
   fun:_ZN21AdapterHandlerLibrary14create_adapterERP11AdapterBlobiP9BasicTypeb
   fun:_ZN21AdapterHandlerLibrary11get_adapterERK12methodHandle
   fun:_ZN6Method11link_methodERK12methodHandleP10JavaThread
   fun:_ZN13InstanceKlass12link_methodsEP10JavaThread
   fun:_ZN13InstanceKlass15link_class_implEP10JavaThread
   fun:_ZN13InstanceKlass15initialize_implEP10JavaThread
   fun:Unsafe_EnsureClassInitialized0
   obj:*
   obj:*
}

{
   <insert_a_suppression_name_here>
   Memcheck:Leak
   match-leak-kinds: reachable
   fun:malloc
   fun:_ZN2os6mallocEm8MEMFLAGSRK15NativeCallStack
   fun:_ZN6AnyObjnwEm8MEMFLAGS
   fun:_ZN21AdapterHandlerLibrary14create_adapterERP11AdapterBlobiP9BasicTypeb
   fun:_ZN21AdapterHandlerLibrary11get_adapterERK12methodHandle
   fun:_ZN6Method11link_methodERK12methodHandleP10JavaThread
   fun:_ZN13InstanceKlass12link_methodsEP10JavaThread
   fun:_ZN13InstanceKlass15link_class_implEP10JavaThread
   fun:_ZN13InstanceKlass15initialize_implEP10JavaThread
   fun:_Z28find_class_from_class_loaderP7JNIEnv_P6Symbolh6HandleS3_hP10JavaThread
   fun:JVM_FindClassFromCaller
   fun:Java_java_lang_Class_forName0
}

{
   <insert_a_suppression_name_here>
   Memcheck:Leak
   match-leak-kinds: reachable
   fun:malloc
   fun:_ZN2os6mallocEm8MEMFLAGSRK15NativeCallStack
   fun:_ZN6AnyObjnwEm8MEMFLAGS
   fun:_ZN21AdapterHandlerLibrary14create_adapterERP11AdapterBlobiP9BasicTypeb
   fun:_ZN21AdapterHandlerLibrary11get_adapterERK12methodHandle
   fun:_ZN6Method11link_methodERK12methodHandleP10JavaThread
   fun:_ZN13InstanceKlass12link_methodsEP10JavaThread
   fun:_ZN13InstanceKlass15link_class_implEP10JavaThread
   fun:_ZN13InstanceKlass15initialize_implEP10JavaThread
   fun:_Z28find_class_from_class_loaderP7JNIEnv_P6Symbolh6HandleS3_hP10JavaThread
   fun:_ZL9lookupOneP7JNIEnv_PKcP10JavaThread
   fun:lookupDirectBufferClasses
}

{
   <insert_a_suppression_name_here>
   Memcheck:Leak
   match-leak-kinds: reachable
   fun:malloc
   fun:_ZN2os6mallocEm8MEMFLAGSRK15NativeCallStack
   fun:_ZN6AnyObjnwEm8MEMFLAGS
   fun:_ZN21AdapterHandlerLibrary14create_adapterERP11AdapterBlobiP9BasicTypeb
   fun:_ZN21AdapterHandlerLibrary11get_adapterERK12methodHandle
   fun:_ZN6Method11link_methodERK12methodHandleP10JavaThread
   fun:_ZN13InstanceKlass12link_methodsEP10JavaThread
   fun:_ZN13InstanceKlass15link_class_implEP10JavaThread
   fun:_ZN13InstanceKlass15initialize_implEP10JavaThread
   fun:_ZL13get_method_idP7JNIEnv_P7_jclassPKcS4_bP10JavaThread.constprop.0
   fun:jni_GetStaticMethodID
   fun:checked_jni_GetStaticMethodID
}

{
   <insert_a_suppression_name_here>
   Memcheck:Leak
   match-leak-kinds: reachable
   fun:malloc
   fun:_ZN2os6mallocEm8MEMFLAGSRK15NativeCallStack
   fun:_ZN6AnyObjnwEm8MEMFLAGS
   fun:_ZN21AdapterHandlerLibrary14create_adapterERP11AdapterBlobiP9BasicTypeb
   fun:_ZN21AdapterHandlerLibrary11get_adapterERK12methodHandle
   fun:_ZN6Method11link_methodERK12methodHandleP10JavaThread
   fun:_ZN13InstanceKlass12link_methodsEP10JavaThread
   fun:_ZN13InstanceKlass15link_class_implEP10JavaThread
   fun:_ZN13InstanceKlass15initialize_implEP10JavaThread
   fun:_ZN10HeapShared39resolve_or_init_classes_for_subgraph_ofEP5KlassbP10JavaThread
   fun:_ZN10HeapShared33initialize_from_archived_subgraphEP10JavaThreadP5Klass
   fun:JVM_InitializeFromArchive
}

{
   <insert_a_suppression_name_here>
   Memcheck:Leak
   match-leak-kinds: reachable
   fun:malloc
   fun:_ZN2os6mallocEm8MEMFLAGSRK15NativeCallStack
   fun:_ZN6AnyObjnwEm8MEMFLAGS
   fun:_ZN21AdapterHandlerLibrary14create_adapterERP11AdapterBlobiP9BasicTypeb
   fun:_ZN21AdapterHandlerLibrary11get_adapterERK12methodHandle
   fun:_ZN6Method11link_methodERK12methodHandleP10JavaThread
   fun:_ZN13InstanceKlass12link_methodsEP10JavaThread
   fun:_ZN13InstanceKlass15link_class_implEP10JavaThread
   fun:_ZN13InstanceKlass15initialize_implEP10JavaThread
   fun:_ZN12LinkResolver13resolve_fieldER15fieldDescriptorRK8LinkInfoN9Bytecodes4CodeEbP10JavaThread
   fun:_ZN12LinkResolver20resolve_field_accessER15fieldDescriptorRK18constantPoolHandleiRK12methodHandleN9Bytecodes4CodeEP10JavaThread
   fun:_ZN18InterpreterRuntime15resolve_get_putEP10JavaThreadN9Bytecodes4CodeE
}

{
   <insert_a_suppression_name_here>
   Memcheck:Leak
   match-leak-kinds: reachable
   fun:malloc
   fun:_ZN2os6mallocEm8MEMFLAGSRK15NativeCallStack
   fun:_ZN6AnyObjnwEm8MEMFLAGS
   fun:_ZN21AdapterHandlerLibrary14create_adapterERP11AdapterBlobiP9BasicTypeb
   fun:_ZN21AdapterHandlerLibrary11get_adapterERK12methodHandle
   fun:_ZN6Method11link_methodERK12methodHandleP10JavaThread
   fun:_ZN13InstanceKlass12link_methodsEP10JavaThread
   fun:_ZN13InstanceKlass15link_class_implEP10JavaThread
   fun:_ZN13InstanceKlass15initialize_implEP10JavaThread
   fun:_ZN12LinkResolver19resolve_static_callER8CallInfoRK8LinkInfobP10JavaThread
   fun:_ZN12LinkResolver14resolve_invokeER8CallInfo6HandleRK18constantPoolHandleiN9Bytecodes4CodeEP10JavaThread
   fun:_ZN18InterpreterRuntime14resolve_invokeEP10JavaThreadN9Bytecodes4CodeE
}

{
   <insert_a_suppression_name_here>
   Memcheck:Leak
   match-leak-kinds: reachable
   fun:malloc
   fun:_ZN2os6mallocEm8MEMFLAGSRK15NativeCallStack
   fun:_ZN6AnyObjnwEm8MEMFLAGS
   fun:_ZN21AdapterHandlerLibrary14create_adapterERP11AdapterBlobiP9BasicTypeb
   fun:_ZN21AdapterHandlerLibrary11get_adapterERK12methodHandle
   fun:_ZN6Method11link_methodERK12methodHandleP10JavaThread
   fun:_ZN13InstanceKlass12link_methodsEP10JavaThread
   fun:_ZN13InstanceKlass15link_class_implEP10JavaThread
   fun:_ZN13InstanceKlass15initialize_implEP10JavaThread
   fun:_ZN18InterpreterRuntime4_newEP10JavaThreadP12ConstantPooli
   obj:*
   obj:*
}

{
   <insert_a_suppression_name_here>
   Memcheck:Leak
   match-leak-kinds: reachable
   fun:malloc
   fun:_ZN2os6mallocEm8MEMFLAGSRK15NativeCallStack
   fun:_ZN6AnyObjnwEm8MEMFLAGS
   fun:_ZN21AdapterHandlerLibrary14create_adapterERP11AdapterBlobiP9BasicTypeb
   fun:_ZN21AdapterHandlerLibrary11get_adapterERK12methodHandle
   fun:_ZN6Method11link_methodERK12methodHandleP10JavaThread
   fun:_ZN13InstanceKlass12link_methodsEP10JavaThread
   fun:_ZN13InstanceKlass15link_class_implEP10JavaThread
   fun:_ZN13InstanceKlass15initialize_implEP10JavaThread
   fun:_ZN23java_lang_reflect_Field6createEP10JavaThread
   fun:_ZN10Reflection9new_fieldEP15fieldDescriptorP10JavaThread
   fun:JVM_GetClassDeclaredFields
}

{
   <insert_a_suppression_name_here>
   Memcheck:Leak
   match-leak-kinds: reachable
   fun:malloc
   fun:_ZN2os6mallocEm8MEMFLAGSRK15NativeCallStack
   fun:_ZN6AnyObjnwEm8MEMFLAGS
   fun:_ZN21AdapterHandlerLibrary14create_adapterERP11AdapterBlobiP9BasicTypeb
   fun:_ZN21AdapterHandlerLibrary11get_adapterERK12methodHandle
   fun:_ZN6Method11link_methodERK12methodHandleP10JavaThread
   fun:_ZN13InstanceKlass12link_methodsEP10JavaThread
   fun:_ZN13InstanceKlass15link_class_implEP10JavaThread
   fun:_ZN13InstanceKlass15initialize_implEP10JavaThread
   fun:_ZN7Threads28initialize_java_lang_classesEP10JavaThreadS1_
   fun:_ZN7Threads9create_vmEP14JavaVMInitArgsPb
   fun:JNI_CreateJavaVM
}

{
   <insert_a_suppression_name_here>
   Memcheck:Leak
   match-leak-kinds: reachable
   fun:malloc
   fun:_ZN2os6mallocEm8MEMFLAGSRK15NativeCallStack
   fun:_ZN6AnyObjnwEm8MEMFLAGS
   fun:_ZN21AdapterHandlerLibrary14create_adapterERP11AdapterBlobiP9BasicTypeb
   fun:_ZN21AdapterHandlerLibrary11get_adapterERK12methodHandle
   fun:_ZN6Method11link_methodERK12methodHandleP10JavaThread
   fun:_ZN13InstanceKlass12link_methodsEP10JavaThread
   fun:_ZN13InstanceKlass15link_class_implEP10JavaThread
   fun:_ZN13InstanceKlass15initialize_implEP10JavaThread
   fun:_ZN7Threads30initialize_jsr292_core_classesEP10JavaThread
   fun:_ZN7Threads9create_vmEP14JavaVMInitArgsPb
   fun:JNI_CreateJavaVM
}

{
   <insert_a_suppression_name_here>
   Memcheck:Leak
   match-leak-kinds: reachable
   fun:malloc
   fun:_ZN2os6mallocEm8MEMFLAGSRK15NativeCallStack
   fun:_ZN6AnyObjnwEm8MEMFLAGS
   fun:_ZN21AdapterHandlerLibrary14create_adapterERP11AdapterBlobiP9BasicTypeb
   fun:_ZN21AdapterHandlerLibrary11get_adapterERK12methodHandle
   fun:_ZN6Method11link_methodERK12methodHandleP10JavaThread
   fun:_ZN13InstanceKlass12link_methodsEP10JavaThread
   fun:_ZN13InstanceKlass15link_class_implEP10JavaThread
   fun:_ZN13InstanceKlass15link_class_implEP10JavaThread
   fun:_ZN13InstanceKlass15initialize_implEP10JavaThread
   fun:_Z28find_class_from_class_loaderP7JNIEnv_P6Symbolh6HandleS3_hP10JavaThread
   fun:_ZL9lookupOneP7JNIEnv_PKcP10JavaThread
}

{
   <insert_a_suppression_name_here>
   Memcheck:Leak
   match-leak-kinds: reachable
   fun:malloc
   fun:_ZN2os6mallocEm8MEMFLAGSRK15NativeCallStack
   fun:_ZN6AnyObjnwEm8MEMFLAGS
   fun:_ZN21AdapterHandlerLibrary14create_adapterERP11AdapterBlobiP9BasicTypeb
   fun:_ZN21AdapterHandlerLibrary11get_adapterERK12methodHandle
   fun:_ZN6Method11link_methodERK12methodHandleP10JavaThread
   fun:_ZN13InstanceKlass12link_methodsEP10JavaThread
   fun:_ZN13InstanceKlass15link_class_implEP10JavaThread
   fun:_ZN13InstanceKlass15link_class_implEP10JavaThread
   fun:_ZN13InstanceKlass15initialize_implEP10JavaThread
   fun:_ZN12LinkResolver19resolve_static_callER8CallInfoRK8LinkInfobP10JavaThread
   fun:_ZN12LinkResolver14resolve_invokeER8CallInfo6HandleRK18constantPoolHandleiN9Bytecodes4CodeEP10JavaThread
}

{
   <insert_a_suppression_name_here>
   Memcheck:Leak
   match-leak-kinds: reachable
   fun:malloc
   fun:_ZN2os6mallocEm8MEMFLAGSRK15NativeCallStack
   fun:_ZN6AnyObjnwEm8MEMFLAGS
   fun:_ZN21AdapterHandlerLibrary14create_adapterERP11AdapterBlobiP9BasicTypeb
   fun:_ZN21AdapterHandlerLibrary11get_adapterERK12methodHandle
   fun:_ZN6Method11link_methodERK12methodHandleP10JavaThread
   fun:_ZN13InstanceKlass12link_methodsEP10JavaThread
   fun:_ZN13InstanceKlass15link_class_implEP10JavaThread
   fun:_ZN13InstanceKlass15link_class_implEP10JavaThread
   fun:_ZN13InstanceKlass15initialize_implEP10JavaThread
   fun:_ZN18InterpreterRuntime4_newEP10JavaThreadP12ConstantPooli
   obj:*
}

{
   <insert_a_suppression_name_here>
   Memcheck:Leak
   match-leak-kinds: reachable
   fun:malloc
   fun:_ZN2os6mallocEm8MEMFLAGSRK15NativeCallStack
   fun:_ZN6AnyObjnwEm8MEMFLAGS
   fun:_ZN21AdapterHandlerLibrary14create_adapterERP11AdapterBlobiP9BasicTypeb
   fun:_ZN21AdapterHandlerLibrary11get_adapterERK12methodHandle
   fun:_ZN6Method11link_methodERK12methodHandleP10JavaThread
   fun:_ZN13InstanceKlass12link_methodsEP10JavaThread
   fun:_ZN13InstanceKlass15link_class_implEP10JavaThread
   fun:_ZN13InstanceKlass15link_class_implEP10JavaThread
   fun:_ZN13InstanceKlass15initialize_implEP10JavaThread
   fun:_ZN7Threads28initialize_java_lang_classesEP10JavaThreadS1_
   fun:_ZN7Threads9create_vmEP14JavaVMInitArgsPb
}

{
   <insert_a_suppression_name_here>
   Memcheck:Leak
   match-leak-kinds: reachable
   fun:malloc
   fun:_ZN2os6mallocEm8MEMFLAGSRK15NativeCallStack
   fun:_ZN6AnyObjnwEm8MEMFLAGS
   fun:_ZN21AdapterHandlerLibrary14create_adapterERP11AdapterBlobiP9BasicTypeb
   fun:_ZN21AdapterHandlerLibrary11get_adapterERK12methodHandle
   fun:_ZN6Method11link_methodERK12methodHandleP10JavaThread
   fun:_ZN13InstanceKlass12link_methodsEP10JavaThread
   fun:_ZN13InstanceKlass15link_class_implEP10JavaThread
   fun:_ZN13InstanceKlass15link_class_implEP10JavaThread
   fun:_ZN13InstanceKlass15link_class_implEP10JavaThread
   fun:_ZN13InstanceKlass15initialize_implEP10JavaThread
   fun:_ZN10HeapShared39resolve_or_init_classes_for_subgraph_ofEP5KlassbP10JavaThread
}

{
   <insert_a_suppression_name_here>
   Memcheck:Leak
   match-leak-kinds: reachable
   fun:malloc
   fun:_ZN2os6mallocEm8MEMFLAGSRK15NativeCallStack
   fun:_ZN6AnyObjnwEm8MEMFLAGS
   fun:_ZN21AdapterHandlerLibrary14create_adapterERP11AdapterBlobiP9BasicTypeb
   fun:_ZN21AdapterHandlerLibrary11get_adapterERK12methodHandle
   fun:_ZN6Method11link_methodERK12methodHandleP10JavaThread
   fun:_ZN13InstanceKlass12link_methodsEP10JavaThread
   fun:_ZN13InstanceKlass15link_class_implEP10JavaThread
   fun:_ZN13InstanceKlass15link_class_implEP10JavaThread
   fun:_ZN13InstanceKlass15link_class_implEP10JavaThread
   fun:_ZN13InstanceKlass15initialize_implEP10JavaThread
   fun:_ZN18InterpreterRuntime4_newEP10JavaThreadP12ConstantPooli
}

{
   <insert_a_suppression_name_here>
   Memcheck:Leak
   match-leak-kinds: reachable
   fun:malloc
   fun:_ZN2os6mallocEm8MEMFLAGSRK15NativeCallStack
   fun:_ZN6AnyObjnwEm8MEMFLAGS
   fun:_ZN21AdapterHandlerLibrary14create_adapterERP11AdapterBlobiP9BasicTypeb
   fun:_ZN21AdapterHandlerLibrary11get_adapterERK12methodHandle
   fun:_ZN6Method11link_methodERK12methodHandleP10JavaThread
   fun:_ZN13InstanceKlass12link_methodsEP10JavaThread
   fun:_ZN13InstanceKlass15link_class_implEP10JavaThread
   fun:_ZN13InstanceKlass15link_class_implEP10JavaThread
   fun:_ZN13InstanceKlass15link_class_implEP10JavaThread
   fun:_ZN13InstanceKlass15link_class_implEP10JavaThread
   fun:_ZN13InstanceKlass15initialize_implEP10JavaThread
}

{
   <insert_a_suppression_name_here>
   Memcheck:Leak
   match-leak-kinds: reachable
   fun:malloc
   fun:_ZN2os6mallocEm8MEMFLAGSRK15NativeCallStack
   fun:_ZN6AnyObjnwEm8MEMFLAGS
   fun:_ZN21AdapterHandlerLibrary14create_adapterERP11AdapterBlobiP9BasicTypeb
   fun:_ZN21AdapterHandlerLibrary11get_adapterERK12methodHandle
   fun:_ZN6Method11link_methodERK12methodHandleP10JavaThread
   fun:_ZN13InstanceKlass12link_methodsEP10JavaThread
   fun:_ZN13InstanceKlass15link_class_implEP10JavaThread
   fun:_ZN13InstanceKlass15link_class_implEP10JavaThread
   fun:_ZN13InstanceKlass15link_class_implEP10JavaThread
   fun:_ZN13InstanceKlass15link_class_implEP10JavaThread
   fun:_ZN13InstanceKlass18link_class_or_failEP10JavaThread
}

{
   <insert_a_suppression_name_here>
   Memcheck:Leak
   match-leak-kinds: reachable
   fun:malloc
   fun:_ZN2os6mallocEm8MEMFLAGSRK15NativeCallStack
   fun:_ZN6AnyObjnwEm8MEMFLAGS
   fun:_ZN21AdapterHandlerLibrary14create_adapterERP11AdapterBlobiP9BasicTypeb
   fun:_ZN21AdapterHandlerLibrary11get_adapterERK12methodHandle
   fun:_ZN6Method11link_methodERK12methodHandleP10JavaThread
   fun:_ZN13InstanceKlass12link_methodsEP10JavaThread
   fun:_ZN13InstanceKlass15link_class_implEP10JavaThread
   fun:_ZN13InstanceKlass15link_class_implEP10JavaThread
   fun:_ZN13InstanceKlass15link_class_implEP10JavaThread
   fun:_ZN13InstanceKlass18link_class_or_failEP10JavaThread
   fun:_Z18universe_post_initv
}

{
   <insert_a_suppression_name_here>
   Memcheck:Leak
   match-leak-kinds: reachable
   fun:malloc
   fun:_ZN2os6mallocEm8MEMFLAGSRK15NativeCallStack
   fun:_ZN6AnyObjnwEm8MEMFLAGS
   fun:_ZN21AdapterHandlerLibrary14create_adapterERP11AdapterBlobiP9BasicTypeb
   fun:_ZN21AdapterHandlerLibrary11get_adapterERK12methodHandle
   fun:_ZN6Method11link_methodERK12methodHandleP10JavaThread
   fun:_ZN13InstanceKlass12link_methodsEP10JavaThread
   fun:_ZN13InstanceKlass15link_class_implEP10JavaThread
   fun:_ZN13InstanceKlass18link_class_or_failEP10JavaThread
   fun:_Z23initialize_known_methodP17LatestMethodCacheP13InstanceKlassPKcP6SymbolbP10JavaThread
   fun:_Z18universe_post_initv
   fun:_Z13init_globals2v
}

{
   <insert_a_suppression_name_here>
   Memcheck:Leak
   match-leak-kinds: reachable
   fun:malloc
   fun:_ZN2os6mallocEm8MEMFLAGSRK15NativeCallStack
   fun:_ZN6AnyObjnwEm8MEMFLAGS
   fun:_ZN21AdapterHandlerLibrary14create_adapterERP11AdapterBlobiP9BasicTypeb
   fun:_ZN21AdapterHandlerLibrary11get_adapterERK12methodHandle
   fun:_ZN6Method11link_methodERK12methodHandleP10JavaThread
   fun:_ZN13InstanceKlass12link_methodsEP10JavaThread
   fun:_ZN13InstanceKlass15link_class_implEP10JavaThread
   fun:_ZN13InstanceKlass18link_class_or_failEP10JavaThread
   fun:_Z23initialize_known_methodP17LatestMethodCacheP13InstanceKlassPKcP6SymbolbP10JavaThread
   fun:_ZN8Universe24initialize_known_methodsEP10JavaThread
   fun:_Z18universe_post_initv
}

{
   <insert_a_suppression_name_here>
   Memcheck:Leak
   match-leak-kinds: reachable
   fun:malloc
   fun:_ZN2os6mallocEm8MEMFLAGSRK15NativeCallStack
   fun:_ZN6AnyObjnwEm8MEMFLAGS
   fun:_ZN21AdapterHandlerLibrary14create_adapterERP11AdapterBlobiP9BasicTypeb
   fun:_ZN21AdapterHandlerLibrary11get_adapterERK12methodHandle
   fun:_ZN6Method11link_methodERK12methodHandleP10JavaThread
   fun:_ZN13InstanceKlass12link_methodsEP10JavaThread
   fun:_ZN13InstanceKlass15link_class_implEP10JavaThread
   fun:_ZN16SystemDictionary19resolve_from_streamEP15ClassFileStreamP6Symbol6HandleRK13ClassLoadInfoP10JavaThread
   fun:_ZL23jvm_lookup_define_classP7_jclassPKcPKaiP8_jobjecthiS6_P10JavaThread
   fun:JVM_LookupDefineClass
   fun:Java_java_lang_ClassLoader_defineClass0
}

{
   <insert_a_suppression_name_here>
   Memcheck:Leak
   match-leak-kinds: reachable
   fun:malloc
   fun:_ZN2os6mallocEm8MEMFLAGSRK15NativeCallStack
   fun:_ZN6AnyObjnwEm8MEMFLAGS
   fun:_ZN21AdapterHandlerLibrary14create_adapterERP11AdapterBlobiP9BasicTypeb
   fun:_ZN21AdapterHandlerLibrary11get_adapterERK12methodHandle
   fun:_ZN6Method11link_methodERK12methodHandleP10JavaThread
   fun:_ZN6Method28make_method_handle_intrinsicE13vmIntrinsicIDP6SymbolP10JavaThread
   fun:_ZN16SystemDictionary28find_method_handle_intrinsicE13vmIntrinsicIDP6SymbolP10JavaThread
   fun:_ZN12LinkResolver25lookup_polymorphic_methodERK8LinkInfoP6HandleP10JavaThread
   fun:_ZN12LinkResolver14resolve_methodERK8LinkInfoN9Bytecodes4CodeEP10JavaThread
   fun:_ZN12LinkResolver19resolve_static_callER8CallInfoRK8LinkInfobP10JavaThread
   fun:_ZN13MethodHandles18resolve_MemberNameE6HandleP5KlassibP10JavaThread
}

{
   <insert_a_suppression_name_here>
   Memcheck:Leak
   match-leak-kinds: reachable
   fun:malloc
   fun:_ZN2os6mallocEm8MEMFLAGSRK15NativeCallStack
   fun:_ZN6AnyObjnwEm8MEMFLAGS
   fun:_ZN21AdapterHandlerLibrary14create_adapterERP11AdapterBlobiP9BasicTypeb.constprop.0
   fun:_ZN21AdapterHandlerLibrary10initializeEv
   fun:_ZN13SharedRuntime14generate_stubsEv
   fun:_Z12init_globalsv
   fun:_ZN7Threads9create_vmEP14JavaVMInitArgsPb
   fun:JNI_CreateJavaVM
   fun:JavaMain
   fun:ThreadJavaMain
   fun:start_thread
}

{
   <insert_a_suppression_name_here>
   Memcheck:Leak
   match-leak-kinds: reachable
   fun:malloc
   fun:_ZN2os6mallocEm8MEMFLAGSRK15NativeCallStack
   fun:_ZN6AnyObjnwEm8MEMFLAGS
   fun:_ZN21AdapterHandlerLibrary14create_adapterERP11AdapterBlobiP9BasicTypeb.constprop.1
   fun:_ZN21AdapterHandlerLibrary10initializeEv
   fun:_ZN13SharedRuntime14generate_stubsEv
   fun:_Z12init_globalsv
   fun:_ZN7Threads9create_vmEP14JavaVMInitArgsPb
   fun:JNI_CreateJavaVM
   fun:JavaMain
   fun:ThreadJavaMain
   fun:start_thread
}

{
   <insert_a_suppression_name_here>
   Memcheck:Leak
   match-leak-kinds: reachable
   fun:malloc
   fun:_ZN2os6mallocEm8MEMFLAGSRK15NativeCallStack
   fun:_ZN6AnyObjnwEm8MEMFLAGS
   fun:_ZN21LoaderConstraintTable10initializeEv
   fun:_ZN16SystemDictionary10initializeEP10JavaThread
   fun:_ZN8Universe7genesisEP10JavaThread
   fun:_Z14universe2_initv
   fun:_Z13init_globals2v
   fun:_ZN7Threads9create_vmEP14JavaVMInitArgsPb
   fun:JNI_CreateJavaVM
   fun:JavaMain
   fun:ThreadJavaMain
}

{
   <insert_a_suppression_name_here>
   Memcheck:Leak
   match-leak-kinds: reachable
   fun:malloc
   fun:_ZN2os6mallocEm8MEMFLAGSRK15NativeCallStack
   fun:_ZN6AnyObjnwEm8MEMFLAGS
   fun:_ZN21LoaderConstraintTable21add_loader_constraintEP6SymbolP13InstanceKlassP15ClassLoaderDataS5_
   fun:_ZN21LoaderConstraintTable9add_entryEP6SymbolP13InstanceKlassP15ClassLoaderDataS3_S5_
   fun:_ZN16SystemDictionary21add_loader_constraintEP6SymbolP5Klass6HandleS4_
   fun:_ZN16SystemDictionary23check_signature_loadersEP6SymbolP5Klass6HandleS4_b
   fun:_ZN12LinkResolver30check_field_loader_constraintsEP6SymbolS1_P5KlassS3_P10JavaThread
   fun:_ZN12LinkResolver20resolve_field_accessER15fieldDescriptorRK18constantPoolHandleiRK12methodHandleN9Bytecodes4CodeEP10JavaThread
   fun:_ZN18InterpreterRuntime15resolve_get_putEP10JavaThreadN9Bytecodes4CodeE
   fun:_ZN18InterpreterRuntime18resolve_from_cacheEP10JavaThreadN9Bytecodes4CodeE
   obj:*
}

{
   <insert_a_suppression_name_here>
   Memcheck:Leak
   match-leak-kinds: reachable
   fun:malloc
   fun:_ZN2os6mallocEm8MEMFLAGSRK15NativeCallStack
   fun:_ZN6AnyObjnwEm8MEMFLAGS
   fun:_ZN21LoaderConstraintTable21add_loader_constraintEP6SymbolP13InstanceKlassP15ClassLoaderDataS5_
   fun:_ZN21LoaderConstraintTable9add_entryEP6SymbolP13InstanceKlassP15ClassLoaderDataS3_S5_
   fun:_ZN16SystemDictionary21add_loader_constraintEP6SymbolP5Klass6HandleS4_
   fun:_ZN16SystemDictionary23check_signature_loadersEP6SymbolP5Klass6HandleS4_b
   fun:_ZN12LinkResolver31check_method_loader_constraintsERK8LinkInfoRK12methodHandlePKcP10JavaThread
   fun:_ZN12LinkResolver14resolve_methodERK8LinkInfoN9Bytecodes4CodeEP10JavaThread
   fun:_ZN12LinkResolver19resolve_static_callER8CallInfoRK8LinkInfobP10JavaThread
   fun:_ZN12LinkResolver14resolve_invokeER8CallInfo6HandleRK18constantPoolHandleiN9Bytecodes4CodeEP10JavaThread
   fun:_ZN18InterpreterRuntime14resolve_invokeEP10JavaThreadN9Bytecodes4CodeE
}

{
   <insert_a_suppression_name_here>
   Memcheck:Leak
   match-leak-kinds: reachable
   fun:malloc
   fun:_ZN2os6mallocEm8MEMFLAGSRK15NativeCallStack
   fun:_ZN6AnyObjnwEm8MEMFLAGS
   fun:_ZN21LoaderConstraintTable21add_loader_constraintEP6SymbolP13InstanceKlassP15ClassLoaderDataS5_
   fun:_ZN21LoaderConstraintTable9add_entryEP6SymbolP13InstanceKlassP15ClassLoaderDataS3_S5_
   fun:_ZN16SystemDictionary21add_loader_constraintEP6SymbolP5Klass6HandleS4_
   fun:_ZN16SystemDictionary23check_signature_loadersEP6SymbolP5Klass6HandleS4_b
   fun:_ZN12LinkResolver31check_method_loader_constraintsERK8LinkInfoRK12methodHandlePKcP10JavaThread
   fun:_ZN12LinkResolver14resolve_methodERK8LinkInfoN9Bytecodes4CodeEP10JavaThread
   fun:_ZN12LinkResolver19resolve_static_callER8CallInfoRK8LinkInfobP10JavaThread
   fun:_ZN13MethodHandles18resolve_MemberNameE6HandleP5KlassibP10JavaThread
   fun:_ZN16SystemDictionary27link_method_handle_constantEP5KlassiS1_P6SymbolS3_P10JavaThread
}

{
   <insert_a_suppression_name_here>
   Memcheck:Leak
   match-leak-kinds: reachable
   fun:malloc
   fun:_ZN2os6mallocEm8MEMFLAGSRK15NativeCallStack
   fun:_ZN6AnyObjnwEm8MEMFLAGS
   fun:_ZN21LoaderConstraintTable21add_loader_constraintEP6SymbolP13InstanceKlassP15ClassLoaderDataS5_
   fun:_ZN21LoaderConstraintTable9add_entryEP6SymbolP13InstanceKlassP15ClassLoaderDataS3_S5_
   fun:_ZN16SystemDictionary21add_loader_constraintEP6SymbolP5Klass6HandleS4_
   fun:_ZN16SystemDictionary23check_signature_loadersEP6SymbolP5Klass6HandleS4_b
   fun:_ZN12LinkResolver31check_method_loader_constraintsERK8LinkInfoRK12methodHandlePKcP10JavaThread
   fun:_ZN12LinkResolver14resolve_methodERK8LinkInfoN9Bytecodes4CodeEP10JavaThread
   fun:_ZN12LinkResolver31linktime_resolve_virtual_methodERK8LinkInfoP10JavaThread
   fun:_ZN12LinkResolver20resolve_virtual_callER8CallInfo6HandleP5KlassRK8LinkInfobP10JavaThread
   fun:_ZN12LinkResolver14resolve_invokeER8CallInfo6HandleRK18constantPoolHandleiN9Bytecodes4CodeEP10JavaThread
}

{
   <insert_a_suppression_name_here>
   Memcheck:Leak
   match-leak-kinds: reachable
   fun:malloc
   fun:_ZN2os6mallocEm8MEMFLAGSRK15NativeCallStack
   fun:_ZN6AnyObjnwEm8MEMFLAGS
   fun:_ZN21LoaderConstraintTable21add_loader_constraintEP6SymbolP13InstanceKlassP15ClassLoaderDataS5_
   fun:_ZN21LoaderConstraintTable9add_entryEP6SymbolP13InstanceKlassP15ClassLoaderDataS3_S5_
   fun:_ZN16SystemDictionary21add_loader_constraintEP6SymbolP5Klass6HandleS4_
   fun:_ZN16SystemDictionary23check_signature_loadersEP6SymbolP5Klass6HandleS4_b
   fun:_ZN12LinkResolver31check_method_loader_constraintsERK8LinkInfoRK12methodHandlePKcP10JavaThread
   fun:_ZN12LinkResolver24resolve_interface_methodERK8LinkInfoN9Bytecodes4CodeEP10JavaThread
   fun:_ZN12LinkResolver22resolve_interface_callER8CallInfo6HandleP5KlassRK8LinkInfobP10JavaThread
   fun:_ZN12LinkResolver14resolve_invokeER8CallInfo6HandleRK18constantPoolHandleiN9Bytecodes4CodeEP10JavaThread
   fun:_ZN18InterpreterRuntime14resolve_invokeEP10JavaThreadN9Bytecodes4CodeE
}

{
   <insert_a_suppression_name_here>
   Memcheck:Leak
   match-leak-kinds: reachable
   fun:malloc
   fun:_ZN2os6mallocEm8MEMFLAGSRK15NativeCallStack
   fun:_ZN6AnyObjnwEm8MEMFLAGS
   fun:_ZN23SignatureHandlerLibrary10initializeEv.part.0
   fun:_ZN23SignatureHandlerLibrary3addERK12methodHandle.part.0
   fun:_ZN18InterpreterRuntime19prepare_native_callEP10JavaThreadP6Method
   obj:*
   obj:*
   obj:*
   fun:_ZN9JavaCalls11call_helperEP9JavaValueRK12methodHandleP17JavaCallArgumentsP10JavaThread
   fun:_ZN13InstanceKlass22call_class_initializerEP10JavaThread
   fun:_ZN13InstanceKlass15initialize_implEP10JavaThread
}

{
   <insert_a_suppression_name_here>
   Memcheck:Leak
   match-leak-kinds: reachable
   fun:malloc
   fun:_ZN2os6mallocEm8MEMFLAGSRK15NativeCallStack
   fun:_ZN6AnyObjnwEm8MEMFLAGS
   fun:_ZN26ProtectionDomainCacheTable10initializeEv
   fun:_ZN16SystemDictionary10initializeEP10JavaThread
   fun:_ZN8Universe7genesisEP10JavaThread
   fun:_Z14universe2_initv
   fun:_Z13init_globals2v
   fun:_ZN7Threads9create_vmEP14JavaVMInitArgsPb
   fun:JNI_CreateJavaVM
   fun:JavaMain
   fun:ThreadJavaMain
}

{
   <insert_a_suppression_name_here>
   Memcheck:Leak
   match-leak-kinds: reachable
   fun:malloc
   fun:_ZN2os6mallocEm8MEMFLAGSRK15NativeCallStack
   fun:_ZN6AnyObjnwEm8MEMFLAGS
   fun:_ZN6ThreadC1Ev
   fun:_ZN10JavaThreadC1EPFvPS_S0_Em
   fun:JVM_StartThread
   obj:*
   obj:*
   obj:*
   obj:*
   obj:*
   obj:*
}

{
   <insert_a_suppression_name_here>
   Memcheck:Leak
   match-leak-kinds: reachable
   fun:malloc
   fun:_ZN2os6mallocEm8MEMFLAGSRK15NativeCallStack
   fun:_ZN6AnyObjnwEm8MEMFLAGS
   fun:_ZN6ThreadC1Ev
   fun:_ZN10JavaThreadC1EPFvPS_S0_Em
   fun:_ZN13ServiceThread10initializeEv
   fun:_ZN7Threads9create_vmEP14JavaVMInitArgsPb
   fun:JNI_CreateJavaVM
   fun:JavaMain
   fun:ThreadJavaMain
   fun:start_thread
   fun:clone
}

{
   <insert_a_suppression_name_here>
   Memcheck:Leak
   match-leak-kinds: reachable
   fun:malloc
   fun:_ZN2os6mallocEm8MEMFLAGSRK15NativeCallStack
   fun:_ZN6AnyObjnwEm8MEMFLAGS
   fun:_ZN6ThreadC1Ev
   fun:_ZN10JavaThreadC1EPFvPS_S0_Em
   fun:_ZN18NotificationThread10initializeEv
   fun:_ZN10Management10initializeEP10JavaThread
   fun:_ZN7Threads9create_vmEP14JavaVMInitArgsPb
   fun:JNI_CreateJavaVM
   fun:JavaMain
   fun:ThreadJavaMain
   fun:start_thread
}

{
   <insert_a_suppression_name_here>
   Memcheck:Leak
   match-leak-kinds: reachable
   fun:malloc
   fun:_ZN2os6mallocEm8MEMFLAGSRK15NativeCallStack
   fun:_ZN6AnyObjnwEm8MEMFLAGS
   fun:_ZN6ThreadC1Ev
   fun:_ZN10JavaThreadC1EPFvPS_S0_Em
   fun:_ZN22MonitorDeflationThread10initializeEv
   fun:_ZN7Threads9create_vmEP14JavaVMInitArgsPb
   fun:JNI_CreateJavaVM
   fun:JavaMain
   fun:ThreadJavaMain
   fun:start_thread
   fun:clone
}

{
   <insert_a_suppression_name_here>
   Memcheck:Leak
   match-leak-kinds: reachable
   fun:malloc
   fun:_ZN2os6mallocEm8MEMFLAGSRK15NativeCallStack
   fun:_ZN6AnyObjnwEm8MEMFLAGS
   fun:_ZN6ThreadC1Ev
   fun:_ZN11NamedThreadC1Ev
   fun:_ZN13WorkerThreads13create_workerEj
   fun:_ZN13WorkerThreads18initialize_workersEv
   fun:_ZN15G1CollectedHeap10initializeEv
   fun:_Z13universe_initv
   fun:_Z12init_globalsv
   fun:_ZN7Threads9create_vmEP14JavaVMInitArgsPb
   fun:JNI_CreateJavaVM
}

{
   <insert_a_suppression_name_here>
   Memcheck:Leak
   match-leak-kinds: reachable
   fun:malloc
   fun:_ZN2os6mallocEm8MEMFLAGSRK15NativeCallStack
   fun:_ZN6AnyObjnwEm8MEMFLAGS
   fun:_ZN6ThreadC1Ev
   fun:_ZN11NamedThreadC1Ev
   fun:_ZN13WorkerThreads13create_workerEj
   fun:_ZN13WorkerThreads18initialize_workersEv
   fun:_ZN16G1ConcurrentMarkC1EP15G1CollectedHeapP21G1RegionToSpaceMapper
   fun:_ZN15G1CollectedHeap10initializeEv
   fun:_Z13universe_initv
   fun:_Z12init_globalsv
   fun:_ZN7Threads9create_vmEP14JavaVMInitArgsPb
}

{
   <insert_a_suppression_name_here>
   Memcheck:Leak
   match-leak-kinds: reachable
   fun:malloc
   fun:_ZN2os6mallocEm8MEMFLAGSRK15NativeCallStack
   fun:_ZN6AnyObjnwEm8MEMFLAGS
   fun:_ZN6ThreadC1Ev
   fun:_ZN11NamedThreadC1Ev
   fun:_ZN13WorkerThreads13create_workerEj
   fun:_ZN13WorkerThreads18set_active_workersEj
   fun:_ZN16G1YoungCollector7collectEv
   fun:_ZN15G1CollectedHeap39do_collection_pause_at_safepoint_helperEv
   fun:_ZN15G1CollectedHeap32do_collection_pause_at_safepointEv
   fun:_ZN25VM_G1CollectForAllocation4doitEv
   fun:_ZN12VM_Operation8evaluateEv
}

{
   <insert_a_suppression_name_here>
   Memcheck:Leak
   match-leak-kinds: reachable
   fun:malloc
   fun:_ZN2os6mallocEm8MEMFLAGSRK15NativeCallStack
   fun:_ZN6AnyObjnwEm8MEMFLAGS
   fun:_ZN6ThreadC1Ev
   fun:_ZN11NamedThreadC1Ev
   fun:_ZN18ConcurrentGCThreadC1Ev
   fun:_ZN15G1ServiceThreadC1Ev
   fun:_ZN15G1CollectedHeap10initializeEv
   fun:_Z13universe_initv
   fun:_Z12init_globalsv
   fun:_ZN7Threads9create_vmEP14JavaVMInitArgsPb
   fun:JNI_CreateJavaVM
}

{
   <insert_a_suppression_name_here>
   Memcheck:Leak
   match-leak-kinds: reachable
   fun:malloc
   fun:_ZN2os6mallocEm8MEMFLAGSRK15NativeCallStack
   fun:_ZN6AnyObjnwEm8MEMFLAGS
   fun:_ZN6ThreadC1Ev
   fun:_ZN11NamedThreadC1Ev
   fun:_ZN18ConcurrentGCThreadC1Ev
   fun:_ZN22G1ConcurrentMarkThreadC1EP16G1ConcurrentMark
   fun:_ZN16G1ConcurrentMarkC1EP15G1CollectedHeapP21G1RegionToSpaceMapper
   fun:_ZN15G1CollectedHeap10initializeEv
   fun:_Z13universe_initv
   fun:_Z12init_globalsv
   fun:_ZN7Threads9create_vmEP14JavaVMInitArgsPb
}

{
   <insert_a_suppression_name_here>
   Memcheck:Leak
   match-leak-kinds: reachable
   fun:malloc
   fun:_ZN2os6mallocEm8MEMFLAGSRK15NativeCallStack
   fun:_ZN6AnyObjnwEm8MEMFLAGS
   fun:_ZN6ThreadC1Ev
   fun:_ZN11NamedThreadC1Ev
   fun:_ZN18ConcurrentGCThreadC1Ev
   fun:_ZN24G1ConcurrentRefineThreadC1EP18G1ConcurrentRefinej
   fun:_ZN24G1ConcurrentRefineThread6createEP18G1ConcurrentRefinej
   fun:_ZN31G1ConcurrentRefineThreadControl10initializeEP18G1ConcurrentRefinej
   fun:_ZN18G1ConcurrentRefine6createEP8G1PolicyPi
   fun:_ZN15G1CollectedHeap10initializeEv
   fun:_Z13universe_initv
}

{
   <insert_a_suppression_name_here>
   Memcheck:Leak
   match-leak-kinds: reachable
   fun:malloc
   fun:_ZN2os6mallocEm8MEMFLAGSRK15NativeCallStack
   fun:_ZN6AnyObjnwEm8MEMFLAGS
   fun:_ZN6ThreadC1Ev
   fun:_ZN11NamedThreadC1Ev
   fun:_ZN8VMThread6createEv
   fun:_ZN7Threads9create_vmEP14JavaVMInitArgsPb
   fun:JNI_CreateJavaVM
   fun:JavaMain
   fun:ThreadJavaMain
   fun:start_thread
   fun:clone
}

{
   <insert_a_suppression_name_here>
   Memcheck:Leak
   match-leak-kinds: reachable
   fun:malloc
   fun:_ZN2os6strdupEPKc8MEMFLAGS
   fun:_ZN10OopStorageC1EPKc8MEMFLAGS
   fun:_ZN10OopStorage6createEPKc8MEMFLAGS
   fun:_ZN13OopStorageSet11create_weakEPKc8MEMFLAGS
   fun:_Z16jni_handles_initv
   fun:_Z13init_globals2v
   fun:_ZN7Threads9create_vmEP14JavaVMInitArgsPb
   fun:JNI_CreateJavaVM
   fun:JavaMain
   fun:ThreadJavaMain
   fun:start_thread
}

{
   <insert_a_suppression_name_here>
   Memcheck:Leak
   match-leak-kinds: reachable
   fun:malloc
   fun:_ZN2os6strdupEPKc8MEMFLAGS
   fun:_ZN10OopStorageC1EPKc8MEMFLAGS
   fun:_ZN10OopStorage6createEPKc8MEMFLAGS
   fun:_ZN13OopStorageSet11create_weakEPKc8MEMFLAGS
   fun:_Z24universe_oopstorage_initv
   fun:_Z15vm_init_globalsv
   fun:_ZN7Threads9create_vmEP14JavaVMInitArgsPb
   fun:JNI_CreateJavaVM
   fun:JavaMain
   fun:ThreadJavaMain
   fun:start_thread
}

{
   <insert_a_suppression_name_here>
   Memcheck:Leak
   match-leak-kinds: reachable
   fun:malloc
   fun:_ZN2os6strdupEPKc8MEMFLAGS
   fun:_ZN10OopStorageC1EPKc8MEMFLAGS
   fun:_ZN10OopStorage6createEPKc8MEMFLAGS
   fun:_ZN13OopStorageSet11create_weakEPKc8MEMFLAGS
   fun:_ZN11JvmtiExport22initialize_oop_storageEv
   fun:_Z12init_globalsv
   fun:_ZN7Threads9create_vmEP14JavaVMInitArgsPb
   fun:JNI_CreateJavaVM
   fun:JavaMain
   fun:ThreadJavaMain
   fun:start_thread
}

{
   <insert_a_suppression_name_here>
   Memcheck:Leak
   match-leak-kinds: reachable
   fun:malloc
   fun:_ZN2os6strdupEPKc8MEMFLAGS
   fun:_ZN10OopStorageC1EPKc8MEMFLAGS
   fun:_ZN10OopStorage6createEPKc8MEMFLAGS
   fun:_ZN13OopStorageSet11create_weakEPKc8MEMFLAGS
   fun:_ZN11StringDedup5Table18initialize_storageEv
   fun:_ZN11StringDedup10initializeEv
   fun:_ZN13CollectedHeap15post_initializeEv
   fun:_ZN15G1CollectedHeap15post_initializeEv
   fun:_Z18universe_post_initv
   fun:_Z13init_globals2v
   fun:_ZN7Threads9create_vmEP14JavaVMInitArgsPb
}

{
   <insert_a_suppression_name_here>
   Memcheck:Leak
   match-leak-kinds: reachable
   fun:malloc
   fun:_ZN2os6strdupEPKc8MEMFLAGS
   fun:_ZN10OopStorageC1EPKc8MEMFLAGS
   fun:_ZN10OopStorage6createEPKc8MEMFLAGS
   fun:_ZN13OopStorageSet11create_weakEPKc8MEMFLAGS
   fun:_ZN11StringDedup9Processor18initialize_storageEv
   fun:_ZN11StringDedup10initializeEv
   fun:_ZN13CollectedHeap15post_initializeEv
   fun:_ZN15G1CollectedHeap15post_initializeEv
   fun:_Z18universe_post_initv
   fun:_Z13init_globals2v
   fun:_ZN7Threads9create_vmEP14JavaVMInitArgsPb
}

{
   <insert_a_suppression_name_here>
   Memcheck:Leak
   match-leak-kinds: reachable
   fun:malloc
   fun:_ZN2os6strdupEPKc8MEMFLAGS
   fun:_ZN10OopStorageC1EPKc8MEMFLAGS
   fun:_ZN10OopStorage6createEPKc8MEMFLAGS
   fun:_ZN13OopStorageSet11create_weakEPKc8MEMFLAGS
   fun:_ZN11StringTable12create_tableEv
   fun:_Z13universe_initv
   fun:_Z12init_globalsv
   fun:_ZN7Threads9create_vmEP14JavaVMInitArgsPb
   fun:JNI_CreateJavaVM
   fun:JavaMain
   fun:ThreadJavaMain
}

{
   <insert_a_suppression_name_here>
   Memcheck:Leak
   match-leak-kinds: reachable
   fun:malloc
   fun:_ZN2os6strdupEPKc8MEMFLAGS
   fun:_ZN10OopStorageC1EPKc8MEMFLAGS
   fun:_ZN10OopStorage6createEPKc8MEMFLAGS
   fun:_ZN13OopStorageSet11create_weakEPKc8MEMFLAGS
   fun:_ZN13ObjectMonitor10InitializeEv
   fun:_ZN7Threads9create_vmEP14JavaVMInitArgsPb
   fun:JNI_CreateJavaVM
   fun:JavaMain
   fun:ThreadJavaMain
   fun:start_thread
   fun:clone
}

{
   <insert_a_suppression_name_here>
   Memcheck:Leak
   match-leak-kinds: reachable
   fun:malloc
   fun:_ZN2os6strdupEPKc8MEMFLAGS
   fun:_ZN10OopStorageC1EPKc8MEMFLAGS
   fun:_ZN10OopStorage6createEPKc8MEMFLAGS
   fun:_ZN13OopStorageSet11create_weakEPKc8MEMFLAGS
   fun:_ZN13ObjectSampler18create_oop_storageEv
   fun:_ZN11JfrRecorder14on_create_vm_1Ev
   fun:_ZN3Jfr14on_create_vm_1Ev
   fun:_ZN7Threads9create_vmEP14JavaVMInitArgsPb
   fun:JNI_CreateJavaVM
   fun:JavaMain
   fun:ThreadJavaMain
}

{
   <insert_a_suppression_name_here>
   Memcheck:Leak
   match-leak-kinds: reachable
   fun:malloc
   fun:_ZN2os6strdupEPKc8MEMFLAGS
   fun:_ZN10OopStorageC1EPKc8MEMFLAGS
   fun:_ZN10OopStorage6createEPKc8MEMFLAGS
   fun:_ZN13OopStorageSet11create_weakEPKc8MEMFLAGS
   fun:_ZN19ResolvedMethodTable12create_tableEv
   fun:_Z13universe_initv
   fun:_Z12init_globalsv
   fun:_ZN7Threads9create_vmEP14JavaVMInitArgsPb
   fun:JNI_CreateJavaVM
   fun:JavaMain
   fun:ThreadJavaMain
}

{
   <insert_a_suppression_name_here>
   Memcheck:Leak
   match-leak-kinds: reachable
   fun:malloc
   fun:_ZN2os6strdupEPKc8MEMFLAGS
   fun:_ZN10OopStorageC1EPKc8MEMFLAGS
   fun:_ZN10OopStorage6createEPKc8MEMFLAGS
   fun:_ZN13OopStorageSet13create_strongEPKc8MEMFLAGS
   fun:_Z16jni_handles_initv
   fun:_Z13init_globals2v
   fun:_ZN7Threads9create_vmEP14JavaVMInitArgsPb
   fun:JNI_CreateJavaVM
   fun:JavaMain
   fun:ThreadJavaMain
   fun:start_thread
}

{
   <insert_a_suppression_name_here>
   Memcheck:Leak
   match-leak-kinds: reachable
   fun:malloc
   fun:_ZN2os6strdupEPKc8MEMFLAGS
   fun:_ZN10OopStorageC1EPKc8MEMFLAGS
   fun:_ZN10OopStorage6createEPKc8MEMFLAGS
   fun:_ZN13OopStorageSet13create_strongEPKc8MEMFLAGS
   fun:_Z24universe_oopstorage_initv
   fun:_Z15vm_init_globalsv
   fun:_ZN7Threads9create_vmEP14JavaVMInitArgsPb
   fun:JNI_CreateJavaVM
   fun:JavaMain
   fun:ThreadJavaMain
   fun:start_thread
}

{
   <insert_a_suppression_name_here>
   Memcheck:Leak
   match-leak-kinds: reachable
   fun:malloc
   fun:_ZN2os6strdupEPKc8MEMFLAGS
   fun:_ZN10OopStorageC1EPKc8MEMFLAGS
   fun:_ZN10OopStorage6createEPKc8MEMFLAGS
   fun:_ZN13OopStorageSet13create_strongEPKc8MEMFLAGS
   fun:_ZN11JvmtiExport22initialize_oop_storageEv
   fun:_Z12init_globalsv
   fun:_ZN7Threads9create_vmEP14JavaVMInitArgsPb
   fun:JNI_CreateJavaVM
   fun:JavaMain
   fun:ThreadJavaMain
   fun:start_thread
}

{
   <insert_a_suppression_name_here>
   Memcheck:Leak
   match-leak-kinds: reachable
   fun:malloc
   fun:_ZN2os6strdupEPKc8MEMFLAGS
   fun:_ZN10OopStorageC1EPKc8MEMFLAGS
   fun:_ZN10OopStorage6createEPKc8MEMFLAGS
   fun:_ZN13OopStorageSet13create_strongEPKc8MEMFLAGS
   fun:_ZN13ThreadService4initEv
   fun:_Z15management_initv
   fun:_Z12init_globalsv
   fun:_ZN7Threads9create_vmEP14JavaVMInitArgsPb
   fun:JNI_CreateJavaVM
   fun:JavaMain
   fun:ThreadJavaMain
}

{
   <insert_a_suppression_name_here>
   Memcheck:Leak
   match-leak-kinds: reachable
   fun:malloc
   fun:_ZN2os6strdupEPKc8MEMFLAGS
   fun:_ZN10OopStorageC1EPKc8MEMFLAGS
   fun:_ZN10OopStorage6createEPKc8MEMFLAGS
   fun:_ZN13OopStorageSet13create_strongEPKc8MEMFLAGS
   fun:_ZN7Threads9create_vmEP14JavaVMInitArgsPb
   fun:JNI_CreateJavaVM
   fun:JavaMain
   fun:ThreadJavaMain
   fun:start_thread
   fun:clone
}

{
   <insert_a_suppression_name_here>
   Memcheck:Leak
   match-leak-kinds: reachable
   fun:malloc
   fun:_ZN2os6strdupEPKc8MEMFLAGS
   fun:_ZN10VM_Version22get_processor_featuresEv
   fun:_ZN10VM_Version10initializeEv
   fun:_Z15VM_Version_initv
   fun:_Z12init_globalsv
   fun:_ZN7Threads9create_vmEP14JavaVMInitArgsPb
   fun:JNI_CreateJavaVM
   fun:JavaMain
   fun:ThreadJavaMain
   fun:start_thread
   fun:clone
}

{
   <insert_a_suppression_name_here>
   Memcheck:Leak
   match-leak-kinds: reachable
   fun:malloc
   fun:_ZN2os6strdupEPKc8MEMFLAGS
   fun:_ZN5MutexC1ENS_4RankEPKcb
   fun:_Z10mutex_initv
   fun:_Z15vm_init_globalsv
   fun:_ZN7Threads9create_vmEP14JavaVMInitArgsPb
   fun:JNI_CreateJavaVM
   fun:JavaMain
   fun:ThreadJavaMain
   fun:start_thread
   fun:clone
}

{
   <insert_a_suppression_name_here>
   Memcheck:Leak
   match-leak-kinds: reachable
   fun:malloc
   fun:_ZN2os6strdupEPKc8MEMFLAGS
   fun:_ZN5MutexC1ENS_4RankEPKcb
   fun:_ZN10DictionaryC1EP15ClassLoaderDatam
   fun:_ZN15ClassLoaderData17create_dictionaryEv
   fun:_ZN15ClassLoaderData27init_null_class_loader_dataEv
   fun:_Z13universe_initv
   fun:_Z12init_globalsv
   fun:_ZN7Threads9create_vmEP14JavaVMInitArgsPb
   fun:JNI_CreateJavaVM
   fun:JavaMain
   fun:ThreadJavaMain
}

{
   <insert_a_suppression_name_here>
   Memcheck:Leak
   match-leak-kinds: reachable
   fun:malloc
   fun:_ZN2os6strdupEPKc8MEMFLAGS
   fun:_ZN5MutexC1ENS_4RankEPKcb
   fun:_ZN10DictionaryC1EP15ClassLoaderDatam
   fun:_ZN15ClassLoaderData17create_dictionaryEv
   fun:_ZN15ClassLoaderDataC1E6Handleb
   fun:_ZN20ClassLoaderDataGraph12add_to_graphE6Handleb
   fun:_ZN20ClassLoaderDataGraph3addE6Handleb
   fun:_ZN7Modules23define_archived_modulesE6HandleS0_P10JavaThread
   fun:JVM_DefineArchivedModules
   obj:*
   obj:*
}

{
   <insert_a_suppression_name_here>
   Memcheck:Leak
   match-leak-kinds: reachable
   fun:malloc
   fun:_ZN2os6strdupEPKc8MEMFLAGS
   fun:_ZN5MutexC1ENS_4RankEPKcb
   fun:_ZN10OopStorageC1EPKc8MEMFLAGS
   fun:_ZN10OopStorage6createEPKc8MEMFLAGS
   fun:_ZN13OopStorageSet11create_weakEPKc8MEMFLAGS
   fun:_Z16jni_handles_initv
   fun:_Z13init_globals2v
   fun:_ZN7Threads9create_vmEP14JavaVMInitArgsPb
   fun:JNI_CreateJavaVM
   fun:JavaMain
   fun:ThreadJavaMain
}

{
   <insert_a_suppression_name_here>
   Memcheck:Leak
   match-leak-kinds: reachable
   fun:malloc
   fun:_ZN2os6strdupEPKc8MEMFLAGS
   fun:_ZN5MutexC1ENS_4RankEPKcb
   fun:_ZN10OopStorageC1EPKc8MEMFLAGS
   fun:_ZN10OopStorage6createEPKc8MEMFLAGS
   fun:_ZN13OopStorageSet11create_weakEPKc8MEMFLAGS
   fun:_Z24universe_oopstorage_initv
   fun:_Z15vm_init_globalsv
   fun:_ZN7Threads9create_vmEP14JavaVMInitArgsPb
   fun:JNI_CreateJavaVM
   fun:JavaMain
   fun:ThreadJavaMain
}

{
   <insert_a_suppression_name_here>
   Memcheck:Leak
   match-leak-kinds: reachable
   fun:malloc
   fun:_ZN2os6strdupEPKc8MEMFLAGS
   fun:_ZN5MutexC1ENS_4RankEPKcb
   fun:_ZN10OopStorageC1EPKc8MEMFLAGS
   fun:_ZN10OopStorage6createEPKc8MEMFLAGS
   fun:_ZN13OopStorageSet11create_weakEPKc8MEMFLAGS
   fun:_ZN11JvmtiExport22initialize_oop_storageEv
   fun:_Z12init_globalsv
   fun:_ZN7Threads9create_vmEP14JavaVMInitArgsPb
   fun:JNI_CreateJavaVM
   fun:JavaMain
   fun:ThreadJavaMain
}

{
   <insert_a_suppression_name_here>
   Memcheck:Leak
   match-leak-kinds: reachable
   fun:malloc
   fun:_ZN2os6strdupEPKc8MEMFLAGS
   fun:_ZN5MutexC1ENS_4RankEPKcb
   fun:_ZN10OopStorageC1EPKc8MEMFLAGS
   fun:_ZN10OopStorage6createEPKc8MEMFLAGS
   fun:_ZN13OopStorageSet11create_weakEPKc8MEMFLAGS
   fun:_ZN11StringDedup5Table18initialize_storageEv
   fun:_ZN11StringDedup10initializeEv
   fun:_ZN13CollectedHeap15post_initializeEv
   fun:_ZN15G1CollectedHeap15post_initializeEv
   fun:_Z18universe_post_initv
   fun:_Z13init_globals2v
}

{
   <insert_a_suppression_name_here>
   Memcheck:Leak
   match-leak-kinds: reachable
   fun:malloc
   fun:_ZN2os6strdupEPKc8MEMFLAGS
   fun:_ZN5MutexC1ENS_4RankEPKcb
   fun:_ZN10OopStorageC1EPKc8MEMFLAGS
   fun:_ZN10OopStorage6createEPKc8MEMFLAGS
   fun:_ZN13OopStorageSet11create_weakEPKc8MEMFLAGS
   fun:_ZN11StringDedup9Processor18initialize_storageEv
   fun:_ZN11StringDedup10initializeEv
   fun:_ZN13CollectedHeap15post_initializeEv
   fun:_ZN15G1CollectedHeap15post_initializeEv
   fun:_Z18universe_post_initv
   fun:_Z13init_globals2v
}

{
   <insert_a_suppression_name_here>
   Memcheck:Leak
   match-leak-kinds: reachable
   fun:malloc
   fun:_ZN2os6strdupEPKc8MEMFLAGS
   fun:_ZN5MutexC1ENS_4RankEPKcb
   fun:_ZN10OopStorageC1EPKc8MEMFLAGS
   fun:_ZN10OopStorage6createEPKc8MEMFLAGS
   fun:_ZN13OopStorageSet11create_weakEPKc8MEMFLAGS
   fun:_ZN11StringTable12create_tableEv
   fun:_Z13universe_initv
   fun:_Z12init_globalsv
   fun:_ZN7Threads9create_vmEP14JavaVMInitArgsPb
   fun:JNI_CreateJavaVM
   fun:JavaMain
}

{
   <insert_a_suppression_name_here>
   Memcheck:Leak
   match-leak-kinds: reachable
   fun:malloc
   fun:_ZN2os6strdupEPKc8MEMFLAGS
   fun:_ZN5MutexC1ENS_4RankEPKcb
   fun:_ZN10OopStorageC1EPKc8MEMFLAGS
   fun:_ZN10OopStorage6createEPKc8MEMFLAGS
   fun:_ZN13OopStorageSet11create_weakEPKc8MEMFLAGS
   fun:_ZN13ObjectMonitor10InitializeEv
   fun:_ZN7Threads9create_vmEP14JavaVMInitArgsPb
   fun:JNI_CreateJavaVM
   fun:JavaMain
   fun:ThreadJavaMain
   fun:start_thread
}

{
   <insert_a_suppression_name_here>
   Memcheck:Leak
   match-leak-kinds: reachable
   fun:malloc
   fun:_ZN2os6strdupEPKc8MEMFLAGS
   fun:_ZN5MutexC1ENS_4RankEPKcb
   fun:_ZN10OopStorageC1EPKc8MEMFLAGS
   fun:_ZN10OopStorage6createEPKc8MEMFLAGS
   fun:_ZN13OopStorageSet11create_weakEPKc8MEMFLAGS
   fun:_ZN13ObjectSampler18create_oop_storageEv
   fun:_ZN11JfrRecorder14on_create_vm_1Ev
   fun:_ZN3Jfr14on_create_vm_1Ev
   fun:_ZN7Threads9create_vmEP14JavaVMInitArgsPb
   fun:JNI_CreateJavaVM
   fun:JavaMain
}

{
   <insert_a_suppression_name_here>
   Memcheck:Leak
   match-leak-kinds: reachable
   fun:malloc
   fun:_ZN2os6strdupEPKc8MEMFLAGS
   fun:_ZN5MutexC1ENS_4RankEPKcb
   fun:_ZN10OopStorageC1EPKc8MEMFLAGS
   fun:_ZN10OopStorage6createEPKc8MEMFLAGS
   fun:_ZN13OopStorageSet11create_weakEPKc8MEMFLAGS
   fun:_ZN19ResolvedMethodTable12create_tableEv
   fun:_Z13universe_initv
   fun:_Z12init_globalsv
   fun:_ZN7Threads9create_vmEP14JavaVMInitArgsPb
   fun:JNI_CreateJavaVM
   fun:JavaMain
}

{
   <insert_a_suppression_name_here>
   Memcheck:Leak
   match-leak-kinds: reachable
   fun:malloc
   fun:_ZN2os6strdupEPKc8MEMFLAGS
   fun:_ZN5MutexC1ENS_4RankEPKcb
   fun:_ZN10OopStorageC1EPKc8MEMFLAGS
   fun:_ZN10OopStorage6createEPKc8MEMFLAGS
   fun:_ZN13OopStorageSet13create_strongEPKc8MEMFLAGS
   fun:_Z16jni_handles_initv
   fun:_Z13init_globals2v
   fun:_ZN7Threads9create_vmEP14JavaVMInitArgsPb
   fun:JNI_CreateJavaVM
   fun:JavaMain
   fun:ThreadJavaMain
}

{
   <insert_a_suppression_name_here>
   Memcheck:Leak
   match-leak-kinds: reachable
   fun:malloc
   fun:_ZN2os6strdupEPKc8MEMFLAGS
   fun:_ZN5MutexC1ENS_4RankEPKcb
   fun:_ZN10OopStorageC1EPKc8MEMFLAGS
   fun:_ZN10OopStorage6createEPKc8MEMFLAGS
   fun:_ZN13OopStorageSet13create_strongEPKc8MEMFLAGS
   fun:_Z24universe_oopstorage_initv
   fun:_Z15vm_init_globalsv
   fun:_ZN7Threads9create_vmEP14JavaVMInitArgsPb
   fun:JNI_CreateJavaVM
   fun:JavaMain
   fun:ThreadJavaMain
}

{
   <insert_a_suppression_name_here>
   Memcheck:Leak
   match-leak-kinds: reachable
   fun:malloc
   fun:_ZN2os6strdupEPKc8MEMFLAGS
   fun:_ZN5MutexC1ENS_4RankEPKcb
   fun:_ZN10OopStorageC1EPKc8MEMFLAGS
   fun:_ZN10OopStorage6createEPKc8MEMFLAGS
   fun:_ZN13OopStorageSet13create_strongEPKc8MEMFLAGS
   fun:_ZN11JvmtiExport22initialize_oop_storageEv
   fun:_Z12init_globalsv
   fun:_ZN7Threads9create_vmEP14JavaVMInitArgsPb
   fun:JNI_CreateJavaVM
   fun:JavaMain
   fun:ThreadJavaMain
}

{
   <insert_a_suppression_name_here>
   Memcheck:Leak
   match-leak-kinds: reachable
   fun:malloc
   fun:_ZN2os6strdupEPKc8MEMFLAGS
   fun:_ZN5MutexC1ENS_4RankEPKcb
   fun:_ZN10OopStorageC1EPKc8MEMFLAGS
   fun:_ZN10OopStorage6createEPKc8MEMFLAGS
   fun:_ZN13OopStorageSet13create_strongEPKc8MEMFLAGS
   fun:_ZN13ThreadService4initEv
   fun:_Z15management_initv
   fun:_Z12init_globalsv
   fun:_ZN7Threads9create_vmEP14JavaVMInitArgsPb
   fun:JNI_CreateJavaVM
   fun:JavaMain
}

{
   <insert_a_suppression_name_here>
   Memcheck:Leak
   match-leak-kinds: reachable
   fun:malloc
   fun:_ZN2os6strdupEPKc8MEMFLAGS
   fun:_ZN5MutexC1ENS_4RankEPKcb
   fun:_ZN10OopStorageC1EPKc8MEMFLAGS
   fun:_ZN10OopStorage6createEPKc8MEMFLAGS
   fun:_ZN13OopStorageSet13create_strongEPKc8MEMFLAGS
   fun:_ZN7Threads9create_vmEP14JavaVMInitArgsPb
   fun:JNI_CreateJavaVM
   fun:JavaMain
   fun:ThreadJavaMain
   fun:start_thread
   fun:clone
}

{
   <insert_a_suppression_name_here>
   Memcheck:Leak
   match-leak-kinds: reachable
   fun:malloc
   fun:_ZN2os6strdupEPKc8MEMFLAGS
   fun:_ZN5MutexC1ENS_4RankEPKcb
   fun:_ZN11StringTable12create_tableEv
   fun:_Z13universe_initv
   fun:_Z12init_globalsv
   fun:_ZN7Threads9create_vmEP14JavaVMInitArgsPb
   fun:JNI_CreateJavaVM
   fun:JavaMain
   fun:ThreadJavaMain
   fun:start_thread
   fun:clone
}

{
   <insert_a_suppression_name_here>
   Memcheck:Leak
   match-leak-kinds: reachable
   fun:malloc
   fun:_ZN2os6strdupEPKc8MEMFLAGS
   fun:_ZN5MutexC1ENS_4RankEPKcb
   fun:_ZN11SymbolTable12create_tableEv
   fun:_Z13universe_initv
   fun:_Z12init_globalsv
   fun:_ZN7Threads9create_vmEP14JavaVMInitArgsPb
   fun:JNI_CreateJavaVM
   fun:JavaMain
   fun:ThreadJavaMain
   fun:start_thread
   fun:clone
}

{
   <insert_a_suppression_name_here>
   Memcheck:Leak
   match-leak-kinds: reachable
   fun:malloc
   fun:_ZN2os6strdupEPKc8MEMFLAGS
   fun:_ZN5MutexC1ENS_4RankEPKcb
   fun:_ZN13CollectedHeapC1Ev
   fun:_ZN15G1CollectedHeapC1Ev
   fun:_ZN11G1Arguments11create_heapEv
   fun:_Z13universe_initv
   fun:_Z12init_globalsv
   fun:_ZN7Threads9create_vmEP14JavaVMInitArgsPb
   fun:JNI_CreateJavaVM
   fun:JavaMain
   fun:ThreadJavaMain
}

{
   <insert_a_suppression_name_here>
   Memcheck:Leak
   match-leak-kinds: reachable
   fun:malloc
   fun:_ZN2os6strdupEPKc8MEMFLAGS
   fun:_ZN5MutexC1ENS_4RankEPKcb
   fun:_ZN13G1CodeRootSetC1Ev
   fun:_ZN16HeapRegionRemSetC1EP10HeapRegionP22G1CardSetConfiguration
   fun:_ZN10HeapRegionC1EjP18G1BlockOffsetTable9MemRegionP22G1CardSetConfiguration
   fun:_ZN15G1CollectedHeap15new_heap_regionEj9MemRegion
   fun:_ZN15G1CollectedHeap10initializeEv
   fun:_Z13universe_initv
   fun:_Z12init_globalsv
   fun:_ZN7Threads9create_vmEP14JavaVMInitArgsPb
   fun:JNI_CreateJavaVM
}

{
   <insert_a_suppression_name_here>
   Memcheck:Leak
   match-leak-kinds: reachable
   fun:malloc
   fun:_ZN2os6strdupEPKc8MEMFLAGS
   fun:_ZN5MutexC1ENS_4RankEPKcb
   fun:_ZN13G1CodeRootSetC1Ev
   fun:_ZN16HeapRegionRemSetC1EP10HeapRegionP22G1CardSetConfiguration
   fun:_ZN10HeapRegionC1EjP18G1BlockOffsetTable9MemRegionP22G1CardSetConfiguration
   fun:_ZN15G1CollectedHeap15new_heap_regionEj9MemRegion
   fun:_ZN17HeapRegionManager12expand_exactEjjP13WorkerThreads
   fun:_ZN17HeapRegionManager27allocate_containing_regionsE9MemRegionPmP13WorkerThreads
   fun:_ZN15G1CollectedHeap21alloc_archive_regionsE9MemRegion
   fun:_ZN11FileMapInfo20map_heap_region_implEv
   fun:_ZN11FileMapInfo23map_or_load_heap_regionEv
}

{
   <insert_a_suppression_name_here>
   Memcheck:Leak
   match-leak-kinds: reachable
   fun:malloc
   fun:_ZN2os6strdupEPKc8MEMFLAGS
   fun:_ZN5MutexC1ENS_4RankEPKcb
   fun:_ZN13G1CodeRootSetC1Ev
   fun:_ZN16HeapRegionRemSetC1EP10HeapRegionP22G1CardSetConfiguration
   fun:_ZN10HeapRegionC1EjP18G1BlockOffsetTable9MemRegionP22G1CardSetConfiguration
   fun:_ZN15G1CollectedHeap15new_heap_regionEj9MemRegion
   fun:_ZN17HeapRegionManager6expandEjjP13WorkerThreads
   fun:_ZN17HeapRegionManager9expand_byEjP13WorkerThreads
   fun:_ZN15G1CollectedHeap6expandEmP13WorkerThreadsPd
   fun:_ZN15G1CollectedHeap10initializeEv
   fun:_Z13universe_initv
}

{
   <insert_a_suppression_name_here>
   Memcheck:Leak
   match-leak-kinds: reachable
   fun:malloc
   fun:_ZN2os6strdupEPKc8MEMFLAGS
   fun:_ZN5MutexC1ENS_4RankEPKcb
   fun:_ZN13GCLogPrecious10initializeEv
   fun:_Z13universe_initv
   fun:_Z12init_globalsv
   fun:_ZN7Threads9create_vmEP14JavaVMInitArgsPb
   fun:JNI_CreateJavaVM
   fun:JavaMain
   fun:ThreadJavaMain
   fun:start_thread
   fun:clone
}

{
   <insert_a_suppression_name_here>
   Memcheck:Leak
   match-leak-kinds: reachable
   fun:malloc
   fun:_ZN2os6strdupEPKc8MEMFLAGS
   fun:_ZN5MutexC1ENS_4RankEPKcb
   fun:_ZN14CompilationLog4initEv
   fun:_Z18compileBroker_initv
   fun:_Z13init_globals2v
   fun:_ZN7Threads9create_vmEP14JavaVMInitArgsPb
   fun:JNI_CreateJavaVM
   fun:JavaMain
   fun:ThreadJavaMain
   fun:start_thread
   fun:clone
}

{
   <insert_a_suppression_name_here>
   Memcheck:Leak
   match-leak-kinds: reachable
   fun:malloc
   fun:_ZN2os6strdupEPKc8MEMFLAGS
   fun:_ZN5MutexC1ENS_4RankEPKcb
   fun:_ZN14HandshakeStateC1EP10JavaThread
   fun:_ZN10JavaThreadC1EPFvPS_S0_Em
   fun:JVM_StartThread
   obj:*
   obj:*
   obj:*
   obj:*
   obj:*
   obj:*
}

{
   <insert_a_suppression_name_here>
   Memcheck:Leak
   match-leak-kinds: reachable
   fun:malloc
   fun:_ZN2os6strdupEPKc8MEMFLAGS
   fun:_ZN5MutexC1ENS_4RankEPKcb
   fun:_ZN14HandshakeStateC1EP10JavaThread
   fun:_ZN10JavaThreadC1EPFvPS_S0_Em
   fun:_ZN13ServiceThread10initializeEv
   fun:_ZN7Threads9create_vmEP14JavaVMInitArgsPb
   fun:JNI_CreateJavaVM
   fun:JavaMain
   fun:ThreadJavaMain
   fun:start_thread
   fun:clone
}

{
   <insert_a_suppression_name_here>
   Memcheck:Leak
   match-leak-kinds: reachable
   fun:malloc
   fun:_ZN2os6strdupEPKc8MEMFLAGS
   fun:_ZN5MutexC1ENS_4RankEPKcb
   fun:_ZN14HandshakeStateC1EP10JavaThread
   fun:_ZN10JavaThreadC1EPFvPS_S0_Em
   fun:_ZN18NotificationThread10initializeEv
   fun:_ZN10Management10initializeEP10JavaThread
   fun:_ZN7Threads9create_vmEP14JavaVMInitArgsPb
   fun:JNI_CreateJavaVM
   fun:JavaMain
   fun:ThreadJavaMain
   fun:start_thread
}

{
   <insert_a_suppression_name_here>
   Memcheck:Leak
   match-leak-kinds: reachable
   fun:malloc
   fun:_ZN2os6strdupEPKc8MEMFLAGS
   fun:_ZN5MutexC1ENS_4RankEPKcb
   fun:_ZN14HandshakeStateC1EP10JavaThread
   fun:_ZN10JavaThreadC1EPFvPS_S0_Em
   fun:_ZN22MonitorDeflationThread10initializeEv
   fun:_ZN7Threads9create_vmEP14JavaVMInitArgsPb
   fun:JNI_CreateJavaVM
   fun:JavaMain
   fun:ThreadJavaMain
   fun:start_thread
   fun:clone
}

{
   <insert_a_suppression_name_here>
   Memcheck:Leak
   match-leak-kinds: reachable
   fun:malloc
   fun:_ZN2os6strdupEPKc8MEMFLAGS
   fun:_ZN5MutexC1ENS_4RankEPKcb
   fun:_ZN14TaskTerminatorC1EjP17TaskQueueSetSuper
   fun:_ZN16G1ConcurrentMarkC1EP15G1CollectedHeapP21G1RegionToSpaceMapper
   fun:_ZN15G1CollectedHeap10initializeEv
   fun:_Z13universe_initv
   fun:_Z12init_globalsv
   fun:_ZN7Threads9create_vmEP14JavaVMInitArgsPb
   fun:JNI_CreateJavaVM
   fun:JavaMain
   fun:ThreadJavaMain
}

{
   <insert_a_suppression_name_here>
   Memcheck:Leak
   match-leak-kinds: reachable
   fun:malloc
   fun:_ZN2os6strdupEPKc8MEMFLAGS
   fun:_ZN5MutexC1ENS_4RankEPKcb
   fun:_ZN15ClassLoaderData27init_null_class_loader_dataEv
   fun:_Z13universe_initv
   fun:_Z12init_globalsv
   fun:_ZN7Threads9create_vmEP14JavaVMInitArgsPb
   fun:JNI_CreateJavaVM
   fun:JavaMain
   fun:ThreadJavaMain
   fun:start_thread
   fun:clone
}

{
   <insert_a_suppression_name_here>
   Memcheck:Leak
   match-leak-kinds: reachable
   fun:malloc
   fun:_ZN2os6strdupEPKc8MEMFLAGS
   fun:_ZN5MutexC1ENS_4RankEPKcb
   fun:_ZN15ClassLoaderDataC1E6Handleb
   fun:_ZN20ClassLoaderDataGraph12add_to_graphE6Handleb
   fun:_ZN20ClassLoaderDataGraph3addE6Handleb
   fun:_ZN16SystemDictionary19resolve_from_streamEP15ClassFileStreamP6Symbol6HandleRK13ClassLoadInfoP10JavaThread
   fun:_ZL23jvm_lookup_define_classP7_jclassPKcPKaiP8_jobjecthiS6_P10JavaThread
   fun:JVM_LookupDefineClass
   fun:Java_java_lang_ClassLoader_defineClass0
   obj:*
   obj:*
}

{
   <insert_a_suppression_name_here>
   Memcheck:Leak
   match-leak-kinds: reachable
   fun:malloc
   fun:_ZN2os6strdupEPKc8MEMFLAGS
   fun:_ZN5MutexC1ENS_4RankEPKcb
   fun:_ZN15ClassLoaderDataC1E6Handleb
   fun:_ZN20ClassLoaderDataGraph12add_to_graphE6Handleb
   fun:_ZN20ClassLoaderDataGraph3addE6Handleb
   fun:_ZN7Modules23define_archived_modulesE6HandleS0_P10JavaThread
   fun:JVM_DefineArchivedModules
   obj:*
   obj:*
   obj:*
   obj:*
}

{
   <insert_a_suppression_name_here>
   Memcheck:Leak
   match-leak-kinds: reachable
   fun:malloc
   fun:_ZN2os6strdupEPKc8MEMFLAGS
   fun:_ZN5MutexC1ENS_4RankEPKcb
   fun:_ZN15G1ServiceThreadC1Ev
   fun:_ZN15G1CollectedHeap10initializeEv
   fun:_Z13universe_initv
   fun:_Z12init_globalsv
   fun:_ZN7Threads9create_vmEP14JavaVMInitArgsPb
   fun:JNI_CreateJavaVM
   fun:JavaMain
   fun:ThreadJavaMain
   fun:start_thread
}

{
   <insert_a_suppression_name_here>
   Memcheck:Leak
   match-leak-kinds: reachable
   fun:malloc
   fun:_ZN2os6strdupEPKc8MEMFLAGS
   fun:_ZN5MutexC1ENS_4RankEPKcb
   fun:_ZN15GCMemoryManagerC1EPKc
   fun:_ZN19G1MonitoringSupportC1EP15G1CollectedHeap
   fun:_ZN15G1CollectedHeap10initializeEv
   fun:_Z13universe_initv
   fun:_Z12init_globalsv
   fun:_ZN7Threads9create_vmEP14JavaVMInitArgsPb
   fun:JNI_CreateJavaVM
   fun:JavaMain
   fun:ThreadJavaMain
}

{
   <insert_a_suppression_name_here>
   Memcheck:Leak
   match-leak-kinds: reachable
   fun:malloc
   fun:_ZN2os6strdupEPKc8MEMFLAGS
   fun:_ZN5MutexC1ENS_4RankEPKcb
   fun:_ZN16FinalizerService4initEv
   fun:_Z12init_globalsv
   fun:_ZN7Threads9create_vmEP14JavaVMInitArgsPb
   fun:JNI_CreateJavaVM
   fun:JavaMain
   fun:ThreadJavaMain
   fun:start_thread
   fun:clone
}

{
   <insert_a_suppression_name_here>
   Memcheck:Leak
   match-leak-kinds: reachable
   fun:malloc
   fun:_ZN2os6strdupEPKc8MEMFLAGS
   fun:_ZN5MutexC1ENS_4RankEPKcb
   fun:_ZN19ResolvedMethodTable12create_tableEv
   fun:_Z13universe_initv
   fun:_Z12init_globalsv
   fun:_ZN7Threads9create_vmEP14JavaVMInitArgsPb
   fun:JNI_CreateJavaVM
   fun:JavaMain
   fun:ThreadJavaMain
   fun:start_thread
   fun:clone
}

{
   <insert_a_suppression_name_here>
   Memcheck:Leak
   match-leak-kinds: reachable
   fun:malloc
   fun:_ZN2os6strdupEPKc8MEMFLAGS
   fun:_ZN5MutexC1ENS_4RankEPKcb
   fun:_ZN24G1ConcurrentRefineThreadC1EP18G1ConcurrentRefinej
   fun:_ZN24G1ConcurrentRefineThread6createEP18G1ConcurrentRefinej
   fun:_ZN31G1ConcurrentRefineThreadControl10initializeEP18G1ConcurrentRefinej
   fun:_ZN18G1ConcurrentRefine6createEP8G1PolicyPi
   fun:_ZN15G1CollectedHeap10initializeEv
   fun:_Z13universe_initv
   fun:_Z12init_globalsv
   fun:_ZN7Threads9create_vmEP14JavaVMInitArgsPb
   fun:JNI_CreateJavaVM
}

{
   <insert_a_suppression_name_here>
   Memcheck:Leak
   match-leak-kinds: reachable
   fun:malloc
   fun:_ZN2os6strdupEPKc8MEMFLAGS
   fun:_ZN5MutexC1ENS_4RankEPKcb
   fun:_ZN24WorkerThreadsBarrierSyncC1Ev
   fun:_ZN16G1ConcurrentMarkC1EP15G1CollectedHeapP21G1RegionToSpaceMapper
   fun:_ZN15G1CollectedHeap10initializeEv
   fun:_Z13universe_initv
   fun:_Z12init_globalsv
   fun:_ZN7Threads9create_vmEP14JavaVMInitArgsPb
   fun:JNI_CreateJavaVM
   fun:JavaMain
   fun:ThreadJavaMain
}

{
   <insert_a_suppression_name_here>
   Memcheck:Leak
   match-leak-kinds: reachable
   fun:malloc
   fun:_ZN2os6strdupEPKc8MEMFLAGS
   fun:_ZN5MutexC1ENS_4RankEPKcb
   fun:_ZN6Events4initEv.part.0
   fun:_Z15vm_init_globalsv
   fun:_ZN7Threads9create_vmEP14JavaVMInitArgsPb
   fun:JNI_CreateJavaVM
   fun:JavaMain
   fun:ThreadJavaMain
   fun:start_thread
   fun:clone
}

{
   <insert_a_suppression_name_here>
   Memcheck:Leak
   match-leak-kinds: reachable
   fun:malloc
   fun:_ZN2os6strdupEPKc8MEMFLAGS
   fun:_ZN5MutexC1ENS_4RankEPKcb
   fun:_ZN8OSThread13pd_initializeEv
   fun:_ZN2os13create_threadEP6ThreadNS_10ThreadTypeEm
   fun:JVM_StartThread
   obj:*
   obj:*
   obj:*
   obj:*
   obj:*
   obj:*
}

{
   <insert_a_suppression_name_here>
   Memcheck:Leak
   match-leak-kinds: reachable
   fun:malloc
   fun:_ZN2os6strdupEPKc8MEMFLAGS
   fun:_ZN5MutexC1ENS_4RankEPKcb
   fun:_ZN8OSThread13pd_initializeEv
   fun:_ZN2os13create_threadEP6ThreadNS_10ThreadTypeEm
   fun:_ZN13ServiceThread10initializeEv
   fun:_ZN7Threads9create_vmEP14JavaVMInitArgsPb
   fun:JNI_CreateJavaVM
   fun:JavaMain
   fun:ThreadJavaMain
   fun:start_thread
   fun:clone
}

{
   <insert_a_suppression_name_here>
   Memcheck:Leak
   match-leak-kinds: reachable
   fun:malloc
   fun:_ZN2os6strdupEPKc8MEMFLAGS
   fun:_ZN5MutexC1ENS_4RankEPKcb
   fun:_ZN8OSThread13pd_initializeEv
   fun:_ZN2os13create_threadEP6ThreadNS_10ThreadTypeEm
   fun:_ZN13WorkerThreads13create_workerEj
   fun:_ZN13WorkerThreads18initialize_workersEv
   fun:_ZN15G1CollectedHeap10initializeEv
   fun:_Z13universe_initv
   fun:_Z12init_globalsv
   fun:_ZN7Threads9create_vmEP14JavaVMInitArgsPb
   fun:JNI_CreateJavaVM
}

{
   <insert_a_suppression_name_here>
   Memcheck:Leak
   match-leak-kinds: reachable
   fun:malloc
   fun:_ZN2os6strdupEPKc8MEMFLAGS
   fun:_ZN5MutexC1ENS_4RankEPKcb
   fun:_ZN8OSThread13pd_initializeEv
   fun:_ZN2os13create_threadEP6ThreadNS_10ThreadTypeEm
   fun:_ZN13WorkerThreads13create_workerEj
   fun:_ZN13WorkerThreads18initialize_workersEv
   fun:_ZN16G1ConcurrentMarkC1EP15G1CollectedHeapP21G1RegionToSpaceMapper
   fun:_ZN15G1CollectedHeap10initializeEv
   fun:_Z13universe_initv
   fun:_Z12init_globalsv
   fun:_ZN7Threads9create_vmEP14JavaVMInitArgsPb
}

{
   <insert_a_suppression_name_here>
   Memcheck:Leak
   match-leak-kinds: reachable
   fun:malloc
   fun:_ZN2os6strdupEPKc8MEMFLAGS
   fun:_ZN5MutexC1ENS_4RankEPKcb
   fun:_ZN8OSThread13pd_initializeEv
   fun:_ZN2os13create_threadEP6ThreadNS_10ThreadTypeEm
   fun:_ZN13WorkerThreads13create_workerEj
   fun:_ZN13WorkerThreads18set_active_workersEj
   fun:_ZN16G1YoungCollector7collectEv
   fun:_ZN15G1CollectedHeap39do_collection_pause_at_safepoint_helperEv
   fun:_ZN15G1CollectedHeap32do_collection_pause_at_safepointEv
   fun:_ZN25VM_G1CollectForAllocation4doitEv
   fun:_ZN12VM_Operation8evaluateEv
}

{
   <insert_a_suppression_name_here>
   Memcheck:Leak
   match-leak-kinds: reachable
   fun:malloc
   fun:_ZN2os6strdupEPKc8MEMFLAGS
   fun:_ZN5MutexC1ENS_4RankEPKcb
   fun:_ZN8OSThread13pd_initializeEv
   fun:_ZN2os13create_threadEP6ThreadNS_10ThreadTypeEm
   fun:_ZN18ConcurrentGCThread16create_and_startE14ThreadPriority
   fun:_ZN15G1CollectedHeap10initializeEv
   fun:_Z13universe_initv
   fun:_Z12init_globalsv
   fun:_ZN7Threads9create_vmEP14JavaVMInitArgsPb
   fun:JNI_CreateJavaVM
   fun:JavaMain
}

{
   <insert_a_suppression_name_here>
   Memcheck:Leak
   match-leak-kinds: reachable
   fun:malloc
   fun:_ZN2os6strdupEPKc8MEMFLAGS
   fun:_ZN5MutexC1ENS_4RankEPKcb
   fun:_ZN8OSThread13pd_initializeEv
   fun:_ZN2os13create_threadEP6ThreadNS_10ThreadTypeEm
   fun:_ZN18ConcurrentGCThread16create_and_startE14ThreadPriority
   fun:_ZN16G1ConcurrentMarkC1EP15G1CollectedHeapP21G1RegionToSpaceMapper
   fun:_ZN15G1CollectedHeap10initializeEv
   fun:_Z13universe_initv
   fun:_Z12init_globalsv
   fun:_ZN7Threads9create_vmEP14JavaVMInitArgsPb
   fun:JNI_CreateJavaVM
}

{
   <insert_a_suppression_name_here>
   Memcheck:Leak
   match-leak-kinds: reachable
   fun:malloc
   fun:_ZN2os6strdupEPKc8MEMFLAGS
   fun:_ZN5MutexC1ENS_4RankEPKcb
   fun:_ZN8OSThread13pd_initializeEv
   fun:_ZN2os13create_threadEP6ThreadNS_10ThreadTypeEm
   fun:_ZN18ConcurrentGCThread16create_and_startE14ThreadPriority
   fun:_ZN24G1ConcurrentRefineThread6createEP18G1ConcurrentRefinej
   fun:_ZN31G1ConcurrentRefineThreadControl10initializeEP18G1ConcurrentRefinej
   fun:_ZN18G1ConcurrentRefine6createEP8G1PolicyPi
   fun:_ZN15G1CollectedHeap10initializeEv
   fun:_Z13universe_initv
   fun:_Z12init_globalsv
}

{
   <insert_a_suppression_name_here>
   Memcheck:Leak
   match-leak-kinds: reachable
   fun:malloc
   fun:_ZN2os6strdupEPKc8MEMFLAGS
   fun:_ZN5MutexC1ENS_4RankEPKcb
   fun:_ZN8OSThread13pd_initializeEv
   fun:_ZN2os13create_threadEP6ThreadNS_10ThreadTypeEm
   fun:_ZN18NotificationThread10initializeEv
   fun:_ZN10Management10initializeEP10JavaThread
   fun:_ZN7Threads9create_vmEP14JavaVMInitArgsPb
   fun:JNI_CreateJavaVM
   fun:JavaMain
   fun:ThreadJavaMain
   fun:start_thread
}

{
   <insert_a_suppression_name_here>
   Memcheck:Leak
   match-leak-kinds: reachable
   fun:malloc
   fun:_ZN2os6strdupEPKc8MEMFLAGS
   fun:_ZN5MutexC1ENS_4RankEPKcb
   fun:_ZN8OSThread13pd_initializeEv
   fun:_ZN2os13create_threadEP6ThreadNS_10ThreadTypeEm
   fun:_ZN22MonitorDeflationThread10initializeEv
   fun:_ZN7Threads9create_vmEP14JavaVMInitArgsPb
   fun:JNI_CreateJavaVM
   fun:JavaMain
   fun:ThreadJavaMain
   fun:start_thread
   fun:clone
}

{
   <insert_a_suppression_name_here>
   Memcheck:Leak
   match-leak-kinds: reachable
   fun:malloc
   fun:_ZN2os6strdupEPKc8MEMFLAGS
   fun:_ZN5MutexC1ENS_4RankEPKcb
   fun:_ZN8OSThread13pd_initializeEv
   fun:_ZN2os13create_threadEP6ThreadNS_10ThreadTypeEm
   fun:_ZN7Threads9create_vmEP14JavaVMInitArgsPb
   fun:JNI_CreateJavaVM
   fun:JavaMain
   fun:ThreadJavaMain
   fun:start_thread
   fun:clone
}

{
   <insert_a_suppression_name_here>
   Memcheck:Leak
   match-leak-kinds: reachable
   fun:malloc
   fun:_ZN2os6strdupEPKc8MEMFLAGS
   fun:_ZN5MutexC1ENS_4RankEPKcb
   fun:_ZN8VMThread6createEv
   fun:_ZN7Threads9create_vmEP14JavaVMInitArgsPb
   fun:JNI_CreateJavaVM
   fun:JavaMain
   fun:ThreadJavaMain
   fun:start_thread
   fun:clone
}

{
   <insert_a_suppression_name_here>
   Memcheck:Leak
   match-leak-kinds: reachable
   fun:malloc
   fun:_ZN2os6strdupEPKc8MEMFLAGS
   fun:_ZN5MutexC1ENS_4RankEPKcb
   fun:_ZN9G1CardSetC1EP22G1CardSetConfigurationP22G1CardSetMemoryManager
   fun:_ZN16HeapRegionRemSetC1EP10HeapRegionP22G1CardSetConfiguration
   fun:_ZN10HeapRegionC1EjP18G1BlockOffsetTable9MemRegionP22G1CardSetConfiguration
   fun:_ZN15G1CollectedHeap15new_heap_regionEj9MemRegion
   fun:_ZN15G1CollectedHeap10initializeEv
   fun:_Z13universe_initv
   fun:_Z12init_globalsv
   fun:_ZN7Threads9create_vmEP14JavaVMInitArgsPb
   fun:JNI_CreateJavaVM
}

{
   <insert_a_suppression_name_here>
   Memcheck:Leak
   match-leak-kinds: reachable
   fun:malloc
   fun:_ZN2os6strdupEPKc8MEMFLAGS
   fun:_ZN5MutexC1ENS_4RankEPKcb
   fun:_ZN9G1CardSetC1EP22G1CardSetConfigurationP22G1CardSetMemoryManager
   fun:_ZN16HeapRegionRemSetC1EP10HeapRegionP22G1CardSetConfiguration
   fun:_ZN10HeapRegionC1EjP18G1BlockOffsetTable9MemRegionP22G1CardSetConfiguration
   fun:_ZN15G1CollectedHeap15new_heap_regionEj9MemRegion
   fun:_ZN17HeapRegionManager12expand_exactEjjP13WorkerThreads
   fun:_ZN17HeapRegionManager27allocate_containing_regionsE9MemRegionPmP13WorkerThreads
   fun:_ZN15G1CollectedHeap21alloc_archive_regionsE9MemRegion
   fun:_ZN11FileMapInfo20map_heap_region_implEv
   fun:_ZN11FileMapInfo23map_or_load_heap_regionEv
}

{
   <insert_a_suppression_name_here>
   Memcheck:Leak
   match-leak-kinds: reachable
   fun:malloc
   fun:_ZN2os6strdupEPKc8MEMFLAGS
   fun:_ZN5MutexC1ENS_4RankEPKcb
   fun:_ZN9G1CardSetC1EP22G1CardSetConfigurationP22G1CardSetMemoryManager
   fun:_ZN16HeapRegionRemSetC1EP10HeapRegionP22G1CardSetConfiguration
   fun:_ZN10HeapRegionC1EjP18G1BlockOffsetTable9MemRegionP22G1CardSetConfiguration
   fun:_ZN15G1CollectedHeap15new_heap_regionEj9MemRegion
   fun:_ZN17HeapRegionManager6expandEjjP13WorkerThreads
   fun:_ZN17HeapRegionManager9expand_byEjP13WorkerThreads
   fun:_ZN15G1CollectedHeap6expandEmP13WorkerThreadsPd
   fun:_ZN15G1CollectedHeap10initializeEv
   fun:_Z13universe_initv
}

{
   <insert_a_suppression_name_here>
   Memcheck:Leak
   match-leak-kinds: reachable
   fun:malloc
   fun:_ZN2os6strdupEPKc8MEMFLAGS
   fun:_ZN7Threads28initialize_java_lang_classesEP10JavaThreadS1_
   fun:_ZN7Threads9create_vmEP14JavaVMInitArgsPb
   fun:JNI_CreateJavaVM
   fun:JavaMain
   fun:ThreadJavaMain
   fun:start_thread
   fun:clone
}

{
   <insert_a_suppression_name_here>
   Memcheck:Leak
   match-leak-kinds: reachable
   fun:malloc
   fun:_Znwm
   fun:_ZN15ImageFileReader4openEPKcb
   fun:_ZN11ClassLoader17lookup_vm_optionsEv
   fun:_ZN9Arguments5parseEPK14JavaVMInitArgs
   fun:_ZN7Threads9create_vmEP14JavaVMInitArgsPb
   fun:JNI_CreateJavaVM
   fun:JavaMain
   fun:ThreadJavaMain
   fun:start_thread
   fun:clone
}

{
   <insert_a_suppression_name_here>
   Memcheck:Leak
   match-leak-kinds: reachable
   fun:malloc
   fun:_Znwm
   fun:_ZN15ImageFileReader4openEv.part.0
   fun:_ZN15ImageFileReader4openEPKcb
   fun:_ZN11ClassLoader17lookup_vm_optionsEv
   fun:_ZN9Arguments5parseEPK14JavaVMInitArgs
   fun:_ZN7Threads9create_vmEP14JavaVMInitArgsPb
   fun:JNI_CreateJavaVM
   fun:JavaMain
   fun:ThreadJavaMain
   fun:start_thread
   fun:clone
}

{
   <insert_a_suppression_name_here>
   Memcheck:Leak
   match-leak-kinds: reachable
   fun:malloc
   fun:inflateInit2_
   fun:Java_java_util_zip_Inflater_init
   obj:*
   obj:*
   obj:*
   obj:*
   obj:*
   obj:*
   obj:*
   obj:*
   obj:*
}

{
   <insert_a_suppression_name_here>
   Memcheck:Leak
   match-leak-kinds: reachable
   fun:malloc
   fun:malloc
   fun:_dl_new_object
   fun:_dl_map_object_from_fd
   fun:_dl_map_new_object
   fun:dl_open_worker_begin
   fun:_dl_catch_exception
   fun:dl_open_worker
   fun:_dl_catch_exception
   fun:_dl_open
   fun:dlopen_doit
   fun:_dl_catch_exception
   fun:_dl_catch_error
}

{
   <insert_a_suppression_name_here>
   Memcheck:Leak
   match-leak-kinds: reachable
   fun:malloc
   fun:malloc
   fun:_dl_new_object
   fun:_dl_map_object_from_fd
   fun:_dl_map_new_object
   fun:openaux
   fun:_dl_catch_exception
   fun:_dl_map_object_deps
   fun:dl_open_worker_begin
   fun:_dl_catch_exception
   fun:dl_open_worker
   fun:_dl_catch_exception
   fun:_dl_open
}

{
   <insert_a_suppression_name_here>
   Memcheck:Leak
   match-leak-kinds: reachable
   fun:malloc
   fun:malloc
   fun:add_to_global_resize
   fun:dl_open_worker_begin
   fun:_dl_catch_exception
   fun:dl_open_worker
   fun:_dl_catch_exception
   fun:_dl_open
   fun:dlopen_doit
   fun:_dl_catch_exception
   fun:_dl_catch_error
   fun:_dlerror_run
   fun:dlopen_implementation
   fun:dlopen@@GLIBC_2.34
}

{
   <insert_a_suppression_name_here>
   Memcheck:Leak
   match-leak-kinds: reachable
   fun:malloc
   fun:malloc
   fun:decompose_rpath
   fun:cache_rpath
   fun:_dl_map_new_object
   fun:openaux
   fun:_dl_catch_exception
   fun:_dl_map_object_deps
   fun:dl_open_worker_begin
   fun:_dl_catch_exception
   fun:dl_open_worker
   fun:_dl_catch_exception
   fun:_dl_open
   fun:dlopen_doit
}

{
   <insert_a_suppression_name_here>
   Memcheck:Leak
   match-leak-kinds: reachable
   fun:malloc
   fun:malloc
   fun:open_path
   fun:_dl_map_new_object
   fun:openaux
   fun:_dl_catch_exception
   fun:_dl_map_object_deps
   fun:dl_open_worker_begin
   fun:_dl_catch_exception
   fun:dl_open_worker
   fun:_dl_catch_exception
   fun:_dl_open
   fun:dlopen_doit
}

{
   <insert_a_suppression_name_here>
   Memcheck:Leak
   match-leak-kinds: reachable
   fun:malloc
   fun:malloc
   fun:resize_scopes
   fun:dl_open_worker_begin
   fun:_dl_catch_exception
   fun:dl_open_worker
   fun:_dl_catch_exception
   fun:_dl_open
   fun:dlopen_doit
   fun:_dl_catch_exception
   fun:_dl_catch_error
   fun:_dlerror_run
   fun:dlopen_implementation
   fun:dlopen@@GLIBC_2.34
   fun:_ZN2os5Linux13dlopen_helperEPKcPci
}

{
   <insert_a_suppression_name_here>
   Memcheck:Leak
   match-leak-kinds: reachable
   fun:malloc
   fun:malloc
   fun:strdup
   fun:_dl_load_cache_lookup
   fun:_dl_map_new_object
   fun:openaux
   fun:_dl_catch_exception
   fun:_dl_map_object_deps
   fun:dl_open_worker_begin
   fun:_dl_catch_exception
   fun:dl_open_worker
   fun:_dl_catch_exception
   fun:_dl_open
}

{
   <insert_a_suppression_name_here>
   Memcheck:Leak
   match-leak-kinds: reachable
   fun:malloc
   fun:malloc
   fun:strdup
   fun:_dl_map_new_object
   fun:dl_open_worker_begin
   fun:_dl_catch_exception
   fun:dl_open_worker
   fun:_dl_catch_exception
   fun:_dl_open
   fun:dlopen_doit
   fun:_dl_catch_exception
   fun:_dl_catch_error
   fun:_dlerror_run
}

{
   <insert_a_suppression_name_here>
   Memcheck:Leak
   match-leak-kinds: reachable
   fun:malloc
   fun:strdup
   fun:GetJavaProperties
   fun:Java_jdk_internal_util_SystemProps_00024Raw_platformProperties
   obj:*
   obj:*
   obj:*
   obj:*
   obj:*
